 furby xbox

 Timestamp is 4eb3165d (Thu Nov 03 23:31:57 2011)

 Preferred load address is 00400000

 Start         Length     Name                   Class
 0001:00000000 000d6f0aH .text                   CODE
 0001:000d6f10 00000437H .text$x                 CODE
 0001:000d7350 0000003fH .text$yc                CODE
 0001:000d7390 0000005eH .text$yd                CODE
 0002:00000000 0000cf40H D3D                     CODE
 0002:0000cf40 000013e0H D3D_RD                  CODE
 0002:0000e320 000038bcH D3D_URW                 CODE
 0003:00000000 0000579fH D3DX                    CODE
 0003:000057a0 00000ee0H D3DX_RD                 CODE
 0004:00000000 00007044H DSOUND                  CODE
 0004:00007048 00000424H DSOUND_RD               CODE
 0004:00007470 000006c0H DSOUND_RW               CODE
 0004:00007b30 000001d4H DSOUND_URW              CODE
 0005:00000000 00000004H .XID$A                  CODE
 0005:00000004 00000004H .XID$Gamepad            CODE
 0005:00000008 00000004H .XID$IrRemote           CODE
 0005:0000000c 00000004H .XID$Keyboard           CODE
 0005:00000010 00000004H .XID$Mouse              CODE
 0005:00000014 00000004H .XID$ZZZ                CODE
 0005:00000018 00000004H .XPP$ClassA             CODE
 0005:0000001c 00000008H .XPP$ClassXID           CODE
 0005:00000024 00000004H .XPP$ClassZZHub         CODE
 0005:00000028 00000004H .XPP$ClassZZZ           CODE
 0005:0000002c 00000001H .XPP$DATA               CODE
 0005:00000030 000002b4H .XPP$Data               CODE
 0005:000002e4 00000cccH .XPPCINIT               CODE
 0005:00000fb0 0000599aH .XPPCODE                CODE
 0006:00000000 000001acH .idata$5                DATA
 0006:000001b0 0002f3acH .rdata                  DATA
 0006:0002f55c 00000050H .rdata$debug            DATA
 0006:0002f5ac 000005e0H .xdata$x                DATA
 0006:0002fb8c 00000000H .edata                  DATA
 0007:00000000 00000004H .CRT$RIA                DATA
 0007:00000004 00000004H .CRT$RII10              DATA
 0007:00000008 00000004H .CRT$RII20              DATA
 0007:0000000c 00000004H .CRT$RIZ                DATA
 0007:00000010 00000004H .CRT$XCA                DATA
 0007:00000014 00000004H .CRT$XCAA               DATA
 0007:00000018 00000018H .CRT$XCU                DATA
 0007:00000030 00000004H .CRT$XCZ                DATA
 0007:00000034 00000004H .CRT$XIA                DATA
 0007:00000038 0000000cH .CRT$XIC                DATA
 0007:00000044 00000004H .CRT$XIY                DATA
 0007:00000048 00000004H .CRT$XIZ                DATA
 0007:0000004c 00000004H .CRT$XPA                DATA
 0007:00000050 00000008H .CRT$XPX                DATA
 0007:00000058 00000004H .CRT$XPZ                DATA
 0007:0000005c 00000004H .CRT$XTA                DATA
 0007:00000060 00000004H .CRT$XTB                DATA
 0007:00000064 00000004H .CRT$XTZ                DATA
 0007:00000068 00000004H .XAPI$LNA               DATA
 0007:0000006c 00000004H .XAPI$LNZ               DATA
 0007:00000070 00017de8H .data                   DATA
 0007:00017e60 00037358H .bss                    DATA
 0008:00000000 00007180H DOLBY                   DATA
 0009:00000000 00000014H .idata$2                CODE
 0009:00000014 00000014H .idata$3                CODE
 0009:00000028 000001acH .idata$4                CODE
 0009:000001d4 0000000eH .idata$6                CODE
 000a:00000000 00000010H .XBLD$A                 DATA
 000a:00000010 00000080H .XBLD$V                 DATA
 000b:00000000 00000001H .tls                    DATA
 000b:00000008 00000088H .tls$                   DATA
 000b:00000090 00000001H .tls$ZZZ                DATA

  Address         Publics by Value              Rva+Base     Lib:Object

 0000:00000000       ___safe_se_handler_table   00000000     <absolute>
 0000:00000000       __except_list              00000000     <absolute>
 0000:00000000       ___safe_se_handler_count   00000000     <absolute>
 0000:00000004       __tls_array                00000004     <absolute>
 0001:00000000       ??0Door@@QAE@HHPAVRaycaster@@_N@Z 004003c0 f   Door.obj
 0001:00000060       ?IsOpen@Door@@QAE_NXZ      00400420 f   Door.obj
 0001:00000070       ?GetPos@Door@@QAEXPAH0@Z   00400430 f   Door.obj
 0001:00000090       ?SetOpenedWidth@Door@@QAEXM@Z 00400450 f   Door.obj
 0001:00000110       ?GetOpenedWidth@Door@@QAEMXZ 004004d0 f   Door.obj
 0001:00000120       ?SetClosing@Door@@QAEX_N@Z 004004e0 f   Door.obj
 0001:00000160       ?GetClosing@Door@@QAE_NXZ  00400520 f   Door.obj
 0001:00000170       ?SetOpening@Door@@QAEX_N@Z 00400530 f   Door.obj
 0001:000001b0       ?GetOpening@Door@@QAE_NXZ  00400570 f   Door.obj
 0001:000001c0       ?Update@Door@@QAEXMM@Z     00400580 f   Door.obj
 0001:000002d0       ?IsLockedDoor@Door@@QAE_NXZ 00400690 f   Door.obj
 0001:000002e0       ??1Shot@@UAE@XZ            004006a0 f i Furby.obj
 0001:000002e0       ??1Sprite@@UAE@XZ          004006a0 f i Furby.obj
 0001:000002e0       ??1SkullShot@@UAE@XZ       004006a0 f i Furby.obj
 0001:000002e0       ??1SKDeathAnimation@@UAE@XZ 004006a0 f i Furby.obj
 0001:000002e0       ??1DeathAnimation@@UAE@XZ  004006a0 f i Furby.obj
 0001:000002e0       ??1Skull@@UAE@XZ           004006a0 f i Furby.obj
 0001:000002e0       ??1Furby@@UAE@XZ           004006a0 f i Furby.obj
 0001:000002f0       ??_GSprite@@UAEPAXI@Z      004006b0 f i Furby.obj
 0001:000002f0       ??_ESprite@@UAEPAXI@Z      004006b0 f i Furby.obj
 0001:00000310       ??0Furby@@QAE@QAPAUSDL_Surface@@PAU1@MMPAV?$list@PAVSprite@@V?$allocator@PAVSprite@@@std@@@std@@@Z 004006d0 f   Furby.obj
 0001:000003d0       ?SetVisible@Furby@@QAEX_N@Z 00400790 f   Furby.obj
 0001:000003e0       ?IsDead@Furby@@QAE_NXZ     004007a0 f   Furby.obj
 0001:000003f0       ??0Shot@@QAE@PAUSDL_Surface@@MMMM@Z 004007b0 f   Furby.obj
 0001:000004a0       ?Update@Shot@@UAEXPAVRaycaster@@@Z 00400860 f   Furby.obj
 0001:00000520       ??0DeathAnimation@@QAE@QAPAUSDL_Surface@@MM@Z 004008e0 f   Furby.obj
 0001:000005c0       ?Update@DeathAnimation@@UAEXXZ 00400980 f   Furby.obj
 0001:000005c0       ?Update@SKDeathAnimation@@UAEXXZ 00400980 f   Furby.obj
 0001:00000610       ??0SKDeathAnimation@@QAE@QAPAUSDL_Surface@@MM@Z 004009d0 f   Furby.obj
 0001:000006b0       ?HasEnded@SKDeathAnimation@@QAE_NXZ 00400a70 f   Furby.obj
 0001:000006b0       ?HasEnded@DeathAnimation@@QAE_NXZ 00400a70 f   Furby.obj
 0001:000006c0       ??0Skull@@QAE@QAPAUSDL_Surface@@PAU1@MMPAV?$list@PAVSprite@@V?$allocator@PAVSprite@@@std@@@std@@@Z 00400a80 f   Furby.obj
 0001:00000790       ?SetVisible@Skull@@QAEX_N@Z 00400b50 f   Furby.obj
 0001:000007a0       ?IsDead@Skull@@QAE_NXZ     00400b60 f   Furby.obj
 0001:000007b0       ??0SkullShot@@QAE@PAUSDL_Surface@@MMMM@Z 00400b70 f   Furby.obj
 0001:00000860       ?Update@SkullShot@@UAEXPAVRaycaster@@@Z 00400c20 f   Furby.obj
 0001:000008e0       ?IsVanished@SkullShot@@QAE_NXZ 00400ca0 f   Furby.obj
 0001:000008e0       ?IsVanished@Shot@@QAE_NXZ  00400ca0 f   Furby.obj
 0001:000008f0       ?NextImage@Furby@@QAEXXZ   00400cb0 f   Furby.obj
 0001:00000920       ??_GShot@@UAEPAXI@Z        00400ce0 f i Furby.obj
 0001:00000920       ??_EFurby@@UAEPAXI@Z       00400ce0 f i Furby.obj
 0001:00000920       ??_GFurby@@UAEPAXI@Z       00400ce0 f i Furby.obj
 0001:00000920       ??_ESKDeathAnimation@@UAEPAXI@Z 00400ce0 f i Furby.obj
 0001:00000920       ??_EDeathAnimation@@UAEPAXI@Z 00400ce0 f i Furby.obj
 0001:00000920       ??_GSKDeathAnimation@@UAEPAXI@Z 00400ce0 f i Furby.obj
 0001:00000920       ??_GSkull@@UAEPAXI@Z       00400ce0 f i Furby.obj
 0001:00000920       ??_ESkullShot@@UAEPAXI@Z   00400ce0 f i Furby.obj
 0001:00000920       ??_GDeathAnimation@@UAEPAXI@Z 00400ce0 f i Furby.obj
 0001:00000920       ??_ESkull@@UAEPAXI@Z       00400ce0 f i Furby.obj
 0001:00000920       ??_EShot@@UAEPAXI@Z        00400ce0 f i Furby.obj
 0001:00000920       ??_GSkullShot@@UAEPAXI@Z   00400ce0 f i Furby.obj
 0001:00000940       ?NextImage@Skull@@QAEXXZ   00400d00 f   Furby.obj
 0001:00000970       ?erase@?$basic_string@DU?$char_traits@D@std@@V?$allocator@D@2@@std@@QAEAAV12@II@Z 00400d30 f i Furby.obj
 0001:000009f0       ?_Copy@?$basic_string@DU?$char_traits@D@std@@V?$allocator@D@2@@std@@IAEXII@Z 00400db0 f i Furby.obj
 0001:00000b30       ??1?$basic_string@DU?$char_traits@D@std@@V?$allocator@D@2@@std@@QAE@XZ 00400ef0 f i Furby.obj
 0001:00000b60       ??1length_error@std@@UAE@XZ 00400f20 f i Furby.obj
 0001:00000b60       ??1logic_error@std@@UAE@XZ 00400f20 f i Furby.obj
 0001:00000ba0       ?what@logic_error@std@@UBEPBDXZ 00400f60 f i Furby.obj
 0001:00000bb0       ??_Elength_error@std@@UAEPAXI@Z 00400f70 f i Furby.obj
 0001:00000bb0       ??_Elogic_error@std@@UAEPAXI@Z 00400f70 f i Furby.obj
 0001:00000bb0       ??_Glogic_error@std@@UAEPAXI@Z 00400f70 f i Furby.obj
 0001:00000bb0       ??_Glength_error@std@@UAEPAXI@Z 00400f70 f i Furby.obj
 0001:00000bd0       ?assign@?$basic_string@DU?$char_traits@D@std@@V?$allocator@D@2@@std@@QAEAAV12@ABV12@II@Z 00400f90 f i Furby.obj
 0001:00000cc0       ?assign@?$basic_string@DU?$char_traits@D@std@@V?$allocator@D@2@@std@@QAEAAV12@PBDI@Z 00401080 f i Furby.obj
 0001:00000db0       ??0logic_error@std@@QAE@ABV?$basic_string@DU?$char_traits@D@std@@V?$allocator@D@2@@1@@Z 00401170 f i Furby.obj
 0001:00000e10       ??0?$basic_string@DU?$char_traits@D@std@@V?$allocator@D@2@@std@@QAE@PBD@Z 004011d0 f i Furby.obj
 0001:00000e50       ?_Incsize@?$list@PAVSprite@@V?$allocator@PAVSprite@@@std@@@std@@IAEXI@Z 00401210 f i Furby.obj
 0001:00000ef0       ??0logic_error@std@@QAE@ABV01@@Z 004012b0 f i Furby.obj
 0001:00000f60       ??0length_error@std@@QAE@ABV01@@Z 00401320 f i Furby.obj
 0001:00000f80       ?push_back@?$list@PAVSprite@@V?$allocator@PAVSprite@@@std@@@std@@QAEXABQAVSprite@@@Z 00401340 f i Furby.obj
 0001:00000fc0       ?Update@Furby@@UAEXPAVRaycaster@@@Z 00401380 f   Furby.obj
 0001:00001200       ?Update@Skull@@UAEXPAVRaycaster@@@Z 004015c0 f   Furby.obj
 0001:00001440       ??0FrameworkSetup@@QAE@XZ  00401800 f i Main.obj
 0001:000014a0       ??_EState@@UAEPAXI@Z       00401860 f i Main.obj
 0001:000014a0       ??_GState@@UAEPAXI@Z       00401860 f i Main.obj
 0001:000014c0       ?ParseArgs@@YA_NHPAPADPA_N1PAD111@Z 00401880 f   Main.obj
 0001:00001650       ??_GSplash@@UAEPAXI@Z      00401a10 f i Main.obj
 0001:00001650       ??_ESplash@@UAEPAXI@Z      00401a10 f i Main.obj
 0001:00001670       ??1Splash@@UAE@XZ          00401a30 f i Main.obj
 0001:00001670       ??1State@@UAE@XZ           00401a30 f i Main.obj
 0001:00001680       _main                      00401a40 f   Main.obj
 0001:000018d0       ??0Player@@QAE@XZ          00401c90 f   Player.obj
 0001:000018f0       ?GetHealth@Player@@QAEHXZ  00401cb0 f   Player.obj
 0001:00001900       ?SetHealth@Player@@QAEXH@Z 00401cc0 f   Player.obj
 0001:00001910       ?GetAmmo@Player@@QAEHXZ    00401cd0 f   Player.obj
 0001:00001920       ?SetAmmo@Player@@QAEXH@Z   00401ce0 f   Player.obj
 0001:00001930       ?DecrementAmmo@Player@@QAEXH@Z 00401cf0 f   Player.obj
 0001:00001940       ?IncrementAmmo@Player@@QAEXH@Z 00401d00 f   Player.obj
 0001:00001950       ?IncrementHealth@Player@@QAEXH@Z 00401d10 f   Player.obj
 0001:00001970       ?DecrementHealth@Player@@QAEXH@Z 00401d30 f   Player.obj
 0001:00001990       ?HasKey@Player@@QAE_NXZ    00401d50 f   Player.obj
 0001:000019a0       ?SetHasKey@Player@@QAEX_N@Z 00401d60 f   Player.obj
 0001:000019b0       ?HasMachineGun@Player@@QAE_NXZ 00401d70 f   Player.obj
 0001:000019c0       ?SetHasMachineGun@Player@@QAEX_N@Z 00401d80 f   Player.obj
 0001:000019d0       ?SetWeapon@Player@@QAEXH@Z 00401d90 f   Player.obj
 0001:00001a10       ?GetMGAmmo@Player@@QAEHXZ  00401dd0 f   Player.obj
 0001:00001a20       ?SetMGAmmo@Player@@QAEXH@Z 00401de0 f   Player.obj
 0001:00001a30       ?DecrementMGAmmo@Player@@QAEXH@Z 00401df0 f   Player.obj
 0001:00001a40       ?IncrementMGAmmo@Player@@QAEXH@Z 00401e00 f   Player.obj
 0001:00001a50       ?ClearMap@Raycaster@@QAEXXZ 00401e10 f   Raycaster.obj
 0001:00001a90       ?GetPosX@Raycaster@@QBEMXZ 00401e50 f   Raycaster.obj
 0001:00001aa0       ?GetPosY@Raycaster@@QBEMXZ 00401e60 f   Raycaster.obj
 0001:00001ab0       ?SetAlpha@Raycaster@@QAEXM@Z 00401e70 f   Raycaster.obj
 0001:00001ba0       ?Rotate@Raycaster@@QAEXM@Z 00401f60 f   Raycaster.obj
 0001:00001ca0       ?DrawWallSlice@Raycaster@@AAEXHHHM_N@Z 00402060 f   Raycaster.obj
 0001:00001d90       ?GetMapValueAt@Raycaster@@QAEHHH@Z 00402150 f   Raycaster.obj
 0001:00001dd0       ?MapChangeNeeded@Raycaster@@QAE_NXZ 00402190 f   Raycaster.obj
 0001:00001de0       ?SetMapValueAt@Raycaster@@QAEXHHH@Z 004021a0 f   Raycaster.obj
 0001:00001e10       ?clear@?$list@VDoor@@V?$allocator@VDoor@@@std@@@std@@QAEXXZ 004021d0 f i Raycaster.obj
 0001:00001e10       ?clear@?$list@USprDraw@@V?$allocator@USprDraw@@@std@@@std@@QAEXXZ 004021d0 f i Raycaster.obj
 0001:00001e10       ?clear@?$list@PAVState@@V?$allocator@PAVState@@@std@@@std@@QAEXXZ 004021d0 f i x_Framework.obj
 0001:00001e10       ?clear@?$list@UTextMessage@@V?$allocator@UTextMessage@@@std@@@std@@QAEXXZ 004021d0 f i x_Game.obj
 0001:00001e10       ?clear@?$list@PAVSprite@@V?$allocator@PAVSprite@@@std@@@std@@QAEXXZ 004021d0 f i x_Game.obj
 0001:00001e50       ?_Buynode@?$list@USprDraw@@V?$allocator@USprDraw@@@std@@@std@@IAEPAU_Node@?$_List_nod@USprDraw@@V?$allocator@USprDraw@@@std@@@2@XZ 00402210 f i Raycaster.obj
 0001:00001e70       ?_Buynode@?$list@VDoor@@V?$allocator@VDoor@@@std@@@std@@IAEPAU_Node@?$_List_nod@VDoor@@V?$allocator@VDoor@@@std@@@2@XZ 00402230 f i Raycaster.obj
 0001:00001e90       ?_Buynode@?$list@USprDraw@@V?$allocator@USprDraw@@@std@@@std@@IAEPAU_Node@?$_List_nod@USprDraw@@V?$allocator@USprDraw@@@std@@@2@PAU342@0ABUSprDraw@@@Z 00402250 f i Raycaster.obj
 0001:00001ee0       ?_Buynode@?$list@VDoor@@V?$allocator@VDoor@@@std@@@std@@IAEPAU_Node@?$_List_nod@VDoor@@V?$allocator@VDoor@@@std@@@2@PAU342@0ABVDoor@@@Z 004022a0 f i Raycaster.obj
 0001:00001f10       ?UpdateDoors@Raycaster@@AAEXXZ 004022d0 f   Raycaster.obj
 0001:00001f80       ?GetDoorAt@Raycaster@@AAEPAVDoor@@HH@Z 00402340 f   Raycaster.obj
 0001:00002010       ?erase@?$list@PAVSprite@@V?$allocator@PAVSprite@@@std@@@std@@QAE?AViterator@12@V312@@Z 004023d0 f i Raycaster.obj
 0001:00002050       ??1Raycaster@@QAE@XZ       00402410 f   Raycaster.obj
 0001:000020c0       ?OpenDoor@Raycaster@@QAEX_NPA_N@Z 00402480 f   Raycaster.obj
 0001:00002240       ?CastThroughIntersections@Raycaster@@AAEMMW4IntersectionDir@1@PAHPAM@Z 00402600 f   Raycaster.obj
 0001:000026e0       ?CheckCollWithSprite@Raycaster@@AAE_NPA_NPAH@Z 00402aa0 f   Raycaster.obj
 0001:000027b0       ??0?$list@USprDraw@@V?$allocator@USprDraw@@@std@@@std@@QAE@XZ 00402b70 f i Raycaster.obj
 0001:000027d0       ?MoveForward@Raycaster@@QAEXMPA_NPAH@Z 00402b90 f   Raycaster.obj
 0001:000029f0       ?MoveBackward@Raycaster@@QAEXMPA_NPAH@Z 00402db0 f   Raycaster.obj
 0001:00002c10       ?StepRight@Raycaster@@QAEXMPA_NPAH@Z 00402fd0 f   Raycaster.obj
 0001:00002e50       ?StepLeft@Raycaster@@QAEXMPA_NPAH@Z 00403210 f   Raycaster.obj
 0001:00003090       ?_Incsize@?$list@USprDraw@@V?$allocator@USprDraw@@@std@@@std@@IAEXI@Z 00403450 f i Raycaster.obj
 0001:00003130       ?_Incsize@?$list@VDoor@@V?$allocator@VDoor@@@std@@@std@@IAEXI@Z 004034f0 f i Raycaster.obj
 0001:000031d0       ?LoadMap@Raycaster@@QAEXPBD@Z 00403590 f   Raycaster.obj
 0001:00003430       ?_Splice@?$list@USprDraw@@V?$allocator@USprDraw@@@std@@@std@@QAEXViterator@12@AAV12@00I@Z 004037f0 f i Raycaster.obj
 0001:00003480       ??0Raycaster@@QAE@PAURaycasterSetup@@@Z 00403840 f   Raycaster.obj
 0001:000036e0       ?merge@?$list@USprDraw@@V?$allocator@USprDraw@@@std@@@std@@QAEXAAV12@@Z 00403aa0 f i Raycaster.obj
 0001:00003790       ?sort@?$list@USprDraw@@V?$allocator@USprDraw@@@std@@@std@@QAEXXZ 00403b50 f i Raycaster.obj
 0001:000039b0       ?DrawSprites@Raycaster@@AAEXXZ 00403d70 f   Raycaster.obj
 0001:00003e10       ?Draw@Raycaster@@QAEXXZ    004041d0 f   Raycaster.obj
 0001:000040b0       ?Init@Splash@@UAEXXZ       00404470 f   Splash.obj
 0001:00004160       ?Quit@Splash@@UAEXXZ       00404520 f   Splash.obj
 0001:000041b0       ?Input@Splash@@UAEXXZ      00404570 f   Splash.obj
 0001:00004200       ?Update@Splash@@UAEXXZ     004045c0 f   Splash.obj
 0001:00004240       ?Draw@Splash@@UAEXXZ       00404600 f   Splash.obj
 0001:00004300       ??0Sprite@@QAE@PAUSDL_Surface@@MMH@Z 004046c0 f   Sprite.obj
 0001:00004340       ?SetPos@Sprite@@QAEXMM@Z   00404700 f   Sprite.obj
 0001:00004360       ?GetPosX@Sprite@@QBEMXZ    00404720 f   Sprite.obj
 0001:00004370       ?GetPosY@Sprite@@QBEMXZ    00404730 f   Sprite.obj
 0001:00004380       ?SetImage@Sprite@@QAEXPAUSDL_Surface@@@Z 00404740 f   Sprite.obj
 0001:00004390       ?GetImage@Sprite@@QAEPAUSDL_Surface@@XZ 00404750 f   Sprite.obj
 0001:000043a0       ?SetId@Sprite@@QAEXH@Z     00404760 f   Sprite.obj
 0001:000043b0       ?GetWeapon@Player@@QAEHXZ  00404770 f   Player.obj
 0001:000043b0       ?GetId@Sprite@@QAEHXZ      00404770 f   Sprite.obj
 0001:000043c0       ?PointCollWith@Sprite@@QAE_NMM@Z 00404780 f   Sprite.obj
 0001:00004440       ?SetLookingAt@Sprite@@QAEX_N@Z 00404800 f   Sprite.obj
 0001:00004450       ?GetLookingAt@Sprite@@QAE_NXZ 00404810 f   Sprite.obj
 0001:00004460       ?Error@Framework@@QAEXPBD@Z 00404820 f   x_Framework.obj
 0001:00004490       ?DrawPixel@Framework@@QAE_NHHI@Z 00404850 f   x_Framework.obj
 0001:00004550       ?GetPixelColor@Framework@@QBEIPAUSDL_Surface@@HH@Z 00404910 f   x_Framework.obj
 0001:000045f0       ?LoadImage@Framework@@QAEPAUSDL_Surface@@PBD_N@Z 004049b0 f   x_Framework.obj
 0001:000046c0       ?LockScreen@Framework@@QAEXXZ 00404a80 f   x_Framework.obj
 0001:000046e0       ?UnlockScreen@Framework@@QAEXXZ 00404aa0 f   x_Framework.obj
 0001:00004700       ?GetScreen@Framework@@QAEPAUSDL_Surface@@XZ 00404ac0 f   x_Framework.obj
 0001:00004710       ?GetScrW@Framework@@QBEHXZ 00404ad0 f   x_Framework.obj
 0001:00004720       ?GetScrH@Framework@@QBEHXZ 00404ae0 f   x_Framework.obj
 0001:00004730       ?FillRect@Framework@@QAEXPAUSDL_Rect@@I@Z 00404af0 f   x_Framework.obj
 0001:00004750       ?KeyPressed@Framework@@QAE_NH_N@Z 00404b10 f   x_Framework.obj
 0001:000047a0       ?GetJButton@Framework@@QAEHHH@Z 00404b60 f   x_Framework.obj
 0001:000047d0       ?GetAxis@Framework@@QAEMHH@Z 00404b90 f   x_Framework.obj
 0001:00004820       ?GetAxisAWPositive@Framework@@QAEMHH@Z 00404be0 f   x_Framework.obj
 0001:00004880       ?JButtonState@Framework@@QAEHHH@Z 00404c40 f   x_Framework.obj
 0001:000048f0       ?GetHatCentered@Framework@@QAE_NH@Z 00404cb0 f   x_Framework.obj
 0001:00004920       ?GetHatWhich@Framework@@QAEHHH@Z 00404ce0 f   x_Framework.obj
 0001:00004940       ?GetColor@Framework@@QAEIHHH@Z 00404d00 f   x_Framework.obj
 0001:00004970       ?GetMagenta@Framework@@QBEIXZ 00404d30 f   x_Framework.obj
 0001:00004980       ?Draw@Framework@@QAEXPAUSDL_Surface@@HH@Z 00404d40 f   x_Framework.obj
 0001:000049d0       ?DrawCentered@Framework@@QAEXPAUSDL_Surface@@@Z 00404d90 f   x_Framework.obj
 0001:00004a30       ?DrawTextToSurface@Framework@@QAEPAUSDL_Surface@@PBDUColor@@_N@Z 00404df0 f   x_Framework.obj
 0001:00004a70       ?CountRowsInFile@Framework@@QAEHPBD@Z 00404e30 f   x_Framework.obj
 0001:00004b10       ?CountColsInFile@Framework@@QAEHPBD@Z 00404ed0 f   x_Framework.obj
 0001:00004bb0       ?GetMouseMovement@Framework@@QAEXPAH0@Z 00404f70 f   x_Framework.obj
 0001:00004bd0       ?FileExists@Framework@@QAE_NPBD@Z 00404f90 f   x_Framework.obj
 0001:00004c00       ?GetFrameTime@Framework@@QAEMXZ 00404fc0 f   x_Framework.obj
 0001:00004c10       ?ButtonPressed@Framework@@QAE_NW4MouseButton@@@Z 00404fd0 f   x_Framework.obj
 0001:00004c30       ?LoadMusic@Framework@@QAEPAU_Mix_Music@@PBD@Z 00404ff0 f   x_Framework.obj
 0001:00004cf0       ?LoadSound@Framework@@QAEPAUMix_Chunk@@PBD@Z 004050b0 f   x_Framework.obj
 0001:00004dc0       ?Coll@Framework@@QAE_NPAUSDL_Rect@@0@Z 00405180 f   x_Framework.obj
 0001:00004e20       ?PlaySound@Framework@@QAEHPAUMix_Chunk@@H@Z 004051e0 f   x_Framework.obj
 0001:00004e50       ?PlayMusic@Framework@@QAEXPAU_Mix_Music@@H@Z 00405210 f   x_Framework.obj
 0001:00004e70       ?GetNoSound@Framework@@QBE_NXZ 00405230 f   x_Framework.obj
 0001:00004e80       ?GlobalSounds@Framework@@QAEXXZ 00405240 f   x_Framework.obj
 0001:00004eb0       ?ArmMovmeantH@Framework@@QAEHXZ 00405270 f   x_Framework.obj
 0001:00004ff0       ?ArmMovmeantW@Framework@@QAEHXZ 004053b0 f   x_Framework.obj
 0001:00005130       ?xbox_SetScreenPosition@Framework@@QAEHMM@Z 004054f0 f   x_Framework.obj
 0001:00005190       ?xbox_SetScreenStretch@Framework@@QAEHMM@Z 00405550 f   x_Framework.obj
 0001:000051f0       ?ToUint32@Color@@QAEIXZ    004055b0 f   x_Framework.obj
 0001:00005220       ?DrawText@Framework@@QAEXPBDHHUColor@@_N@Z 004055e0 f   x_Framework.obj
 0001:000052b0       ?DrawTextCentered@Framework@@QAEXPBDUColor@@_N@Z 00405670 f   x_Framework.obj
 0001:00005310       ?ShowFPS@Framework@@QAEXXZ 004056d0 f   x_Framework.obj
 0001:00005440       ?Debug@Framework@@QAEX_N@Z 00405800 f   x_Framework.obj
 0001:00005890       ?_Buynode@?$list@PAVSprite@@V?$allocator@PAVSprite@@@std@@@std@@IAEPAU_Node@?$_List_nod@PAVSprite@@V?$allocator@PAVSprite@@@std@@@2@PAU342@0ABQAVSprite@@@Z 00405c50 f i Furby.obj
 0001:00005890       ?_Buynode@?$list@PAVState@@V?$allocator@PAVState@@@std@@@std@@IAEPAU_Node@?$_List_nod@PAVState@@V?$allocator@PAVState@@@std@@@2@PAU342@0ABQAVState@@@Z 00405c50 f i x_Framework.obj
 0001:000058c0       ?Run@Framework@@QAEXXZ     00405c80 f   x_Framework.obj
 0001:000059f0       ??0Framework@@QAE@PAUFrameworkSetup@@@Z 00405db0 f   x_Framework.obj
 0001:00005ce0       ??1Framework@@QAE@XZ       004060a0 f   x_Framework.obj
 0001:00005e20       ?_Incsize@?$list@PAVState@@V?$allocator@PAVState@@@std@@@std@@IAEXI@Z 004061e0 f i x_Framework.obj
 0001:00005ec0       ?AddState@Framework@@QAEXPAVState@@@Z 00406280 f   x_Framework.obj
 0001:00005f00       ?LoadResources@Game@@AAEXXZ 004062c0 f   x_Game.obj
 0001:00006680       ?FreeResources@Game@@AAEXXZ 00406a40 f   x_Game.obj
 0001:00006830       ?DrawHUD@Game@@AAEXXZ      00406bf0 f   x_Game.obj
 0001:00006d80       ?GameOver@Game@@AAEXXZ     00407140 f   x_Game.obj
 0001:00006df0       ?_Buynode@?$list@PAVSprite@@V?$allocator@PAVSprite@@@std@@@std@@IAEPAU_Node@?$_List_nod@PAVSprite@@V?$allocator@PAVSprite@@@std@@@2@XZ 004071b0 f i x_Game.obj
 0001:00006df0       ?_Buynode@?$list@PAVState@@V?$allocator@PAVState@@@std@@@std@@IAEPAU_Node@?$_List_nod@PAVState@@V?$allocator@PAVState@@@std@@@2@XZ 004071b0 f i x_Framework.obj
 0001:00006e10       ?_Buynode@?$list@UTextMessage@@V?$allocator@UTextMessage@@@std@@@std@@IAEPAU_Node@?$_List_nod@UTextMessage@@V?$allocator@UTextMessage@@@std@@@2@XZ 004071d0 f i x_Game.obj
 0001:00006e30       ?_Buynode@?$list@UTextMessage@@V?$allocator@UTextMessage@@@std@@@std@@IAEPAU_Node@?$_List_nod@UTextMessage@@V?$allocator@UTextMessage@@@std@@@2@PAU342@0ABUTextMessage@@@Z 004071f0 f i x_Game.obj
 0001:00006e70       ?Quit@Game@@UAEXXZ         00407230 f   x_Game.obj
 0001:00006f20       ?DrawMessages@Game@@AAEXXZ 004072e0 f   x_Game.obj
 0001:00006fa0       ??1?$list@USprDraw@@V?$allocator@USprDraw@@@std@@@std@@QAE@XZ 00407360 f i Raycaster.obj
 0001:00006fa0       ??1?$list@PAVState@@V?$allocator@PAVState@@@std@@@std@@QAE@XZ 00407360 f i x_Framework.obj
 0001:00006fa0       ??1?$list@PAVSprite@@V?$allocator@PAVSprite@@@std@@@std@@QAE@XZ 00407360 f i x_Game.obj
 0001:00006fa0       ??1?$list@VDoor@@V?$allocator@VDoor@@@std@@@std@@QAE@XZ 00407360 f i Raycaster.obj
 0001:00006fc0       ?remove@?$list@PAVSprite@@V?$allocator@PAVSprite@@@std@@@std@@QAEXABQAVSprite@@@Z 00407380 f i x_Game.obj
 0001:00007010       ?Draw@Game@@UAEXXZ         004073d0 f   x_Game.obj
 0001:000070a0       ?UpdateMessages@Game@@AAEXXZ 00407460 f   x_Game.obj
 0001:00007100       ??0Game@@QAE@PBD_N1@Z      004074c0 f   x_Game.obj
 0001:00007230       ??_EGame@@UAEPAXI@Z        004075f0 f i x_Game.obj
 0001:00007230       ??_GGame@@UAEPAXI@Z        004075f0 f i x_Game.obj
 0001:00007250       ??1Game@@UAE@XZ            00407610 f i x_Game.obj
 0001:000072b0       ?_Incsize@?$list@UTextMessage@@V?$allocator@UTextMessage@@@std@@@std@@IAEXI@Z 00407670 f i x_Game.obj
 0001:00007350       ?LoadSpriteMap@Game@@AAEXPBD@Z 00407710 f   x_Game.obj
 0001:00007670       ?NextMap@Game@@AAEXXZ      00407a30 f   x_Game.obj
 0001:00007be0       ?AddMessage@Game@@AAEXPBD@Z 00407fa0 f   x_Game.obj
 0001:00007c70       ?Init@Game@@UAEXXZ         00408030 f   x_Game.obj
 0001:00007e80       ?Update@Game@@UAEXXZ       00408240 f   x_Game.obj
 0001:00008330       ?reverse@?$list@USprDraw@@V?$allocator@USprDraw@@@std@@@std@@QAEXXZ 004086f0 f i x_Game.obj
 0001:00008380       ?Shoot@Game@@AAEXXZ        00408740 f   x_Game.obj
 0001:000089a0       ?Input@Game@@UAEXXZ        00408d60 f   x_Game.obj
 0001:00009690       _SDL_StartTicks            00409a50 f   libsdlx:SDL_systimer.obj
 0001:000096b0       _SDL_GetTicks              00409a70 f   libsdlx:SDL_systimer.obj
 0001:00009730       _SDL_Delay                 00409af0 f   libsdlx:SDL_systimer.obj
 0001:00009750       _SDL_SYS_TimerInit         00409b10 f   libsdlx:SDL_systimer.obj
 0001:00009790       _SDL_SYS_TimerQuit         00409b50 f   libsdlx:SDL_systimer.obj
 0001:000097a0       _SDL_SYS_StartTimer        00409b60 f   libsdlx:SDL_systimer.obj
 0001:000097c0       _SDL_SetColorKey           00409b80 f   libsdlx:SDL_surface.obj
 0001:000098b0       _SDL_SetAlpha              00409c70 f   libsdlx:SDL_surface.obj
 0001:00009a50       _SDL_SetClipRect           00409e10 f   libsdlx:SDL_surface.obj
 0001:00009ab0       _SDL_LowerBlit             00409e70 f   libsdlx:SDL_surface.obj
 0001:00009bb0       _SDL_UpperBlit             00409f70 f   libsdlx:SDL_surface.obj
 0001:00009d50       _SDL_LockSurface           0040a110 f   libsdlx:SDL_surface.obj
 0001:00009db0       _SDL_UnlockSurface         0040a170 f   libsdlx:SDL_surface.obj
 0001:00009e00       _SDL_FreeSurface           0040a1c0 f   libsdlx:SDL_surface.obj
 0001:00009ec0       _SDL_CreateRGBSurface      0040a280 f   libsdlx:SDL_surface.obj
 0001:0000a0b0       _SDL_FillRect              0040a470 f   libsdlx:SDL_surface.obj
 0001:0000a4a0       _SDL_ConvertSurface        0040a860 f   libsdlx:SDL_surface.obj
 0001:0000a7a0       _Mix_LoadWAV_RW            0040ab60 f   libsdlx:mixer.obj
 0001:0000aa30       _Mix_FreeChunk             0040adf0 f   libsdlx:mixer.obj
 0001:0000aa90       _Mix_Volume                0040ae50 f   libsdlx:mixer.obj
 0001:0000ab00       _Mix_Playing               0040aec0 f   libsdlx:mixer.obj
 0001:0000abc0       _Mix_UnregisterAllEffects  0040af80 f   libsdlx:mixer.obj
 0001:0000af70       _Mix_OpenAudio             0040b330 f   libsdlx:mixer.obj
 0001:0000b070       _Mix_PlayChannelTimed      0040b430 f   libsdlx:mixer.obj
 0001:0000b180       _Mix_HaltChannel           0040b540 f   libsdlx:mixer.obj
 0001:0000b230       _Mix_CloseAudio            0040b5f0 f   libsdlx:mixer.obj
 0001:0000b2d0       _SDL_GetVideoInfo          0040b690 f   libsdlx:SDL_video.obj
 0001:0000b2e0       _SDL_ListModes             0040b6a0 f   libsdlx:SDL_video.obj
 0001:0000b310       _SDL_VideoModeOK           0040b6d0 f   libsdlx:SDL_video.obj
 0001:0000b790       _SDL_DisplayFormat         0040bb50 f   libsdlx:SDL_video.obj
 0001:0000b7f0       _SDL_UpdateRects           0040bbb0 f   libsdlx:SDL_video.obj
 0001:0000b9f0       _SDL_WM_SetCaption         0040bdb0 f   libsdlx:SDL_video.obj
 0001:0000bb40       _SDL_WM_GrabInput          0040bf00 f   libsdlx:SDL_video.obj
 0001:0000bc00       _SDL_WM_ToggleFullScreen   0040bfc0 f   libsdlx:SDL_video.obj
 0001:0000bcc0       _SDL_UpdateRect            0040c080 f   libsdlx:SDL_video.obj
 0001:0000bd30       _SDL_Flip                  0040c0f0 f   libsdlx:SDL_video.obj
 0001:0000beb0       _SDL_VideoQuit             0040c270 f   libsdlx:SDL_video.obj
 0001:0000bfd0       _SDL_VideoInit             0040c390 f   libsdlx:SDL_video.obj
 0001:0000c2d0       _SDL_SetVideoMode          0040c690 f   libsdlx:SDL_video.obj
 0001:0000c6c0       _SDL_JoystickInit          0040ca80 f   libsdlx:SDL_joystick.obj
 0001:0000c730       _SDL_JoystickName          0040caf0 f   libsdlx:SDL_joystick.obj
 0001:0000c770       _SDL_JoystickNumAxes       0040cb30 f   libsdlx:SDL_joystick.obj
 0001:0000c7a0       _SDL_JoystickGetAxis       0040cb60 f   libsdlx:SDL_joystick.obj
 0001:0000c7f0       _SDL_JoystickGetHat        0040cbb0 f   libsdlx:SDL_joystick.obj
 0001:0000c840       _SDL_JoystickGetButton     0040cc00 f   libsdlx:SDL_joystick.obj
 0001:0000c890       _SDL_JoystickClose         0040cc50 f   libsdlx:SDL_joystick.obj
 0001:0000c980       _SDL_JoystickQuit          0040cd40 f   libsdlx:SDL_joystick.obj
 0001:0000c9c0       _SDL_PrivateJoystickAxis   0040cd80 f   libsdlx:SDL_joystick.obj
 0001:0000ca30       _SDL_PrivateJoystickHat    0040cdf0 f   libsdlx:SDL_joystick.obj
 0001:0000caa0       _SDL_PrivateJoystickButton 0040ce60 f   libsdlx:SDL_joystick.obj
 0001:0000cb30       _SDL_JoystickUpdate        0040cef0 f   libsdlx:SDL_joystick.obj
 0001:0000cb60       _SDL_JoystickOpen          0040cf20 f   libsdlx:SDL_joystick.obj
 0001:0000cd40       _SDL_Lock_EventThread      0040d100 f   libsdlx:SDL_events.obj
 0001:0000cd90       _SDL_Unlock_EventThread    0040d150 f   libsdlx:SDL_events.obj
 0001:0000cf00       _SDL_StopEventLoop         0040d2c0 f   libsdlx:SDL_events.obj
 0001:0000cf50       _SDL_StartEventLoop        0040d310 f   libsdlx:SDL_events.obj
 0001:0000d150       _SDL_PeepEvents            0040d510 f   libsdlx:SDL_events.obj
 0001:0000d270       _SDL_PumpEvents            0040d630 f   libsdlx:SDL_events.obj
 0001:0000d2b0       _SDL_PollEvent             0040d670 f   libsdlx:SDL_events.obj
 0001:0000d310       _SDL_PushEvent             0040d6d0 f   libsdlx:SDL_events.obj
 0001:0000d330       _SDL_FreeFormat            0040d6f0 f   libsdlx:SDL_pixels.obj
 0001:0000d370       _SDL_DitherColors          0040d730 f   libsdlx:SDL_pixels.obj
 0001:0000d3e0       _SDL_CalculatePitch        0040d7a0 f   libsdlx:SDL_pixels.obj
 0001:0000d430       _SDL_FindColor             0040d7f0 f   libsdlx:SDL_pixels.obj
 0001:0000d4c0       _SDL_MapRGB                0040d880 f   libsdlx:SDL_pixels.obj
 0001:0000d520       _SDL_GetRGB                0040d8e0 f   libsdlx:SDL_pixels.obj
 0001:0000d840       _SDL_InvalidateMap         0040dc00 f   libsdlx:SDL_pixels.obj
 0001:0000d870       _SDL_MapSurface            0040dc30 f   libsdlx:SDL_pixels.obj
 0001:0000d9b0       _SDL_FreeBlitMap           0040dd70 f   libsdlx:SDL_pixels.obj
 0001:0000da00       _SDL_AllocFormat           0040ddc0 f   libsdlx:SDL_pixels.obj
 0001:0000dda0       _SDL_AllocBlitMap          0040e160 f   libsdlx:SDL_pixels.obj
 0001:0000de10       _SDL_ReallocFormat         0040e1d0 f   libsdlx:SDL_pixels.obj
 0001:0000dea0       _SDL_MouseInit             0040e260 f   libsdlx:SDL_mouse.obj
 0001:0000dec0       _SDL_GetMouseState         0040e280 f   libsdlx:SDL_mouse.obj
 0001:0000def0       _SDL_GetRelativeMouseState 0040e2b0 f   libsdlx:SDL_mouse.obj
 0001:0000df80       _SDL_PrivateMouseMotion    0040e340 f   libsdlx:SDL_mouse.obj
 0001:0000e100       _SDL_PrivateMouseButton    0040e4c0 f   libsdlx:SDL_mouse.obj
 0001:0000e280       _SDL_ResetMouse            0040e640 f   libsdlx:SDL_mouse.obj
 0001:0000e2d0       _MIX_string_equals         0040e690 f   libsdlx:music.obj
 0001:0000e330       _Mix_LoadMUS               0040e6f0 f   libsdlx:music.obj
 0001:0000e790       _Mix_VolumeMusic           0040eb50 f   libsdlx:music.obj
 0001:0000e870       _Mix_HaltMusic             0040ec30 f   libsdlx:music.obj
 0001:0000e930       _close_music               0040ecf0 f   libsdlx:music.obj
 0001:0000e960       _open_music                0040ed20 f   libsdlx:music.obj
 0001:0000eb50       _Mix_FreeMusic             0040ef10 f   libsdlx:music.obj
 0001:0000ed70       _Mix_FadeInMusicPos        0040f130 f   libsdlx:music.obj
 0001:0000ee20       _Mix_PlayMusic             0040f1e0 f   libsdlx:music.obj
 0001:0000ee50       _music_mixer               0040f210 f   libsdlx:music.obj
 0001:0000f140       _SDL_RWFromFP              0040f500 f   libsdlx:SDL_rwops.obj
 0001:0000f1b0       _SDL_RWFromFile            0040f570 f   libsdlx:SDL_rwops.obj
 0001:0000f200       _SDL_XBOX_GetScreenPosition 0040f5c0 f   libsdlx:SDL_xboxvideo.obj
 0001:0000f230       _SDL_XBOX_GetScreenStretch 0040f5f0 f   libsdlx:SDL_xboxvideo.obj
 0001:0000fde0       _SDL_XBOX_SetScreenPosition 004101a0 f   libsdlx:SDL_xboxvideo.obj
 0001:0000fe20       _SDL_XBOX_SetScreenStretch 004101e0 f   libsdlx:SDL_xboxvideo.obj
 0001:00010070       _SDL_GetKeyState           00410430 f   libsdlx:SDL_keyboard.obj
 0001:00010090       _SDL_PrivateKeyboard       00410450 f   libsdlx:SDL_keyboard.obj
 0001:00010340       _SDL_CheckKeyRepeat        00410700 f   libsdlx:SDL_keyboard.obj
 0001:000103b0       _SDL_KeyboardInit          00410770 f   libsdlx:SDL_keyboard.obj
 0001:00010d10       _SDL_ResetKeyboard         004110d0 f   libsdlx:SDL_keyboard.obj
 0001:00010d60       _SDL_MouseRect             00411120 f   libsdlx:SDL_cursor.obj
 0001:00011670       _SDL_DrawCursorNoLock      00411a30 f   libsdlx:SDL_cursor.obj
 0001:000117b0       _SDL_DrawCursor            00411b70 f   libsdlx:SDL_cursor.obj
 0001:00011840       _SDL_EraseCursorNoLock     00411c00 f   libsdlx:SDL_cursor.obj
 0001:00011940       _SDL_EraseCursor           00411d00 f   libsdlx:SDL_cursor.obj
 0001:000119d0       _SDL_ResetCursor           00411d90 f   libsdlx:SDL_cursor.obj
 0001:00011a20       _SDL_SetCursor             00411de0 f   libsdlx:SDL_cursor.obj
 0001:00011b90       _SDL_FreeCursor            00411f50 f   libsdlx:SDL_cursor.obj
 0001:00011c10       _SDL_ShowCursor            00411fd0 f   libsdlx:SDL_cursor.obj
 0001:00011cb0       _SDL_MoveCursor            00412070 f   libsdlx:SDL_cursor.obj
 0001:00011d50       _SDL_CursorQuit            00412110 f   libsdlx:SDL_cursor.obj
 0001:00011dc0       _SDL_CreateCursor          00412180 f   libsdlx:SDL_cursor.obj
 0001:00011f70       _SDL_CursorInit            00412330 f   libsdlx:SDL_cursor.obj
 0001:00011fc0       _SDL_InitSubSystem         00412380 f   libsdlx:SDL.obj
 0001:000120a0       _SDL_Init                  00412460 f   libsdlx:SDL.obj
 0001:000120d0       _SDL_QuitSubSystem         00412490 f   libsdlx:SDL.obj
 0001:00012160       _SDL_LoadBMP_RW            00412520 f   libsdlx:SDL_bmp.obj
 0001:00012640       _SDL_SaveBMP_RW            00412a00 f   libsdlx:SDL_bmp.obj
 0001:000129f0       _SDL_SetTimerThreaded      00412db0 f   libsdlx:SDL_timer.obj
 0001:00012a20       _SDL_ThreadedTimerCheck    00412de0 f   libsdlx:SDL_timer.obj
 0001:00012b20       _SDL_AddTimer              00412ee0 f   libsdlx:SDL_timer.obj
 0001:00012c00       _SDL_SetTimer              00412fc0 f   libsdlx:SDL_timer.obj
 0001:00012cb0       _SDL_TimerInit             00413070 f   libsdlx:SDL_timer.obj
 0001:00012d00       _SDL_TimerQuit             004130c0 f   libsdlx:SDL_timer.obj
 0001:00012ec0       _SDL_GetErrorMsgUNICODE    00413280 f   libsdlx:SDL_error.obj
 0001:00013110       _SDL_GetError              004134d0 f   libsdlx:SDL_error.obj
 0001:00013180       _SDL_ClearError            00413540 f   libsdlx:SDL_error.obj
 0001:00013190       _SDL_SetError              00413550 f   libsdlx:SDL_error.obj
 0001:00013340       _SDL_Error                 00413700 f   libsdlx:SDL_error.obj
 0001:00014600       _SDL_RLEBlit               004149c0 f   libsdlx:SDL_RLEaccel.obj
 0001:00015af0       _SDL_RLEAlphaBlit          00415eb0 f   libsdlx:SDL_RLEaccel.obj
 0001:00016f40       _SDL_UnRLESurface          00417300 f   libsdlx:SDL_RLEaccel.obj
 0001:00017020       _SDL_RLESurface            004173e0 f   libsdlx:SDL_RLEaccel.obj
 0001:000170c0       _SDL_ConvertMono           00417480 f   libsdlx:SDL_audiocvt.obj
 0001:00017320       _SDL_ConvertStereo         004176e0 f   libsdlx:SDL_audiocvt.obj
 0001:000173b0       _SDL_Convert16LSB          00417770 f   libsdlx:SDL_audiocvt.obj
 0001:00017410       _SDL_Convert16MSB          004177d0 f   libsdlx:SDL_audiocvt.obj
 0001:00017470       _SDL_Convert8              00417830 f   libsdlx:SDL_audiocvt.obj
 0001:000174d0       _SDL_ConvertSign           00417890 f   libsdlx:SDL_audiocvt.obj
 0001:00017530       _SDL_ConvertEndian         004178f0 f   libsdlx:SDL_audiocvt.obj
 0001:00017580       _SDL_RateMUL2              00417940 f   libsdlx:SDL_audiocvt.obj
 0001:00017610       _SDL_RateDIV2              004179d0 f   libsdlx:SDL_audiocvt.obj
 0001:000176a0       _SDL_ConvertAudio          00417a60 f   libsdlx:SDL_audiocvt.obj
 0001:000176e0       _SDL_BuildAudioCVT         00417aa0 f   libsdlx:SDL_audiocvt.obj
 0001:000183e0       _SDL_FreeWAV               004187a0 f   libsdlx:SDL_wave.obj
 0001:000183e0       __mm_delete_file_reader    004187a0 f   libsdlx:mmio.obj
 0001:00018460       _SDL_LoadWAV_RW            00418820 f   libsdlx:SDL_wave.obj
 0001:00018770       _Mix_LoadOGG_RW            00418b30 f   libsdlx:load_ogg.obj
 0001:00018eb0       _Mix_LoadVOC_RW            00419270 f   libsdlx:load_voc.obj
 0001:000190f0       _Mix_LoadAIFF_RW           004194b0 f   libsdlx:load_aiff.obj
 0001:00019490       _SDL_ReadLE16              00419850 f   libsdlx:SDL_endian.obj
 0001:000194b0       _SDL_ReadBE16              00419870 f   libsdlx:SDL_endian.obj
 0001:000194e0       _SDL_ReadLE32              004198a0 f   libsdlx:SDL_endian.obj
 0001:00019500       _SDL_ReadBE32              004198c0 f   libsdlx:SDL_endian.obj
 0001:00019540       _SDL_WriteLE16             00419900 f   libsdlx:SDL_endian.obj
 0001:00019560       _SDL_WriteLE32             00419920 f   libsdlx:SDL_endian.obj
 0001:00019580       _SDL_RunAudio              00419940 f   libsdlx:SDL_audio.obj
 0001:00019770       _SDL_PauseAudio            00419b30 f   libsdlx:SDL_audio.obj
 0001:00019790       _SDL_LockAudio             00419b50 f   libsdlx:SDL_audio.obj
 0001:000197b0       _SDL_UnlockAudio           00419b70 f   libsdlx:SDL_audio.obj
 0001:000197d0       _SDL_CloseAudio            00419b90 f   libsdlx:SDL_audio.obj
 0001:000197e0       _SDL_AudioQuit             00419ba0 f   libsdlx:SDL_audio.obj
 0001:00019880       _SDL_CalculateAudioSpec    00419c40 f   libsdlx:SDL_audio.obj
 0001:000198c0       _SDL_AudioInit             00419c80 f   libsdlx:SDL_audio.obj
 0001:000199f0       _SDL_OpenAudio             00419db0 f   libsdlx:SDL_audio.obj
 0001:00019c60       _SDL_MixAudio              0041a020 f   libsdlx:SDL_mixer.obj
 0001:00019e50       __Mix_InitEffects          0041a210 f   libsdlx:effects_internal.obj
 0001:00019e60       _SDL_CreateMutex           0041a220 f   libsdlx:SDL_sysmutex.obj
 0001:00019eb0       _SDL_DestroySemaphore      0041a270 f   libsdlx:SDL_syssem.obj
 0001:00019eb0       _SDL_DestroyMutex          0041a270 f   libsdlx:SDL_sysmutex.obj
 0001:00019ee0       _SDL_mutexP                0041a2a0 f   libsdlx:SDL_sysmutex.obj
 0001:00019f20       _SDL_mutexV                0041a2e0 f   libsdlx:SDL_sysmutex.obj
 0001:00019f60       _SDL_PrivateResize         0041a320 f   libsdlx:SDL_resize.obj
 0001:0001a030       _SDL_SYS_JoystickInit      0041a3f0 f   libsdlx:SDL_sysjoystick.obj
 0001:0001a040       _SDL_SYS_JoystickName      0041a400 f   libsdlx:SDL_sysjoystick.obj
 0001:0001a050       _SDL_SYS_JoystickOpen      0041a410 f   libsdlx:SDL_sysjoystick.obj
 0001:0001a230       _SDL_SYS_JoystickClose     0041a5f0 f   libsdlx:SDL_sysjoystick.obj
 0001:0001a250       _XBInput_RefreshDeviceList 0041a610 f   libsdlx:SDL_sysjoystick.obj
 0001:0001a3b0       _SDL_SYS_JoystickUpdate    0041a770 f   libsdlx:SDL_sysjoystick.obj
 0001:0001a900       _SDL_SYS_CreateThread      0041acc0 f   libsdlx:SDL_systhread.obj
 0001:0001a940       _SDL_ThreadID              0041ad00 f   libsdlx:SDL_systhread.obj
 0001:0001a950       _SDL_SYS_WaitThread        0041ad10 f   libsdlx:SDL_systhread.obj
 0001:0001aaf0       _SDL_GetErrBuf             0041aeb0 f   libsdlx:SDL_thread.obj
 0001:0001ab60       _SDL_RunThread             0041af20 f   libsdlx:SDL_thread.obj
 0001:0001aba0       _SDL_CreateThread          0041af60 f   libsdlx:SDL_thread.obj
 0001:0001ac80       _SDL_WaitThread            0041b040 f   libsdlx:SDL_thread.obj
 0001:0001acc0       _SDL_AppActiveInit         0041b080 f   libsdlx:SDL_active.obj
 0001:0001af90       _SDL_CalculateBlit         0041b350 f   libsdlx:SDL_blit.obj
 0001:0001b190       _WAVStream_Init            0041b550 f   libsdlx:wavestream.obj
 0001:0001b1d0       _WAVStream_SetVolume       0041b590 f   libsdlx:wavestream.obj
 0001:0001b1e0       _WAVStream_Start           0041b5a0 f   libsdlx:wavestream.obj
 0001:0001b210       _WAVStream_PlaySome        0041b5d0 f   libsdlx:wavestream.obj
 0001:0001b320       _WAVStream_Stop            0041b6e0 f   libsdlx:wavestream.obj
 0001:0001b330       _WAVStream_FreeSong        0041b6f0 f   libsdlx:wavestream.obj
 0001:0001b370       _WAVStream_Active          0041b730 f   libsdlx:wavestream.obj
 0001:0001b890       _WAVStream_LoadSong        0041bc50 f   libsdlx:wavestream.obj
 0001:0001b9a0       _MikMod_strerror           0041bd60 f   libsdlx:mmerror.obj
 0001:0001b9c0       __mm_registerloader        0041bd80 f   libsdlx:mloader.obj
 0001:0001b9f0       __mm_unregisterloaders     0041bdb0 f   libsdlx:mloader.obj
 0001:0001ba20       _ReadComment               0041bde0 f   libsdlx:mloader.obj
 0001:0001baa0       _AllocPositions            0041be60 f   libsdlx:mloader.obj
 0001:0001bad0       _AllocPatterns             0041be90 f   libsdlx:mloader.obj
 0001:0001bba0       _AllocTracks               0041bf60 f   libsdlx:mloader.obj
 0001:0001bbe0       _AllocInstruments          0041bfa0 f   libsdlx:mloader.obj
 0001:0001bc80       _AllocSamples              0041c040 f   libsdlx:mloader.obj
 0001:0001bd00       _DupStr                    0041c0c0 f   libsdlx:mloader.obj
 0001:0001bf00       _Player_Free               0041c2c0 f   libsdlx:mloader.obj
 0001:0001bf40       _Player_LoadGeneric_internal 0041c300 f   libsdlx:mloader.obj
 0001:0001c1c0       _Player_LoadGeneric        0041c580 f   libsdlx:mloader.obj
 0001:0001c220       _Player_Load               0041c5e0 f   libsdlx:mloader.obj
 0001:0001c280       _OGG_init                  0041c640 f   libsdlx:music_ogg.obj
 0001:0001c2c0       _OGG_setvolume             0041c680 f   libsdlx:music_ogg.obj
 0001:0001c2d0       _OGG_play                  0041c690 f   libsdlx:music_ogg.obj
 0001:0001c2e0       _OGG_playing               0041c6a0 f   libsdlx:music_ogg.obj
 0001:0001c440       _OGG_playAudio             0041c800 f   libsdlx:music_ogg.obj
 0001:0001c500       _OGG_stop                  0041c8c0 f   libsdlx:music_ogg.obj
 0001:0001c510       _OGG_delete                0041c8d0 f   libsdlx:music_ogg.obj
 0001:0001c540       _OGG_jump_to_time          0041c900 f   libsdlx:music_ogg.obj
 0001:0001c560       _OGG_new                   0041c920 f   libsdlx:music_ogg.obj
 0001:0001cf50       _Timidity_Init             0041d310 f   libsdlx:timidity.obj
 0001:0001d100       _Timidity_Error            0041d4c0 f   libsdlx:timidity.obj
 0001:0001e300       _Timidity_PlaySome         0041e6c0 f   libsdlx:playmidi.obj
 0001:0001e7e0       _Timidity_SetVolume        0041eba0 f   libsdlx:playmidi.obj
 0001:0001e870       _Timidity_LoadSong         0041ec30 f   libsdlx:playmidi.obj
 0001:0001e8d0       _Timidity_Start            0041ec90 f   libsdlx:playmidi.obj
 0001:0001e960       _Timidity_Active           0041ed20 f   libsdlx:playmidi.obj
 0001:0001e970       _Timidity_Stop             0041ed30 f   libsdlx:playmidi.obj
 0001:0001e980       _Timidity_FreeSong         0041ed40 f   libsdlx:playmidi.obj
 0001:0001ea90       _getlinearperiod           0041ee50 f   libsdlx:mplayer.obj
 0001:0001ee10       _getfrequency              0041f1d0 f   libsdlx:mplayer.obj
 0001:000204f0       _pt_UpdateVoices           004208b0 f   libsdlx:mplayer.obj
 0001:00020b30       _pt_Notes                  00420ef0 f   libsdlx:mplayer.obj
 0001:00020fb0       _pt_NNA                    00421370 f   libsdlx:mplayer.obj
 0001:00021140       _pt_SetupVoices            00421500 f   libsdlx:mplayer.obj
 0001:000212b0       _pt_EffectsPass2           00421670 f   libsdlx:mplayer.obj
 0001:00021460       _Player_Init               00421820 f   libsdlx:mplayer.obj
 0001:000214f0       _Player_SetVolume          004218b0 f   libsdlx:mplayer.obj
 0001:00021560       _Player_Start              00421920 f   libsdlx:mplayer.obj
 0001:000215f0       _Player_Stop               004219b0 f   libsdlx:mplayer.obj
 0001:00021640       _Player_Active             00421a00 f   libsdlx:mplayer.obj
 0001:00021690       _Player_SetPosition        00421a50 f   libsdlx:mplayer.obj
 0001:000226d0       _pt_EffectsPass1           00422a90 f   libsdlx:mplayer.obj
 0001:00022830       _Player_HandleTick         00422bf0 f   libsdlx:mplayer.obj
 0001:00022ba0       _Player_Exit_internal      00422f60 f   libsdlx:mplayer.obj
 0001:00022c20       _MikMod_RegisterAllDrivers 00422fe0 f   libsdlx:mdreg.obj
 0001:00022c60       _MikMod_UnregisterAllDrivers 00423020 f   libsdlx:mdreg.obj
 0001:00022c90       _MikMod_RegisterAllLoaders 00423050 f   libsdlx:mlreg.obj
 0001:00022ce0       _MikMod_UnregisterAllLoaders 004230a0 f   libsdlx:mlreg.obj
 0001:00022ef0       _MD_SampleSpace            004232b0 f   libsdlx:mdriver.obj
 0001:00022f20       _MD_SampleLength           004232e0 f   libsdlx:mdriver.obj
 0001:00022f50       __mm_registerdriver        00423310 f   libsdlx:mdriver.obj
 0001:00022f80       __mm_unregisterdrivers     00423340 f   libsdlx:mdriver.obj
 0001:00022fb0       _MD_SampleLoad             00423370 f   libsdlx:mdriver.obj
 0001:00023000       _MD_SampleUnload           004233c0 f   libsdlx:mdriver.obj
 0001:00023010       _Voice_SetVolume_internal  004233d0 f   libsdlx:mdriver.obj
 0001:000230a0       _Voice_SetFrequency_internal 00423460 f   libsdlx:mdriver.obj
 0001:000230f0       _Voice_SetPanning_internal 004234b0 f   libsdlx:mdriver.obj
 0001:00023170       _Voice_Play_internal       00423530 f   libsdlx:mdriver.obj
 0001:000231d0       _Voice_Stop_internal       00423590 f   libsdlx:mdriver.obj
 0001:00023210       _Voice_Stopped_internal    004235d0 f   libsdlx:mdriver.obj
 0001:00023240       _MikMod_EnableOutput       00423600 f   libsdlx:mdriver.obj
 0001:000232a0       _MikMod_DisableOutput_internal 00423660 f   libsdlx:mdriver.obj
 0001:000232c0       _MikMod_Active             00423680 f   libsdlx:mdriver.obj
 0001:000232f0       _MikMod_Exit_internal      004236b0 f   libsdlx:mdriver.obj
 0001:00023370       _MikMod_Exit               00423730 f   libsdlx:mdriver.obj
 0001:000233c0       _MikMod_SetNumVoices_internal 00423780 f   libsdlx:mdriver.obj
 0001:000236e0       _MikMod_Init               00423aa0 f   libsdlx:mdriver.obj
 0001:00023730       _VC_Init                   00423af0 f   libsdlx:virtch_common.obj
 0001:00023740       _VC_Exit                   00423b00 f   libsdlx:virtch_common.obj
 0001:00023750       _VC_SetNumVoices           00423b10 f   libsdlx:virtch_common.obj
 0001:00023760       _VC_SampleSpace            00423b20 f   libsdlx:virtch_common.obj
 0001:00023770       _VC_SampleLength           00423b30 f   libsdlx:virtch_common.obj
 0001:00023780       _VC_PlayStart              00423b40 f   libsdlx:virtch_common.obj
 0001:00023790       _VC_PlayStop               00423b50 f   libsdlx:virtch_common.obj
 0001:000237a0       _VC_SampleLoad             00423b60 f   libsdlx:virtch_common.obj
 0001:000237b0       _VC_SampleUnload           00423b70 f   libsdlx:virtch_common.obj
 0001:000237c0       _VC_WriteBytes             00423b80 f   libsdlx:virtch_common.obj
 0001:000237d0       _VC_VoiceSetVolume         00423b90 f   libsdlx:virtch_common.obj
 0001:000237e0       _VC_VoiceGetVolume         00423ba0 f   libsdlx:virtch_common.obj
 0001:000237f0       _VC_VoiceSetFrequency      00423bb0 f   libsdlx:virtch_common.obj
 0001:00023800       _VC_VoiceGetFrequency      00423bc0 f   libsdlx:virtch_common.obj
 0001:00023810       _VC_VoiceSetPanning        00423bd0 f   libsdlx:virtch_common.obj
 0001:00023820       _VC_VoiceGetPanning        00423be0 f   libsdlx:virtch_common.obj
 0001:00023830       _VC_VoicePlay              00423bf0 f   libsdlx:virtch_common.obj
 0001:00023840       _VC_VoiceStop              00423c00 f   libsdlx:virtch_common.obj
 0001:00023850       _VC_VoiceStopped           00423c10 f   libsdlx:virtch_common.obj
 0001:00023860       _VC_VoiceGetPosition       00423c20 f   libsdlx:virtch_common.obj
 0001:00023870       _VC_VoiceRealVolume        00423c30 f   libsdlx:virtch_common.obj
 0001:00023880       _VC_SetupPointers          00423c40 f   libsdlx:virtch_common.obj
 0001:00023a50       _XBOX_InitOSKeymap         00423e10 f   libsdlx:SDL_xboxevents.obj
 0001:00023f90       _XBInput_GetKeyboardInput  00424350 f   libsdlx:SDL_xboxevents.obj
 0001:00024050       _Mouse_RefreshDeviceList   00424410 f   libsdlx:SDL_xboxevents.obj
 0001:000242c0       _XBOX_PumpEvents           00424680 f   libsdlx:SDL_xboxevents.obj
 0001:000242d0       _SDL_CDROMInit             00424690 f   libsdlx:SDL_cdrom.obj
 0001:00024300       _SDL_CDROMQuit             004246c0 f   libsdlx:SDL_cdrom.obj
 0001:00024310       _SDL_InstallParachute      004246d0 f   libsdlx:SDL_fatal.obj
 0001:00024310       _jpeg_mem_term             004246d0 f   sdl_image:jmemansi.obj
 0001:00024310       _SDL_UnlockYUV_SW          004246d0 f   libsdlx:SDL_yuv_sw.obj
 0001:00024310       _SDL_SYS_JoystickQuit      004246d0 f   libsdlx:SDL_sysjoystick.obj
 0001:00024310       _init_tables               004246d0 f   libsdlx:tables.obj
 0001:00024310       _SDL_SYS_StopTimer         004246d0 f   libsdlx:SDL_systimer.obj
 0001:00024310       _SDL_SYS_SetupThread       004246d0 f   libsdlx:SDL_systhread.obj
 0001:00024310       ?Update@Sprite@@UAEXXZ     004246d0 f   Furby.obj
 0001:00024db0       _ov_clear                  00425170 f   libsdlx:vorbisfile.obj
 0001:00024eb0       _ov_pcm_total              00425270 f   libsdlx:vorbisfile.obj
 0001:00024f10       _ov_time_total             004252d0 f   libsdlx:vorbisfile.obj
 0001:00024fa0       _ov_raw_seek               00425360 f   libsdlx:vorbisfile.obj
 0001:00025280       _ov_pcm_seek_page          00425640 f   libsdlx:vorbisfile.obj
 0001:000256f0       _ov_pcm_seek               00425ab0 f   libsdlx:vorbisfile.obj
 0001:000259a0       _ov_time_seek              00425d60 f   libsdlx:vorbisfile.obj
 0001:00025ab0       _ov_info                   00425e70 f   libsdlx:vorbisfile.obj
 0001:00025af0       _ov_read                   00425eb0 f   libsdlx:vorbisfile.obj
 0001:00026050       _ov_open_callbacks         00426410 f   libsdlx:vorbisfile.obj
 0001:000260a0       _ov_open                   00426460 f   libsdlx:vorbisfile.obj
 0001:00026830       _SDL_AllocAudioMem         00426bf0 f   libsdlx:SDL_audiomem.obj
 0001:00026840       _SDL_FreeAudioMem          00426c00 f   libsdlx:SDL_audiomem.obj
 0001:00026850       _SDL_CreateSemaphore       00426c10 f   libsdlx:SDL_syssem.obj
 0001:000268b0       _SDL_SemWait               00426c70 f   libsdlx:SDL_syssem.obj
 0001:00026910       _SDL_SemValue              00426cd0 f   libsdlx:SDL_syssem.obj
 0001:00026930       _SDL_SemPost               00426cf0 f   libsdlx:SDL_syssem.obj
 0001:00028740       _SDL_CalculateBlit1        00428b00 f   libsdlx:SDL_blit_1.obj
 0001:0002cd80       _SDL_CalculateBlitN        0042d140 f   libsdlx:SDL_blit_N.obj
 0001:0002da70       _SDL_CalculateBlit0        0042de30 f   libsdlx:SDL_blit_0.obj
 0001:0002daf0       __mm_malloc                0042deb0 f   libsdlx:mmalloc.obj
 0001:0002db20       __mm_calloc                0042dee0 f   libsdlx:mmalloc.obj
 0001:0002db60       _SL_Init                   0042df20 f   libsdlx:sloader.obj
 0001:0002dbb0       _SL_Exit                   0042df70 f   libsdlx:sloader.obj
 0001:0002e2b0       _SL_Load                   0042e670 f   libsdlx:sloader.obj
 0001:0002e2e0       _SL_RegisterSample         0042e6a0 f   libsdlx:sloader.obj
 0001:0002e3c0       _SL_Sample8to16            0042e780 f   libsdlx:sloader.obj
 0001:0002e3f0       _SL_SampleSigned           0042e7b0 f   libsdlx:sloader.obj
 0001:0002e5f0       _SL_LoadSamples            0042e9b0 f   libsdlx:sloader.obj
 0001:0002e650       __mm_fopen                 0042ea10 f   libsdlx:mmio.obj
 0001:0002e690       __mm_iobase_setcur         0042ea50 f   libsdlx:mmio.obj
 0001:0002e6b0       __mm_iobase_revert         0042ea70 f   libsdlx:mmio.obj
 0001:0002e750       __mm_new_file_reader       0042eb10 f   libsdlx:mmio.obj
 0001:0002e790       __mm_read_string           0042eb50 f   libsdlx:mmio.obj
 0001:0002e7b0       __mm_read_M_UWORD          0042eb70 f   libsdlx:mmio.obj
 0001:0002e7d0       __mm_read_I_UWORD          0042eb90 f   libsdlx:mmio.obj
 0001:0002e800       __mm_read_I_ULONG          0042ebc0 f   libsdlx:mmio.obj
 0001:0002e840       __mm_read_M_SWORDS         0042ec00 f   libsdlx:mmio.obj
 0001:0002e890       __mm_read_I_UWORDS         0042ec50 f   libsdlx:mmio.obj
 0001:0002e890       __mm_read_I_SWORDS         0042ec50 f   libsdlx:mmio.obj
 0001:0002e8e0       __mm_read_I_ULONGS         0042eca0 f   libsdlx:mmio.obj
 0001:0002e950       _UniSetRow                 0042ed10 f   libsdlx:munitrk.obj
 0001:0002e990       _UniGetByte                0042ed50 f   libsdlx:munitrk.obj
 0001:0002e9b0       _UniGetWord                0042ed70 f   libsdlx:munitrk.obj
 0001:0002e9f0       _UniSkipOpcode             0042edb0 f   libsdlx:munitrk.obj
 0001:0002ea30       _UniFindRow                0042edf0 f   libsdlx:munitrk.obj
 0001:0002ea70       _UniReset                  0042ee30 f   libsdlx:munitrk.obj
 0001:0002ea90       _UniWriteByte              0042ee50 f   libsdlx:munitrk.obj
 0001:0002eaf0       _UniWriteWord              0042eeb0 f   libsdlx:munitrk.obj
 0001:0002eb60       _UniNewline                0042ef20 f   libsdlx:munitrk.obj
 0001:0002ec70       _UniDup                    0042f030 f   libsdlx:munitrk.obj
 0001:0002ed00       _UniInit                   0042f0c0 f   libsdlx:munitrk.obj
 0001:0002ed30       _UniCleanup                0042f0f0 f   libsdlx:munitrk.obj
 0001:0002ed50       _open_file                 0042f110 f   libsdlx:common.obj
 0001:0002ef30       _close_file                0042f2f0 f   libsdlx:common.obj
 0001:0002ef40       _skip                      0042f300 f   libsdlx:common.obj
 0001:0002efe0       _safe_malloc               0042f3a0 f   libsdlx:common.obj
 0001:0002f040       _add_to_pathlist           0042f400 f   libsdlx:common.obj
 0001:0002fc40       _load_missing_instruments  00430000 f   libsdlx:instrum.obj
 0001:0002fc90       _free_instruments          00430050 f   libsdlx:instrum.obj
 0001:0002fda0       _set_default_instrument    00430160 f   libsdlx:instrum.obj
 0001:0002fdf0       _s32tos8                   004301b0 f   libsdlx:output.obj
 0001:0002fe30       _s32tou8                   004301f0 f   libsdlx:output.obj
 0001:0002fe70       _s32tos16                  00430230 f   libsdlx:output.obj
 0001:0002feb0       _s32tou16                  00430270 f   libsdlx:output.obj
 0001:0002ff00       _s32tos16x                 004302c0 f   libsdlx:output.obj
 0001:0002ff50       _s32tou16x                 00430310 f   libsdlx:output.obj
 0001:0002ffa0       _recompute_envelope        00430360 f   libsdlx:mix.obj
 0001:00030060       _apply_envelope_to_amp     00430420 f   libsdlx:mix.obj
 0001:00030a90       _mix_voice                 00430e50 f   libsdlx:mix.obj
 0001:00031950       _read_midi_file            00431d10 f   libsdlx:readmidi.obj
 0001:00031cb0       _XM_Test                   00432070 f   libsdlx:load_xm.obj
 0001:00031d20       _XM_Init                   004320e0 f   libsdlx:load_xm.obj
 0001:00031d40       _XM_Cleanup                00432100 f   libsdlx:load_xm.obj
 0001:00032e30       _XM_Load                   004331f0 f   libsdlx:load_xm.obj
 0001:00033450       _XM_LoadTitle              00433810 f   libsdlx:load_xm.obj
 0001:000334b0       _S3M_Test                  00433870 f   libsdlx:load_s3m.obj
 0001:000334f0       _S3M_Init                  004338b0 f   libsdlx:load_s3m.obj
 0001:00033550       _S3M_Cleanup               00433910 f   libsdlx:load_s3m.obj
 0001:00033830       _S3M_Load                  00433bf0 f   libsdlx:load_s3m.obj
 0001:000341c0       _S3M_LoadTitle             00434580 f   libsdlx:load_s3m.obj
 0001:00034bd0       _IT_Test                   00434f90 f   libsdlx:load_it.obj
 0001:00034c00       _IT_Init                   00434fc0 f   libsdlx:load_it.obj
 0001:00034c80       _IT_Cleanup                00435040 f   libsdlx:load_it.obj
 0001:00035490       _IT_Load                   00435850 f   libsdlx:load_it.obj
 0001:00036b10       _IT_LoadTitle              00436ed0 f   libsdlx:load_it.obj
 0001:00038100       _VC1_SilenceBytes          004384c0 f   libsdlx:virtch.obj
 0001:00038170       _VC1_Exit                  00438530 f   libsdlx:virtch.obj
 0001:000381d0       _VC1_VoiceGetVolume        00438590 f   libsdlx:virtch.obj
 0001:000381f0       _VC1_VoiceGetPanning       004385b0 f   libsdlx:virtch.obj
 0001:00038210       _VC1_VoiceSetFrequency     004385d0 f   libsdlx:virtch.obj
 0001:00038230       _VC1_VoiceGetFrequency     004385f0 f   libsdlx:virtch.obj
 0001:00038250       _VC1_VoicePlay             00438610 f   libsdlx:virtch.obj
 0001:000382a0       _VC1_VoiceStop             00438660 f   libsdlx:virtch.obj
 0001:000382c0       _VC1_VoiceStopped          00438680 f   libsdlx:virtch.obj
 0001:000382e0       _VC1_VoiceGetPosition      004386a0 f   libsdlx:virtch.obj
 0001:00038300       _VC1_VoiceSetVolume        004386c0 f   libsdlx:virtch.obj
 0001:00038340       _VC1_VoiceSetPanning       00438700 f   libsdlx:virtch.obj
 0001:00038380       _VC1_SampleUnload          00438740 f   libsdlx:virtch.obj
 0001:000383c0       _VC1_SampleLoad            00438780 f   libsdlx:virtch.obj
 0001:00038590       _VC1_SampleSpace           00438950 f   libsdlx:virtch.obj
 0001:000385a0       _VC2_SampleLength          00438960 f   libsdlx:virtch2.obj
 0001:000385a0       _VC1_SampleLength          00438960 f   libsdlx:virtch.obj
 0001:000385c0       _VC1_VoiceRealVolume       00438980 f   libsdlx:virtch.obj
 0001:00038650       _VC1_WriteSamples          00438a10 f   libsdlx:virtch.obj
 0001:00038920       _VC1_Init                  00438ce0 f   libsdlx:virtch.obj
 0001:000389b0       _VC1_PlayStart             00438d70 f   libsdlx:virtch.obj
 0001:00038cd0       _VC1_PlayStop              00439090 f   libsdlx:virtch.obj
 0001:00038e60       _VC1_SetNumVoices          00439220 f   libsdlx:virtch.obj
 0001:00038ee0       _VC1_WriteBytes            004392a0 f   libsdlx:virtch.obj
 0001:0003a740       _VC2_SilenceBytes          0043ab00 f   libsdlx:virtch2.obj
 0001:0003a7b0       _VC2_Exit                  0043ab70 f   libsdlx:virtch2.obj
 0001:0003a810       _VC2_VoiceGetVolume        0043abd0 f   libsdlx:virtch2.obj
 0001:0003a830       _VC2_VoiceGetPanning       0043abf0 f   libsdlx:virtch2.obj
 0001:0003a850       _VC2_VoiceSetFrequency     0043ac10 f   libsdlx:virtch2.obj
 0001:0003a870       _VC2_VoiceGetFrequency     0043ac30 f   libsdlx:virtch2.obj
 0001:0003a890       _VC2_VoicePlay             0043ac50 f   libsdlx:virtch2.obj
 0001:0003a8e0       _VC2_VoiceStop             0043aca0 f   libsdlx:virtch2.obj
 0001:0003a900       _VC2_VoiceStopped          0043acc0 f   libsdlx:virtch2.obj
 0001:0003a920       _VC2_VoiceGetPosition      0043ace0 f   libsdlx:virtch2.obj
 0001:0003a940       _VC2_VoiceSetVolume        0043ad00 f   libsdlx:virtch2.obj
 0001:0003a980       _VC2_VoiceSetPanning       0043ad40 f   libsdlx:virtch2.obj
 0001:0003a9b0       _VC2_SampleUnload          0043ad70 f   libsdlx:virtch2.obj
 0001:0003a9f0       _VC2_SampleLoad            0043adb0 f   libsdlx:virtch2.obj
 0001:0003abc0       _VC2_SampleSpace           0043af80 f   libsdlx:virtch2.obj
 0001:0003abd0       _VC2_VoiceRealVolume       0043af90 f   libsdlx:virtch2.obj
 0001:0003ac60       _VC2_WriteSamples          0043b020 f   libsdlx:virtch2.obj
 0001:0003af70       _VC2_Init                  0043b330 f   libsdlx:virtch2.obj
 0001:0003b040       _VC2_PlayStart             0043b400 f   libsdlx:virtch2.obj
 0001:0003b360       _VC2_PlayStop              0043b720 f   libsdlx:virtch2.obj
 0001:0003b4f0       _VC2_SetNumVoices          0043b8b0 f   libsdlx:virtch2.obj
 0001:0003b580       _VC2_WriteBytes            0043b940 f   libsdlx:virtch2.obj
 0001:0003b5d0       _SDL_SYS_CDQuit            0043b990 f   libsdlx:SDL_syscdrom.obj
 0001:0003b8b0       _cddapause                 0043bc70 f   libsdlx:SDL_syscdrom.obj
 0001:0003b920       _ReadSectorCDDA            0043bce0 f   libsdlx:SDL_syscdrom.obj
 0001:0003bae0       _cddaprocess               0043bea0 f   libsdlx:SDL_syscdrom.obj
 0001:0003bd60       _cdrom_cdda_play           0043c120 f   libsdlx:SDL_syscdrom.obj
 0001:0003be70       _SDL_SYS_CDInit            0043c230 f   libsdlx:SDL_syscdrom.obj
 0001:0003c090       _ogg_page_continued        0043c450 f   libsdlx:framing.obj
 0001:0003c0a0       _ogg_page_eos              0043c460 f   libsdlx:framing.obj
 0001:0003c0b0       _ogg_page_granulepos       0043c470 f   libsdlx:framing.obj
 0001:0003c0e0       _ogg_page_serialno         0043c4a0 f   libsdlx:framing.obj
 0001:0003c110       _ogg_stream_init           0043c4d0 f   libsdlx:framing.obj
 0001:0003c180       _ogg_stream_clear          0043c540 f   libsdlx:framing.obj
 0001:0003c210       _ogg_page_checksum_set     0043c5d0 f   libsdlx:framing.obj
 0001:0003c2c0       _ogg_sync_init             0043c680 f   libsdlx:framing.obj
 0001:0003c2f0       _ogg_sync_clear            0043c6b0 f   libsdlx:framing.obj
 0001:0003c330       _ogg_sync_buffer           0043c6f0 f   libsdlx:framing.obj
 0001:0003c3b0       _ogg_sync_wrote            0043c770 f   libsdlx:framing.obj
 0001:0003c3d0       _ogg_sync_pageseek         0043c790 f   libsdlx:framing.obj
 0001:0003c510       _ogg_stream_pagein         0043c8d0 f   libsdlx:framing.obj
 0001:0003c820       _ogg_sync_reset            0043cbe0 f   libsdlx:framing.obj
 0001:0003c840       _ogg_stream_reset          0043cc00 f   libsdlx:framing.obj
 0001:0003c880       _ogg_stream_reset_serialno 0043cc40 f   libsdlx:framing.obj
 0001:0003c9e0       _ogg_stream_packetout      0043cda0 f   libsdlx:framing.obj
 0001:0003ca00       _ogg_stream_packetpeek     0043cdc0 f   libsdlx:framing.obj
 0001:0003ca20       _vorbis_comment_init       0043cde0 f   libsdlx:info.obj
 0001:0003ca40       _vorbis_comment_clear      0043ce00 f   libsdlx:info.obj
 0001:0003cab0       _vorbis_info_blocksize     0043ce70 f   libsdlx:info.obj
 0001:0003cad0       _vorbis_info_init          0043ce90 f   libsdlx:info.obj
 0001:0003cb10       _vorbis_info_clear         0043ced0 f   libsdlx:info.obj
 0001:0003d0e0       _vorbis_synthesis_headerin 0043d4a0 f   libsdlx:info.obj
 0001:0003d200       _vorbis_synthesis          0043d5c0 f   libsdlx:synthesis.obj
 0001:0003d340       _vorbis_synthesis_trackonly 0043d700 f   libsdlx:synthesis.obj
 0001:0003d400       _vorbis_packet_blocksize   0043d7c0 f   libsdlx:synthesis.obj
 0001:0003d480       _vorbis_block_init         0043d840 f   libsdlx:block.obj
 0001:0003d4d0       __vorbis_block_alloc       0043d890 f   libsdlx:block.obj
 0001:0003d540       __vorbis_block_ripcord     0043d900 f   libsdlx:block.obj
 0001:0003d5b0       _vorbis_block_clear        0043d970 f   libsdlx:block.obj
 0001:0003d9f0       _vorbis_dsp_clear          0043ddb0 f   libsdlx:block.obj
 0001:0003dc30       _vorbis_synthesis_restart  0043dff0 f   libsdlx:block.obj
 0001:0003dc90       _vorbis_synthesis_init     0043e050 f   libsdlx:block.obj
 0001:0003dcc0       _vorbis_synthesis_blockin  0043e080 f   libsdlx:block.obj
 0001:0003e660       _vorbis_synthesis_pcmout   0043ea20 f   libsdlx:block.obj
 0001:0003e6c0       _vorbis_synthesis_read     0043ea80 f   libsdlx:block.obj
 0001:00042710       _SDL_CalculateAlphaBlit    00442ad0 f   libsdlx:SDL_blit_A.obj
 0001:00043100       _resample_voice            004434c0 f   libsdlx:resample.obj
 0001:00043230       _pre_resample              004435f0 f   libsdlx:resample.obj
 0001:00043ba0       _antialiasing              00443f60 f   libsdlx:filter.obj
 0001:00043d90       _AllocLinear               00444150 f   libsdlx:mlutil.obj
 0001:00043dd0       _FreeLinear                00444190 f   libsdlx:mlutil.obj
 0001:00043e00       _speed_to_finetune         004441c0 f   libsdlx:mlutil.obj
 0001:00043ee0       _S3MIT_CreateOrders        004442a0 f   libsdlx:mlutil.obj
 0001:00043fa0       _UniEffect                 00444360 f   libsdlx:mlutil.obj
 0001:00043ff0       _UniPTEffect               004443b0 f   libsdlx:mlutil.obj
 0001:00044050       _UniVolEffect              00444410 f   libsdlx:mlutil.obj
 0001:00044080       _S3MIT_ProcessCmd          00444440 f   libsdlx:mlutil.obj
 0001:000445d0       _oggpack_writeinit         00444990 f   libsdlx:bitwise.obj
 0001:00044610       _oggpack_write             004449d0 f   libsdlx:bitwise.obj
 0001:00044710       _oggpack_writealign        00444ad0 f   libsdlx:bitwise.obj
 0001:00044730       _oggpack_writeclear        00444af0 f   libsdlx:bitwise.obj
 0001:00044760       _oggpack_readinit          00444b20 f   libsdlx:bitwise.obj
 0001:00044790       _oggpack_look              00444b50 f   libsdlx:bitwise.obj
 0001:00044830       _oggpack_adv               00444bf0 f   libsdlx:bitwise.obj
 0001:00044860       _oggpack_read              00444c20 f   libsdlx:bitwise.obj
 0001:00044920       _oggpack_bytes             00444ce0 f   libsdlx:bitwise.obj
 0001:00044940       __vp_global_free           00444d00 f   libsdlx:psy.obj
 0001:00044970       __vi_psy_free              00444d30 f   libsdlx:psy.obj
 0001:00045690       __vp_psy_init              00445a50 f   libsdlx:psy.obj
 0001:00045c20       __vp_psy_clear             00445fe0 f   libsdlx:psy.obj
 0001:00046bd0       __vp_remove_floor          00446f90 f   libsdlx:psy.obj
 0001:00046cf0       __vp_noisemask             004470b0 f   libsdlx:psy.obj
 0001:00046f10       __vp_tonemask              004472d0 f   libsdlx:psy.obj
 0001:00047070       __vp_offset_and_mix        00447430 f   libsdlx:psy.obj
 0001:000474c0       __vp_quantize_couple_memo  00447880 f   libsdlx:psy.obj
 0001:00047650       __vp_quantize_couple_sort  00447a10 f   libsdlx:psy.obj
 0001:000477b0       __vp_noise_normalize_sort  00447b70 f   libsdlx:psy.obj
 0001:00047860       __vp_noise_normalize       00447c20 f   libsdlx:psy.obj
 0001:00047b60       __vp_couple                00447f20 f   libsdlx:psy.obj
 0001:00047fd0       __ilog                     00448390 f   libsdlx:sharedbook.obj
 0001:00047ff0       __make_words               004483b0 f   libsdlx:sharedbook.obj
 0001:00048170       __book_maptype1_quantvals  00448530 f   libsdlx:sharedbook.obj
 0001:000481e0       __book_unquantize          004485a0 f   libsdlx:sharedbook.obj
 0001:00048430       _vorbis_staticbook_clear   004487f0 f   libsdlx:sharedbook.obj
 0001:00048500       _vorbis_staticbook_destroy 004488c0 f   libsdlx:sharedbook.obj
 0001:00048520       _vorbis_book_clear         004488e0 f   libsdlx:sharedbook.obj
 0001:00048580       _vorbis_book_init_encode   00448940 f   libsdlx:sharedbook.obj
 0001:00048600       _vorbis_book_init_decode   004489c0 f   libsdlx:sharedbook.obj
 0001:00048b40       _vorbis_staticbook_unpack  00448f00 f   libsdlx:codebook.obj
 0001:00048d90       _vorbis_book_encode        00449150 f   libsdlx:codebook.obj
 0001:00048f60       _vorbis_book_decode        00449320 f   libsdlx:codebook.obj
 0001:00048f80       _vorbis_book_decodevs_add  00449340 f   libsdlx:codebook.obj
 0001:00049110       _vorbis_book_decodev_add   004494d0 f   libsdlx:codebook.obj
 0001:00049290       _vorbis_book_decodev_set   00449650 f   libsdlx:codebook.obj
 0001:00049300       _vorbis_book_decodevv_add  004496c0 f   libsdlx:codebook.obj
 0001:0004bea0       _drft_forward              0044c260 f   libsdlx:smallft.obj
 0001:0004bed0       _drft_init                 0044c290 f   libsdlx:smallft.obj
 0001:0004bf20       _drft_clear                0044c2e0 f   libsdlx:smallft.obj
 0001:0004bf60       _mdct_init                 0044c320 f   libsdlx:mdct.obj
 0001:0004ca90       _mdct_clear                0044ce50 f   libsdlx:mdct.obj
 0001:0004cc40       _mdct_backward             0044d000 f   libsdlx:mdct.obj
 0001:0004cfa0       _mdct_forward              0044d360 f   libsdlx:mdct.obj
 0001:0004d370       _vorbis_bitrate_clear      0044d730 f   libsdlx:bitrate.obj
 0001:0004d450       _vorbis_bitrate_managed    0044d810 f   libsdlx:bitrate.obj
 0001:0004d470       __ve_envelope_clear        0044d830 f   libsdlx:envelope.obj
 0001:0004d4e0       __vorbis_window_get        0044d8a0 f   libsdlx:window.obj
 0001:0004d4f0       __vorbis_apply_window      0044d8b0 f   libsdlx:window.obj
 0001:0004e9c0       _res0_free_info            0044ed80 f   libsdlx:res0.obj
 0001:0004e9e0       _res0_free_look            0044eda0 f   libsdlx:res0.obj
 0001:0004ea60       _res0_pack                 0044ee20 f   libsdlx:res0.obj
 0001:0004eb60       _res0_unpack               0044ef20 f   libsdlx:res0.obj
 0001:0004ecb0       _res0_look                 0044f070 f   libsdlx:res0.obj
 0001:0004fbe0       _res0_inverse              0044ffa0 f   libsdlx:res0.obj
 0001:0004fc40       _res1_forward              00450000 f   libsdlx:res0.obj
 0001:0004fe80       _res1_class                00450240 f   libsdlx:res0.obj
 0001:0004fee0       _res1_inverse              004502a0 f   libsdlx:res0.obj
 0001:0004ff40       _res2_class                00450300 f   libsdlx:res0.obj
 0001:0004ff80       _res2_forward              00450340 f   libsdlx:res0.obj
 0001:00050210       _res2_inverse              004505d0 f   libsdlx:res0.obj
 0001:00051300       _floor1_fit                004516c0 f   libsdlx:floor1.obj
 0001:000517d0       _floor1_interpolate_fit    00451b90 f   libsdlx:floor1.obj
 0001:00051880       _floor1_encode             00451c40 f   libsdlx:floor1.obj
 0001:00052820       _vorbis_lsp_to_curve       00452be0 f   libsdlx:lsp.obj
 0001:00052ad0       _TTF_Init                  00452e90 f   sdl_ttf:SDL_ttf.obj
 0001:000531c0       _TTF_CloseFont             00453580 f   sdl_ttf:SDL_ttf.obj
 0001:00053210       _TTF_SizeUNICODE           004535d0 f   sdl_ttf:SDL_ttf.obj
 0001:00053380       _TTF_RenderUNICODE_Blended 00453740 f   sdl_ttf:SDL_ttf.obj
 0001:000535f0       _TTF_Quit                  004539b0 f   sdl_ttf:SDL_ttf.obj
 0001:00053610       _TTF_OpenFontIndexRW       004539d0 f   sdl_ttf:SDL_ttf.obj
 0001:000538e0       _TTF_OpenFont              00453ca0 f   sdl_ttf:SDL_ttf.obj
 0001:00053910       _TTF_RenderText_Blended    00453cd0 f   sdl_ttf:SDL_ttf.obj
 0001:000539a0       _FT_Add_Default_Modules    00453d60 f   sdl_ttf:ftinit.obj
 0001:000539d0       _FT_Init_FreeType          00453d90 f   sdl_ttf:ftinit.obj
 0001:00053a20       _FT_Done_FreeType          00453de0 f   sdl_ttf:ftinit.obj
 0001:00053a40       _FT_Alloc                  00453e00 f   sdl_ttf:ftbase.obj
 0001:00053a90       _FT_Free                   00453e50 f   sdl_ttf:ftbase.obj
 0001:00053ac0       _FT_List_Find              00453e80 f   sdl_ttf:ftbase.obj
 0001:00053ae0       _FT_List_Add               00453ea0 f   sdl_ttf:ftbase.obj
 0001:00053b10       _FT_List_Remove            00453ed0 f   sdl_ttf:ftbase.obj
 0001:00053b40       _FT_List_Up                00453f00 f   sdl_ttf:ftbase.obj
 0001:00053b90       _FT_List_Finalize          00453f50 f   sdl_ttf:ftbase.obj
 0001:00053be0       _FT_Stream_Close           00453fa0 f   sdl_ttf:ftbase.obj
 0001:00053c00       _FT_Stream_Seek            00453fc0 f   sdl_ttf:ftbase.obj
 0001:00053c40       _FT_Stream_Skip            00454000 f   sdl_ttf:ftbase.obj
 0001:00053c80       _FT_Stream_Pos             00454040 f   sdl_ttf:ftbase.obj
 0001:00053c90       _FT_Stream_ReadAt          00454050 f   sdl_ttf:ftbase.obj
 0001:00053d20       _FT_Stream_ReleaseFrame    004540e0 f   sdl_ttf:ftbase.obj
 0001:00053d60       _FT_Stream_EnterFrame      00454120 f   sdl_ttf:ftbase.obj
 0001:00053e00       _FT_Stream_ExitFrame       004541c0 f   sdl_ttf:ftbase.obj
 0001:00053e30       _FT_Stream_GetChar         004541f0 f   sdl_ttf:ftbase.obj
 0001:00053e50       _FT_Stream_GetShort        00454210 f   sdl_ttf:ftbase.obj
 0001:00053e80       _FT_Stream_GetShortLE      00454240 f   sdl_ttf:ftbase.obj
 0001:00053eb0       _FT_Stream_GetLong         00454270 f   sdl_ttf:ftbase.obj
 0001:00053ef0       _FT_Stream_GetLongLE       004542b0 f   sdl_ttf:ftbase.obj
 0001:00053f30       _FT_Stream_ReadChar        004542f0 f   sdl_ttf:ftbase.obj
 0001:00053fa0       _FT_Stream_ReadShort       00454360 f   sdl_ttf:ftbase.obj
 0001:00054010       _FT_Stream_ReadShortLE     004543d0 f   sdl_ttf:ftbase.obj
 0001:00054080       _FT_Stream_ReadOffset      00454440 f   sdl_ttf:ftbase.obj
 0001:00054100       _FT_Stream_ReadLong        004544c0 f   sdl_ttf:ftbase.obj
 0001:00054180       _FT_Stream_ReadLongLE      00454540 f   sdl_ttf:ftbase.obj
 0001:00054200       _FT_Stream_ReadFields      004545c0 f   sdl_ttf:ftbase.obj
 0001:000543f0       _FT_RoundFix               004547b0 f   sdl_ttf:ftbase.obj
 0001:00054420       _FT_MulDiv                 004547e0 f   sdl_ttf:ftbase.obj
 0001:00054480       _FT_MulFix                 00454840 f   sdl_ttf:ftbase.obj
 0001:000544c0       _FT_DivFix                 00454880 f   sdl_ttf:ftbase.obj
 0001:00054520       _FT_SqrtFixed              004548e0 f   sdl_ttf:ftbase.obj
 0001:00054670       _FT_Atan2                  00454a30 f   sdl_ttf:ftbase.obj
 0001:000546b0       _FT_Angle_Diff             00454a70 f   sdl_ttf:ftbase.obj
 0001:000546e0       _FT_Outline_Decompose      00454aa0 f   sdl_ttf:ftbase.obj
 0001:00054aa0       _FT_Outline_Check          00454e60 f   sdl_ttf:ftbase.obj
 0001:00054b00       _FT_Outline_Copy           00454ec0 f   sdl_ttf:ftbase.obj
 0001:00054b90       _FT_Outline_Done_Internal  00454f50 f   sdl_ttf:ftbase.obj
 0001:00054c40       _FT_Outline_Done           00455000 f   sdl_ttf:ftbase.obj
 0001:00054c60       _FT_Outline_Get_CBox       00455020 f   sdl_ttf:ftbase.obj
 0001:00054cf0       _FT_Outline_Translate      004550b0 f   sdl_ttf:ftbase.obj
 0001:00054d40       _FT_Vector_Transform       00455100 f   sdl_ttf:ftbase.obj
 0001:00054e50       _FT_Outline_Transform      00455210 f   sdl_ttf:ftbase.obj
 0001:00054e90       _FT_GlyphLoader_New        00455250 f   sdl_ttf:ftbase.obj
 0001:00054ed0       _FT_GlyphLoader_Rewind     00455290 f   sdl_ttf:ftbase.obj
 0001:00054f00       _FT_GlyphLoader_Reset      004552c0 f   sdl_ttf:ftbase.obj
 0001:00054fb0       _FT_GlyphLoader_Done       00455370 f   sdl_ttf:ftbase.obj
 0001:00055010       _FT_GlyphLoader_CreateExtra 004553d0 f   sdl_ttf:ftbase.obj
 0001:000550a0       _FT_GlyphLoader_Prepare    00455460 f   sdl_ttf:ftbase.obj
 0001:00055100       _FT_GlyphLoader_Add        004554c0 f   sdl_ttf:ftbase.obj
 0001:000551a0       _ft_validator_init         00455560 f   sdl_ttf:ftbase.obj
 0001:000551c0       _ft_validator_error        00455580 f   sdl_ttf:ftbase.obj
 0001:000553d0       _ft_glyphslot_free_bitmap  00455790 f   sdl_ttf:ftbase.obj
 0001:00055420       _ft_glyphslot_set_bitmap   004557e0 f   sdl_ttf:ftbase.obj
 0001:00055440       _ft_glyphslot_alloc_bitmap 00455800 f   sdl_ttf:ftbase.obj
 0001:000555d0       _FT_New_GlyphSlot          00455990 f   sdl_ttf:ftbase.obj
 0001:00055660       _FT_Done_GlyphSlot         00455a20 f   sdl_ttf:ftbase.obj
 0001:00055950       _FT_New_Size               00455d10 f   sdl_ttf:ftbase.obj
 0001:00055a60       _FT_Done_Size              00455e20 f   sdl_ttf:ftbase.obj
 0001:00055c20       _FT_Set_Char_Size          00455fe0 f   sdl_ttf:ftbase.obj
 0001:00055d70       _FT_Set_Pixel_Sizes        00456130 f   sdl_ttf:ftbase.obj
 0001:00055e40       _FT_Select_Charmap         00456200 f   sdl_ttf:ftbase.obj
 0001:00055ea0       _FT_Set_Charmap            00456260 f   sdl_ttf:ftbase.obj
 0001:00055ef0       _FT_CMap_Done              004562b0 f   sdl_ttf:ftbase.obj
 0001:00055f20       _FT_Get_Char_Index         004562e0 f   sdl_ttf:ftbase.obj
 0001:00055f40       _FT_Activate_Size          00456300 f   sdl_ttf:ftbase.obj
 0001:00055f70       _FT_Lookup_Renderer        00456330 f   sdl_ttf:ftbase.obj
 0001:000561b0       _FT_Set_Renderer           00456570 f   sdl_ttf:ftbase.obj
 0001:00056250       _FT_Render_Glyph_Internal  00456610 f   sdl_ttf:ftbase.obj
 0001:00056340       _FT_Render_Glyph           00456700 f   sdl_ttf:ftbase.obj
 0001:00056370       _FT_Get_Module             00456730 f   sdl_ttf:ftbase.obj
 0001:000563f0       _FT_Get_Module_Interface   004567b0 f   sdl_ttf:ftbase.obj
 0001:00056410       _FT_New_Library            004567d0 f   sdl_ttf:ftbase.obj
 0001:000564a0       _FT_Realloc                00456860 f   sdl_ttf:ftbase.obj
 0001:00056530       _FT_Stream_Read            004568f0 f   sdl_ttf:ftbase.obj
 0001:00056550       _FT_Stream_ExtractFrame    00456910 f   sdl_ttf:ftbase.obj
 0001:00056580       _FT_Outline_New_Internal   00456940 f   sdl_ttf:ftbase.obj
 0001:00056660       _FT_Outline_New            00456a20 f   sdl_ttf:ftbase.obj
 0001:00056680       _FT_GlyphLoader_CheckPoints 00456a40 f   sdl_ttf:ftbase.obj
 0001:00056760       _FT_GlyphLoader_CheckSubGlyphs 00456b20 f   sdl_ttf:ftbase.obj
 0001:000567c0       _FT_GlyphLoader_CopyPoints 00456b80 f   sdl_ttf:ftbase.obj
 0001:000568c0       _FT_Load_Glyph             00456c80 f   sdl_ttf:ftbase.obj
 0001:00057610       _FT_Done_Face              004579d0 f   sdl_ttf:ftbase.obj
 0001:00057680       _FT_CMap_New               00457a40 f   sdl_ttf:ftbase.obj
 0001:00057800       _FT_Remove_Module          00457bc0 f   sdl_ttf:ftbase.obj
 0001:00057870       _FT_Done_Library           00457c30 f   sdl_ttf:ftbase.obj
 0001:000578f0       _FT_Open_Face              00457cb0 f   sdl_ttf:ftbase.obj
 0001:00057c00       _FT_Add_Module             00457fc0 f   sdl_ttf:ftbase.obj
 0001:00057de0       _FT_New_Memory_Face        004581a0 f   sdl_ttf:ftbase.obj
 0001:00062ac0       _gray_raster_render        00462e80 f   sdl_ttf:smooth.obj
 0001:0006da00       _ps_hints_apply            0046ddc0 f   sdl_ttf:pshinter.obj
 0001:000735f0       _BitOrderInvert            004739b0 f   sdl_ttf:pcf.obj
 0001:00073610       _TwoByteSwap               004739d0 f   sdl_ttf:pcf.obj
 0001:00073640       _FourByteSwap              00473a00 f   sdl_ttf:pcf.obj
 0001:000759d0       _IMG_isXCF                 00475d90 f   sdl_image:IMG_xcf.obj
 0001:000759d0       _SDL_LockYUV_SW            00475d90 f   libsdlx:SDL_yuv_sw.obj
 0001:000759d0       _IMG_LoadTIF_RW            00475d90 f   sdl_image:IMG_tif.obj
 0001:000759d0       _IMG_LoadXCF_RW            00475d90 f   sdl_image:IMG_xcf.obj
 0001:000759d0       _SDL_QuitInit              00475d90 f   libsdlx:SDL_quit.obj
 0001:000759d0       _IMG_isTIF                 00475d90 f   sdl_image:IMG_tif.obj
 0001:0007d970       _jpeg_get_large            0047dd30 f   sdl_image:jmemansi.obj
 0001:0007d970       _jpeg_get_small            0047dd30 f   sdl_image:jmemansi.obj
 0001:0007d9f0       _FT_Stream_Open            0047ddb0 f   sdl_ttf:ftsystem.obj
 0001:0007da70       _FT_New_Memory             0047de30 f   sdl_ttf:ftsystem.obj
 0001:0007daa0       _FT_Done_Memory            0047de60 f   sdl_ttf:ftsystem.obj
 0001:00080290       _FT_Stream_OpenGzip        00480650 f   sdl_ttf:ftgzip.obj
 0001:00080340       _FT_Matrix_Invert          00480700 f   sdl_ttf:ftglyph.obj
 0001:00080740       _IMG_LoadTyped_RW          00480b00 f   sdl_image:IMG.obj
 0001:00080820       _IMG_Load                  00480be0 f   sdl_image:IMG.obj
 0001:00080860       _IMG_isPNG                 00480c20 f   sdl_image:IMG_png.obj
 0001:000808c0       _IMG_LoadPNG_RW            00480c80 f   sdl_image:IMG_png.obj
 0001:00080c80       _IMG_isLBM                 00481040 f   sdl_image:IMG_lbm.obj
 0001:00080ce0       _IMG_LoadLBM_RW            004810a0 f   sdl_image:IMG_lbm.obj
 0001:00081490       _IMG_isJPG                 00481850 f   sdl_image:IMG_jpg.obj
 0001:00081610       _IMG_LoadJPG_RW            004819d0 f   sdl_image:IMG_jpg.obj
 0001:000817a0       _IMG_isGIF                 00481b60 f   sdl_image:IMG_gif.obj
 0001:000821b0       _IMG_LoadGIF_RW            00482570 f   sdl_image:IMG_gif.obj
 0001:00082560       _IMG_isPCX                 00482920 f   sdl_image:IMG_pcx.obj
 0001:000825b0       _IMG_LoadPCX_RW            00482970 f   sdl_image:IMG_pcx.obj
 0001:000829b0       _IMG_isXPM                 00482d70 f   sdl_image:IMG_xpm.obj
 0001:00083250       _IMG_LoadXPM_RW            00483610 f   sdl_image:IMG_xpm.obj
 0001:00083260       _IMG_isPNM                 00483620 f   sdl_image:IMG_pnm.obj
 0001:00083340       _IMG_LoadPNM_RW            00483700 f   sdl_image:IMG_pnm.obj
 0001:00083660       _IMG_isBMP                 00483a20 f   sdl_image:IMG_bmp.obj
 0001:000836a0       _IMG_LoadBMP_RW            00483a60 f   sdl_image:IMG_bmp.obj
 0001:000836b0       _IMG_LoadTGA_RW            00483a70 f   sdl_image:IMG_tga.obj
 0001:00085360       _jpeg_resync_to_restart    00485720 f   sdl_image:jdmarker.obj
 0001:000854a0       _jinit_marker_reader       00485860 f   sdl_image:jdmarker.obj
 0001:00085530       _jpeg_CreateDecompress     004858f0 f   sdl_image:jdapimin.obj
 0001:00085640       _jpeg_destroy_decompress   00485a00 f   sdl_image:jdapimin.obj
 0001:000857e0       _jpeg_consume_input        00485ba0 f   sdl_image:jdapimin.obj
 0001:000858b0       _jpeg_finish_decompress    00485c70 f   sdl_image:jdapimin.obj
 0001:00085980       _jpeg_read_header          00485d40 f   sdl_image:jdapimin.obj
 0001:00085ad0       _jpeg_read_scanlines       00485e90 f   sdl_image:jdapistd.obj
 0001:00085b70       _jpeg_start_decompress     00485f30 f   sdl_image:jdapistd.obj
 0001:00085cd0       _jpeg_calc_output_dimensions 00486090 f   sdl_image:jdmaster.obj
 0001:000862e0       _jinit_master_decompress   004866a0 f   sdl_image:jdmaster.obj
 0001:000864a0       _jpeg_std_error            00486860 f   sdl_image:jerror.obj
 0001:000864f0       _jpeg_abort                004868b0 f   sdl_image:jcomapi.obj
 0001:00086530       _jpeg_destroy              004868f0 f   sdl_image:jcomapi.obj
 0001:00086550       _jpeg_alloc_quant_table    00486910 f   sdl_image:jcomapi.obj
 0001:00086570       _jpeg_alloc_huff_table     00486930 f   sdl_image:jcomapi.obj
 0001:00086590       _jdiv_round_up             00486950 f   sdl_image:jutils.obj
 0001:000865a0       _jround_up                 00486960 f   sdl_image:jutils.obj
 0001:000865c0       _jcopy_sample_rows         00486980 f   sdl_image:jutils.obj
 0001:00086610       _jcopy_block_row           004869d0 f   sdl_image:jutils.obj
 0001:00086640       _jzero_far                 00486a00 f   sdl_image:jutils.obj
 0001:00086c30       _jinit_input_controller    00486ff0 f   sdl_image:jdinput.obj
 0001:00087790       _jinit_memory_mgr          00487b50 f   sdl_image:jmemmgr.obj
 0001:00087e40       _jinit_d_main_controller   00488200 f   sdl_image:jdmainct.obj
 0001:00088e30       _jinit_d_coef_controller   004891f0 f   sdl_image:jdcoefct.obj
 0001:00088f80       _jpeg_make_d_derived_tbl   00489340 f   sdl_image:jdhuff.obj
 0001:00089250       _jpeg_fill_bit_buffer      00489610 f   sdl_image:jdhuff.obj
 0001:00089380       _jpeg_huff_decode          00489740 f   sdl_image:jdhuff.obj
 0001:00089a70       _jinit_huff_decoder        00489e30 f   sdl_image:jdhuff.obj
 0001:0008a760       _jinit_phuff_decoder       0048ab20 f   sdl_image:jdphuff.obj
 0001:0008ab00       _jinit_inverse_dct         0048aec0 f   sdl_image:jddctmgr.obj
 0001:0008ae40       _jinit_d_post_controller   0048b200 f   sdl_image:jdpostct.obj
 0001:0008b3c0       _jinit_upsampler           0048b780 f   sdl_image:jdsample.obj
 0001:0008ba00       _jinit_color_deconverter   0048bdc0 f   sdl_image:jdcolor.obj
 0001:0008c150       _jinit_merged_upsampler    0048c510 f   sdl_image:jdmerge.obj
 0001:0008d430       _jinit_2pass_quantizer     0048d7f0 f   sdl_image:jquant2.obj
 0001:0008e0f0       _jinit_1pass_quantizer     0048e4b0 f   sdl_image:jquant1.obj
 0001:0008e190       _jpeg_free_small           0048e550 f   sdl_image:jmemansi.obj
 0001:0008e190       _jpeg_free_large           0048e550 f   sdl_image:jmemansi.obj
 0001:0008e1a0       _jpeg_mem_available        0048e560 f   sdl_image:jmemansi.obj
 0001:0008e2a0       _jpeg_open_backing_store   0048e660 f   sdl_image:jmemansi.obj
 0001:0008e2f0       _jpeg_mem_init             0048e6b0 f   sdl_image:jmemansi.obj
 0001:0008e300       _jpeg_idct_islow           0048e6c0 f   sdl_image:jidctint.obj
 0001:0008e830       _jpeg_idct_ifast           0048ebf0 f   sdl_image:jidctfst.obj
 0001:0008ec20       _jpeg_idct_float           0048efe0 f   sdl_image:jidctflt.obj
 0001:0008f070       _jpeg_idct_4x4             0048f430 f   sdl_image:jidctred.obj
 0001:0008f390       _jpeg_idct_2x2             0048f750 f   sdl_image:jidctred.obj
 0001:0008f800       _jpeg_idct_1x1             0048fbc0 f   sdl_image:jidctred.obj
 0001:0008f840       _SMPEG_new                 0048fc00 f   libsmpegx:smpeg.obj
 0001:0008f8c0       _SMPEG_getinfo             0048fc80 f   libsmpegx:smpeg.obj
 0001:0008f9d0       _SMPEG_enableaudio         0048fd90 f   libsmpegx:smpeg.obj
 0001:0008f9f0       _SMPEG_enablevideo         0048fdb0 f   libsmpegx:smpeg.obj
 0001:0008fa10       _SMPEG_delete              0048fdd0 f   libsmpegx:smpeg.obj
 0001:0008fa60       _SMPEG_status              0048fe20 f   libsmpegx:smpeg.obj
 0001:0008fad0       _SMPEG_setvolume           0048fe90 f   libsmpegx:smpeg.obj
 0001:0008faf0       _SMPEG_play                0048feb0 f   libsmpegx:smpeg.obj
 0001:0008fb10       _SMPEG_stop                0048fed0 f   libsmpegx:smpeg.obj
 0001:0008fb20       _SMPEG_rewind              0048fee0 f   libsmpegx:smpeg.obj
 0001:0008fb30       _SMPEG_skip                0048fef0 f   libsmpegx:smpeg.obj
 0001:0008fb50       _SMPEG_playAudio           0048ff10 f   libsmpegx:smpeg.obj
 0001:0008fb80       _SMPEG_actualSpec          0048ff40 f   libsmpegx:smpeg.obj
 0001:0008fba0       ??0MPEG@@QAE@PBD_N@Z       0048ff60 f   libsmpegx:MPEG.obj
 0001:0008fc30       ?SetError@MPEGerror@@QAAXPADZZ 0048fff0 f i libsmpegx:MPEG.obj
 0001:0008fc70       ??_EMPEG@@UAEPAXI@Z        00490030 f i libsmpegx:MPEG.obj
 0001:0008fc70       ??_GMPEG@@UAEPAXI@Z        00490030 f i libsmpegx:MPEG.obj
 0001:0008fca0       ?Init@MPEG@@QAEXPAUSDL_RWops@@_N@Z 00490060 f   libsmpegx:MPEG.obj
 0001:0008ff40       ?InitErrorState@MPEG@@QAEXXZ 00490300 f   libsmpegx:MPEG.obj
 0001:00090010       ??1MPEG@@UAE@XZ            004903d0 f   libsmpegx:MPEG.obj
 0001:00090130       ?AudioEnabled@MPEG@@QAE_NXZ 004904f0 f   libsmpegx:MPEG.obj
 0001:00090150       ?EnableAudio@MPEG@@QAEX_N@Z 00490510 f   libsmpegx:MPEG.obj
 0001:00090230       ?VideoEnabled@MPEG@@QAE_NXZ 004905f0 f   libsmpegx:MPEG.obj
 0001:00090250       ?EnableVideo@MPEG@@QAEX_N@Z 00490610 f   libsmpegx:MPEG.obj
 0001:000902d0       ?Play@MPEG@@UAEXXZ         00490690 f   libsmpegx:MPEG.obj
 0001:00090330       ?Stop@MPEG@@QAEXXZ         004906f0 f   libsmpegx:MPEG.obj
 0001:00090390       ?Rewind@MPEG@@QAEXXZ       00490750 f   libsmpegx:MPEG.obj
 0001:000903b0       ?Pause@MPEG@@UAEXXZ        00490770 f   libsmpegx:MPEG.obj
 0001:00090420       ?GetStatus@MPEG@@QAE?AW4MPEGstatus@@XZ 004907e0 f   libsmpegx:MPEG.obj
 0001:00090560       ?GetAudioInfo@MPEG@@QAE_NPAUMPEG_AudioInfo@@@Z 00490920 f   libsmpegx:MPEG.obj
 0001:000905a0       ?Volume@MPEG@@QAEXH@Z      00490960 f   libsmpegx:MPEG.obj
 0001:000905e0       ?ActualSpec@MPEG@@QAEXPBUSDL_AudioSpec@@@Z 004909a0 f   libsmpegx:MPEG.obj
 0001:00090610       ?GetAudio@MPEG@@QAEPAVMPEGaudio@@XZ 004909d0 f   libsmpegx:MPEG.obj
 0001:00090630       ?Seek@MPEG@@UAEXH@Z        004909f0 f   libsmpegx:MPEG.obj
 0001:00090740       ?seekIntoStream@MPEG@@IAE_NH@Z 00490b00 f   libsmpegx:MPEG.obj
 0001:00090940       ?Skip@MPEG@@QAEXM@Z        00490d00 f   libsmpegx:MPEG.obj
 0001:000909e0       ?GetSystemInfo@MPEG@@QAEXPAUMPEG_SystemInfo@@@Z 00490da0 f   libsmpegx:MPEG.obj
 0001:00090aa0       ?parse_stream_list@MPEG@@IAEXXZ 00490e60 f   libsmpegx:MPEG.obj
 0001:00090c60       ?getbits@MPEGaudio@@AAEHH@Z 00491020 f   libsmpegx:mpegtoraw.obj
 0001:00090d80       ?initialize@MPEGaudio@@QAEXXZ 00491140 f   libsmpegx:mpegtoraw.obj
 0001:00091050       ?loadheader@MPEGaudio@@AAE_NXZ 00491410 f   libsmpegx:mpegtoraw.obj
 0001:00091680       ?run@MPEGaudio@@QAE_NHPAN@Z 00491a40 f   libsmpegx:mpegtoraw.obj
 0001:00091830       ?Decode_MPEGaudio@@YAHPAX@Z 00491bf0 f   libsmpegx:mpegtoraw.obj
 0001:00091920       ?Play_MPEGaudio@@YAHPAVMPEGaudio@@PAEH@Z 00491ce0 f   libsmpegx:mpegtoraw.obj
 0001:00091b80       ?Play_MPEGaudioSDL@@YAXPAXPAEH@Z 00491f40 f   libsmpegx:mpegtoraw.obj
 0001:00091bb0       ?skip_zeros@@YAIPAEI@Z     00491f70 f   libsmpegx:MPEGsystem.obj
 0001:00091d10       ??0MPEGsystem@@QAE@PAUSDL_RWops@@@Z 004920d0 f   libsmpegx:MPEGsystem.obj
 0001:00091fc0       ??_GMPEGsystem@@UAEPAXI@Z  00492380 f i libsmpegx:MPEGsystem.obj
 0001:00091fc0       ??_EMPEGsystem@@UAEPAXI@Z  00492380 f i libsmpegx:MPEGsystem.obj
 0001:00091ff0       ??1MPEGsystem@@UAE@XZ      004923b0 f   libsmpegx:MPEGsystem.obj
 0001:000920c0       ?GetStreamList@MPEGsystem@@QAEPAPAVMPEGstream@@XZ 00492480 f   libsmpegx:MPEGsystem.obj
 0001:000920e0       ?Read@MPEGsystem@@MAEXXZ   004924a0 f   libsmpegx:MPEGsystem.obj
 0001:00092320       ?FillBuffer@MPEGsystem@@MAEEXZ 004926e0 f   libsmpegx:MPEGsystem.obj
 0001:00093830       ?Skip@MPEGsystem@@QAEXN@Z  00493bf0 f   libsmpegx:MPEGsystem.obj
 0001:00093880       ?Tell@MPEGsystem@@QAEIXZ   00493c40 f   libsmpegx:MPEGsystem.obj
 0001:00093900       ?TotalSize@MPEGsystem@@UAEIXZ 00493cc0 f   libsmpegx:MPEGsystem.obj
 0001:00093a90       ?TotalTime@MPEGsystem@@UAENXZ 00493e50 f   libsmpegx:MPEGsystem.obj
 0001:000940a0       ?TimeElapsedAudio@MPEGsystem@@UAENH@Z 00494460 f   libsmpegx:MPEGsystem.obj
 0001:00094450       ?Rewind@MPEGsystem@@QAEXXZ 00494810 f   libsmpegx:MPEGsystem.obj
 0001:00094470       ?Seek@MPEGsystem@@UAE_NH@Z 00494830 f   libsmpegx:MPEGsystem.obj
 0001:000945b0       ?RequestBuffer@MPEGsystem@@QAEXXZ 00494970 f   libsmpegx:MPEGsystem.obj
 0001:000945d0       ?Start@MPEGsystem@@UAEXXZ  00494990 f   libsmpegx:MPEGsystem.obj
 0001:00094640       ?Stop@MPEGsystem@@QAEXXZ   00494a00 f   libsmpegx:MPEGsystem.obj
 0001:00094670       ?Wait@MPEGsystem@@QAE_NXZ  00494a30 f   libsmpegx:MPEGsystem.obj
 0001:000946c0       ?Eof@MPEGsystem@@QBE_NXZ   00494a80 f   libsmpegx:MPEGsystem.obj
 0001:00094700       ?SystemLoop@MPEGsystem@@KA_NPAV1@@Z 00494ac0 f   libsmpegx:MPEGsystem.obj
 0001:00094820       ?add_stream@MPEGsystem@@QAEXPAVMPEGstream@@@Z 00494be0 f   libsmpegx:MPEGsystem.obj
 0001:000948b0       ?get_stream@MPEGsystem@@QAEPAVMPEGstream@@E@Z 00494c70 f   libsmpegx:MPEGsystem.obj
 0001:00094920       ?exist_stream@MPEGsystem@@QAEEEE@Z 00494ce0 f   libsmpegx:MPEGsystem.obj
 0001:000949a0       ?reset_all_streams@MPEGsystem@@QAEXXZ 00494d60 f   libsmpegx:MPEGsystem.obj
 0001:000949f0       ?end_all_streams@MPEGsystem@@QAEXXZ 00494db0 f   libsmpegx:MPEGsystem.obj
 0001:00094a50       ?seek_first_header@MPEGsystem@@UAE_NXZ 00494e10 f   libsmpegx:MPEGsystem.obj
 0001:00094c40       ?seek_next_header@MPEGsystem@@UAE_NXZ 00495000 f   libsmpegx:MPEGsystem.obj
 0001:00094e00       ??0MPEGstream@@QAE@PAVMPEGsystem@@E@Z 004951c0 f   libsmpegx:MPEGstream.obj
 0001:00094ed0       ??1MPEGstream@@QAE@XZ      00495290 f   libsmpegx:MPEGstream.obj
 0001:00094fb0       ?reset_stream@MPEGstream@@QAEXXZ 00495370 f   libsmpegx:MPEGstream.obj
 0001:00095130       ?rewind_stream@MPEGstream@@QAEXXZ 004954f0 f   libsmpegx:MPEGstream.obj
 0001:00095150       ?next_system_buffer@MPEGstream@@IAE_NXZ 00495510 f   libsmpegx:MPEGstream.obj
 0001:00095220       ?next_packet@MPEGstream@@QAE_N_N0@Z 004955e0 f   libsmpegx:MPEGstream.obj
 0001:00095300       ?new_marker@MPEGstream@@QAEPAUMPEGstream_marker@@H@Z 004956c0 f   libsmpegx:MPEGstream.obj
 0001:000953e0       ?seek_marker@MPEGstream@@QAE_NPBUMPEGstream_marker@@@Z 004957a0 f   libsmpegx:MPEGstream.obj
 0001:00095470       ?delete_marker@MPEGstream@@QAEXPAUMPEGstream_marker@@@Z 00495830 f   libsmpegx:MPEGstream.obj
 0001:000954b0       ?copy_data@MPEGstream@@QAEIPAEH_N@Z 00495870 f   libsmpegx:MPEGstream.obj
 0001:000955f0       ?copy_byte@MPEGstream@@QAEHXZ 004959b0 f   libsmpegx:MPEGstream.obj
 0001:00095650       ?eof@MPEGstream@@QBE_NXZ   00495a10 f   libsmpegx:MPEGstream.obj
 0001:00095680       ?insert_packet@MPEGstream@@QAEXPAEIN@Z 00495a40 f   libsmpegx:MPEGstream.obj
 0001:00095740       ?garbage_collect@MPEGstream@@QAEXXZ 00495b00 f   libsmpegx:MPEGstream.obj
 0001:00095820       ?enable@MPEGstream@@QAEX_N@Z 00495be0 f   libsmpegx:MPEGstream.obj
 0001:00095840       ?time@MPEGstream@@QAENXZ   00495c00 f   libsmpegx:MPEGstream.obj
 0001:00095860       ??0MPEGaudio@@QAE@PAVMPEGstream@@_N@Z 00495c20 f   libsmpegx:MPEGaudio.obj
 0001:00095a70       ?Loop@MPEGaction@@UAEX_N@Z 00495e30 f i libsmpegx:MPEGaudio.obj
 0001:00095a90       ?Time@MPEGaction@@UAENXZ   00495e50 f i libsmpegx:MPEGaudio.obj
 0001:00095ab0       ?Pause@MPEGaction@@UAEXXZ  00495e70 f i libsmpegx:MPEGaudio.obj
 0001:00095af0       ?GetAudioInfo@MPEGaudioaction@@UAE_NPAUMPEG_AudioInfo@@@Z 00495eb0 f i libsmpegx:MPEGaudio.obj
 0001:00095b00       ??_GMPEGaudio@@UAEPAXI@Z   00495ec0 f i libsmpegx:MPEGaudio.obj
 0001:00095b00       ??_EMPEGaudio@@UAEPAXI@Z   00495ec0 f i libsmpegx:MPEGaudio.obj
 0001:00095b30       ??1MPEGaudio@@UAE@XZ       00495ef0 f   libsmpegx:MPEGaudio.obj
 0001:00095b70       ?WantedSpec@MPEGaudio@@QAE_NPAUSDL_AudioSpec@@@Z 00495f30 f   libsmpegx:MPEGaudio.obj
 0001:00095bf0       ?ActualSpec@MPEGaudio@@QAEXPBUSDL_AudioSpec@@@Z 00495fb0 f   libsmpegx:MPEGaudio.obj
 0001:00095d20       ?StartDecoding@MPEGaudio@@IAEXXZ 004960e0 f   libsmpegx:MPEGaudio.obj
 0001:00095de0       ?StopDecoding@MPEGaudio@@IAEXXZ 004961a0 f   libsmpegx:MPEGaudio.obj
 0001:00095e90       ?Time@MPEGaudio@@UAENXZ    00496250 f   libsmpegx:MPEGaudio.obj
 0001:00095ef0       ?Play@MPEGaudio@@UAEXXZ    004962b0 f   libsmpegx:MPEGaudio.obj
 0001:00095f20       ?Stop@MPEGaudio@@UAEXXZ    004962e0 f   libsmpegx:MPEGaudio.obj
 0001:00095f70       ?Rewind@MPEGaudio@@UAEXXZ  00496330 f   libsmpegx:MPEGaudio.obj
 0001:00095fe0       ?ResetSynchro@MPEGaudio@@UAEXN@Z 004963a0 f   libsmpegx:MPEGaudio.obj
 0001:00096040       ?Skip@MPEGaudio@@UAEXM@Z   00496400 f   libsmpegx:MPEGaudio.obj
 0001:000960d0       ?Volume@MPEGaudio@@UAEXH@Z 00496490 f   libsmpegx:MPEGaudio.obj
 0001:00096100       ?GetStatus@MPEGaudio@@UAE?AW4MPEGstatus@@XZ 004964c0 f   libsmpegx:MPEGaudio.obj
 0001:00096160       ?GetAudioInfo@MPEGaudio@@UAE_NPAUMPEG_AudioInfo@@@Z 00496520 f   libsmpegx:MPEGaudio.obj
 0001:00096210       ?fillbuffer@MPEGaudio@@AAE_NH@Z 004965d0 f   libsmpegx:MPEGaudio.obj
 0001:00096270       ?issync@MPEGaudio@@AAE_NXZ 00496630 f   libsmpegx:MPEGaudio.obj
 0001:00096290       ?getbyte@MPEGaudio@@AAEHXZ 00496650 f   libsmpegx:MPEGaudio.obj
 0001:000962d0       ?getbit@MPEGaudio@@AAEHXZ  00496690 f   libsmpegx:MPEGaudio.obj
 0001:00096330       ?getbits8@MPEGaudio@@AAEHXZ 004966f0 f   libsmpegx:MPEGaudio.obj
 0001:000963b0       ??0MPEGvideo@@QAE@PAVMPEGstream@@@Z 00496770 f   libsmpegx:MPEGvideo.obj
 0001:00096780       ?SetTimeSource@MPEGvideoaction@@UAEXPAVMPEGaudioaction@@@Z 00496b40 f i libsmpegx:MPEGvideo.obj
 0001:000967a0       ?GetVideoInfo@MPEGvideoaction@@UAE_NPAUMPEG_VideoInfo@@@Z 00496b60 f i libsmpegx:MPEGvideo.obj
 0001:000967b0       ??_EMPEGvideo@@UAEPAXI@Z   00496b70 f i libsmpegx:MPEGvideo.obj
 0001:000967b0       ??_GMPEGvideo@@UAEPAXI@Z   00496b70 f i libsmpegx:MPEGvideo.obj
 0001:000967e0       ??1MPEGvideo@@UAE@XZ       00496ba0 f   libsmpegx:MPEGvideo.obj
 0001:00096870       ?Play_MPEGvideo@@YAHPAX@Z  00496c30 f   libsmpegx:MPEGvideo.obj
 0001:00096950       ?Play@MPEGvideo@@UAEXXZ    00496d10 f   libsmpegx:MPEGvideo.obj
 0001:000969c0       ?Stop@MPEGvideo@@UAEXXZ    00496d80 f   libsmpegx:MPEGvideo.obj
 0001:00096a10       ?Rewind@MPEGvideo@@UAEXXZ  00496dd0 f   libsmpegx:MPEGvideo.obj
 0001:00096a50       ?ResetSynchro@MPEGvideo@@UAEXN@Z 00496e10 f   libsmpegx:MPEGvideo.obj
 0001:00096b40       ?Skip@MPEGvideo@@UAEXM@Z   00496f00 f   libsmpegx:MPEGvideo.obj
 0001:00096c00       ?GetStatus@MPEGvideo@@UAE?AW4MPEGstatus@@XZ 00496fc0 f   libsmpegx:MPEGvideo.obj
 0001:00096c50       ?GetVideoInfo@MPEGvideo@@UAE_NPAUMPEG_VideoInfo@@@Z 00497010 f   libsmpegx:MPEGvideo.obj
 0001:00096d10       ?SetDisplay@MPEGvideo@@UAE_NPAUSDL_Surface@@PAUSDL_mutex@@P6AX0HHII@Z@Z 004970d0 f   libsmpegx:MPEGvideo.obj
 0001:00096ed0       ?MoveDisplay@MPEGvideo@@UAEXHH@Z 00497290 f   libsmpegx:MPEGvideo.obj
 0001:00096f20       ?ScaleDisplayXY@MPEGvideo@@UAEXHH@Z 004972e0 f   libsmpegx:MPEGvideo.obj
 0001:00096f70       ?SetDisplayRegion@MPEGvideo@@UAEXHHHH@Z 00497330 f   libsmpegx:MPEGvideo.obj
 0001:00097030       ?RenderFrame@MPEGvideo@@UAEXH@Z 004973f0 f   libsmpegx:MPEGvideo.obj
 0001:00097100       ?RenderFinal@MPEGvideo@@UAEXPAUSDL_Surface@@HH@Z 004974c0 f   libsmpegx:MPEGvideo.obj
 0001:00097350       ?layer3initialize@MPEGaudio@@AAEXXZ 00497710 f   libsmpegx:mpeglayer3.obj
 0001:00097bf0       ?layer3getsideinfo@MPEGaudio@@AAE_NXZ 00497fb0 f   libsmpegx:mpeglayer3.obj
 0001:00097f10       ?layer3getsideinfo_2@MPEGaudio@@AAE_NXZ 004982d0 f   libsmpegx:mpeglayer3.obj
 0001:00098160       ?layer3getscalefactors@MPEGaudio@@AAEXHH@Z 00498520 f   libsmpegx:mpeglayer3.obj
 0001:00098f60       ?getbits9@Mpegbitwindow@@QAEHH@Z 00499320 f i libsmpegx:mpeglayer3.obj
 0001:00098fd0       ?layer3getscalefactors_2@MPEGaudio@@AAEXH@Z 00499390 f   libsmpegx:mpeglayer3.obj
 0001:00099650       ?huffmandecoder_1@MPEGaudio@@AAEXPBUHUFFMANCODETABLE@@PAH1@Z 00499a10 f   libsmpegx:mpeglayer3.obj
 0001:00099850       ?getbit@Mpegbitwindow@@QAEHXZ 00499c10 f i libsmpegx:mpeglayer3.obj
 0001:000998a0       ?huffmandecoder_2@MPEGaudio@@AAEXPBUHUFFMANCODETABLE@@PAH111@Z 00499c60 f   libsmpegx:mpeglayer3.obj
 0001:00099a60       ?layer3huffmandecode@MPEGaudio@@AAEXHHQAY0BC@H@Z 00499e20 f   libsmpegx:mpeglayer3.obj
 0001:00099d30       ?layer3twopow2@MPEGaudio@@AAEMHHHH@Z 0049a0f0 f   libsmpegx:mpeglayer3.obj
 0001:00099d70       ?layer3twopow2_1@MPEGaudio@@AAEMHHH@Z 0049a130 f   libsmpegx:mpeglayer3.obj
 0001:00099da0       ?layer3dequantizesample@MPEGaudio@@AAEXHHQAY0BC@HQAY0BC@M@Z 0049a160 f   libsmpegx:mpeglayer3.obj
 0001:0009a440       ?layer3fixtostereo@MPEGaudio@@AAEXHQAY1CA@BC@M@Z 0049a800 f   libsmpegx:mpeglayer3.obj
 0001:0009b4c0       ?layer3reorderandantialias@MPEGaudio@@AAEXHHQAY0BC@M0@Z 0049b880 f   libsmpegx:mpeglayer3.obj
 0001:0009b580       ?layer3reorder_1@@YAXHHQAY0BC@M0@Z 0049b940 f i libsmpegx:mpeglayer3.obj
 0001:0009b840       ?layer3reorder_2@@YAXHHQAY0BC@M0@Z 0049bc00 f i libsmpegx:mpeglayer3.obj
 0001:0009b930       ?layer3antialias_1@@YAXQAY0BC@M@Z 0049bcf0 f i libsmpegx:mpeglayer3.obj
 0001:0009b9d0       ?layer3antialias_2@@YAXQAY0BC@M0@Z 0049bd90 f i libsmpegx:mpeglayer3.obj
 0001:0009bbd0       ?layer3hybrid@MPEGaudio@@AAEXHHQAY0BC@MQAY0CA@M@Z 0049bf90 f   libsmpegx:mpeglayer3.obj
 0001:0009cfd0       ?extractlayer3@MPEGaudio@@AAEXXZ 0049d390 f   libsmpegx:mpeglayer3.obj
 0001:0009d860       ?wrap@Mpegbitwindow@@QAEXXZ 0049dc20 f i libsmpegx:mpeglayer3.obj
 0001:0009d8e0       ?extractlayer3_2@MPEGaudio@@AAEXXZ 0049dca0 f   libsmpegx:mpeglayer3.obj
 0001:0009df40       ??$_Pow_int@N@@YANNH@Z     0049e300 f i libsmpegx:mpeglayer3.obj
 0001:0009dfc0       ?extractlayer1@MPEGaudio@@AAEXXZ 0049e380 f   libsmpegx:mpeglayer1.obj
 0001:0009e4a0       ?extractlayer2@MPEGaudio@@AAEXXZ 0049e860 f   libsmpegx:mpeglayer2.obj
 0001:0009fbd0       ??0MPEG_ring@@QAE@II@Z     0049ff90 f   libsmpegx:MPEGring.obj
 0001:0009fd60       ??_EMPEG_ring@@UAEPAXI@Z   004a0120 f i libsmpegx:MPEGring.obj
 0001:0009fd60       ??_GMPEG_ring@@UAEPAXI@Z   004a0120 f i libsmpegx:MPEGring.obj
 0001:0009fd90       ?ReleaseThreads@MPEG_ring@@QAEXXZ 004a0150 f   libsmpegx:MPEGring.obj
 0001:0009fe20       ??1MPEG_ring@@UAE@XZ       004a01e0 f   libsmpegx:MPEGring.obj
 0001:0009fef0       ?NextWriteBuffer@MPEG_ring@@QAEPAEXZ 004a02b0 f   libsmpegx:MPEGring.obj
 0001:0009ff40       ?WriteDone@MPEG_ring@@QAEXIN@Z 004a0300 f   libsmpegx:MPEGring.obj
 0001:000a0020       ?NextReadBuffer@MPEG_ring@@QAEIPAPAE@Z 004a03e0 f   libsmpegx:MPEGring.obj
 0001:000a0090       ?ReadTimeStamp@MPEG_ring@@QAENXZ 004a0450 f   libsmpegx:MPEGring.obj
 0001:000a00c0       ?ReadSome@MPEG_ring@@QAEXI@Z 004a0480 f   libsmpegx:MPEGring.obj
 0001:000a0140       ?ReadDone@MPEG_ring@@QAEXXZ 004a0500 f   libsmpegx:MPEGring.obj
 0001:000a01e0       ??0MPEGlist@@QAE@XZ        004a05a0 f   libsmpegx:MPEGlist.obj
 0001:000a0230       ??1MPEGlist@@QAE@XZ        004a05f0 f   libsmpegx:MPEGlist.obj
 0001:000a02a0       ?Alloc@MPEGlist@@QAEPAV1@I@Z 004a0660 f   libsmpegx:MPEGlist.obj
 0001:000a03a0       ?Lock@MPEGlist@@QAEXXZ     004a0760 f   libsmpegx:MPEGlist.obj
 0001:000a03c0       ?Unlock@MPEGlist@@QAEXXZ   004a0780 f   libsmpegx:MPEGlist.obj
 0001:000a03f0       ?timeSync@MPEGvideo@@QAEHPAUvid_stream@@@Z 004a07b0 f   libsmpegx:gdith.obj
 0001:000a0780       ?CurrentTime@@YANPAUvid_stream@@@Z 004a0b40 f i libsmpegx:gdith.obj
 0001:000a07e0       ?DisplayFrame@MPEGvideo@@QAEXPAUvid_stream@@@Z 004a0ba0 f   libsmpegx:gdith.obj
 0001:000a0b70       ?ExecuteDisplay@MPEGvideo@@QAEXPAUvid_stream@@@Z 004a0f30 f   libsmpegx:gdith.obj
 0001:000a0bb0       ?Filter@MPEGvideo@@UAEPAUSMPEG_Filter@@PAU2@@Z 004a0f70 f   libsmpegx:gdith.obj
 0001:000a0c20       _SMPEGfilter_null          004a0fe0 f   libsmpegx:MPEGfilter.obj
 0001:000a0e70       ?ReadSysClock@@YANXZ       004a1230 f   libsmpegx:video.obj
 0001:000a0ea0       ?InitIDCT@@YAXXZ           004a1260 f   libsmpegx:parseblock.obj
 0001:000a0ea0       ?InitCrop@@YAXXZ           004a1260 f   libsmpegx:video.obj
 0001:000a0eb0       ?NewVidStream@@YAPAUvid_stream@@I@Z 004a1270 f   libsmpegx:video.obj
 0001:000a1190       ?ResetVidStream@@YAXPAUvid_stream@@@Z 004a1550 f   libsmpegx:video.obj
 0001:000a12b0       ?DestroyVidStream@@YAXPAUvid_stream@@@Z 004a1670 f   libsmpegx:video.obj
 0001:000a1450       ?NewPictImage@@YAPAUpict_image@@PAUvid_stream@@HHPAUSDL_Surface@@@Z 004a1810 f   libsmpegx:video.obj
 0001:000a1500       ?InitPictImages@@YA_NPAUvid_stream@@HHPAUSDL_Surface@@@Z 004a18c0 f   libsmpegx:video.obj
 0001:000a15b0       ?DestroyPictImage@@YAXPAUvid_stream@@PAUpict_image@@@Z 004a1970 f   libsmpegx:video.obj
 0001:000a15f0       ?mpegVidRsrc@@YAPAUvid_stream@@NPAU1@H@Z 004a19b0 f   libsmpegx:video.obj
 0001:000ad720       ?ParseReconBlock@@YAXHPAUvid_stream@@@Z 004adae0 f   libsmpegx:parseblock.obj
 0001:000af1a0       ?decodeInitTables@@YAXXZ   004af560 f   libsmpegx:decoders.obj
 0001:000b0470       ?getbits@Mpegbitwindow@@QAEHH@Z 004b0830 f   libsmpegx:bitwindow.obj
 0001:000b0560       ?computebuffer@MPEGaudio@@AAEXPAMQAY0CAA@M@Z 004b0920 f   libsmpegx:filter.obj
 0001:000b1460       ?generatesingle@MPEGaudio@@AAEXXZ 004b1820 f   libsmpegx:filter.obj
 0001:000b3f10       ?generate@MPEGaudio@@AAEXXZ 004b42d0 f   libsmpegx:filter.obj
 0001:000b8900       ?subbandsynthesis@MPEGaudio@@AAEXPAM0@Z 004b8cc0 f   libsmpegx:filter.obj
 0001:000b89c0       ?init_pre_idct@@YAXXZ      004b8d80 f   libsmpegx:jrevdct.obj
 0001:000b8a30       ?j_rev_dct_sparse@@YAXQAFH@Z 004b8df0 f   libsmpegx:jrevdct.obj
 0001:000b8bf0       ?j_rev_dct@@YAXQAF@Z       004b8fb0 f   libsmpegx:jrevdct.obj
 0001:000ba870       ?correct_underflow@@YAXPAUvid_stream@@@Z 004bac30 f   libsmpegx:util.obj
 0001:000ba920       ?next_bits@@YAHHIPAUvid_stream@@@Z 004bace0 f   libsmpegx:util.obj
 0001:000ba9f0       ?get_ext_data@@YAPADPAUvid_stream@@@Z 004badb0 f   libsmpegx:util.obj
 0001:000baba0       ?next_start_code@@YAHPAUvid_stream@@@Z 004baf60 f   libsmpegx:util.obj
 0001:000bafe0       ?get_extra_bit_info@@YAPADPAUvid_stream@@@Z 004bb3a0 f   libsmpegx:util.obj
 0001:000bb2f0       ?ComputeForwVector@@YAXPAH0PAUvid_stream@@@Z 004bb6b0 f   libsmpegx:motionvector.obj
 0001:000bb4f0       ?ComputeBackVector@@YAXPAH0PAUvid_stream@@@Z 004bb8b0 f   libsmpegx:motionvector.obj
 0001:000bb6f0       ?computebuffer_2@MPEGaudio@@AAEXPAMQAY0CAA@M@Z 004bbab0 f   libsmpegx:filter_2.obj
 0001:000bc4c0       ?generatesingle_2@MPEGaudio@@AAEXXZ 004bc880 f   libsmpegx:filter_2.obj
 0001:000bf090       ?generate_2@MPEGaudio@@AAEXXZ 004bf450 f   libsmpegx:filter_2.obj
 0001:000c3c30       ?subbandsynthesis_2@MPEGaudio@@AAEXPAM0@Z 004c3ff0 f   libsmpegx:filter_2.obj
 0001:000c3cd0       ?get_more_data@@YAHPAUvid_stream@@@Z 004c4090 f   libsmpegx:readfile.obj
 0001:000c3f1b       _XLaunchNewImageA@8        004c42db f   xapilib:launch.obj
 0001:000c3f5d       _XWriteTitleInfoNoReboot@24 004c431d f   xapilib:launch.obj
 0001:000c403e       _XWriteTitleInfoAndRebootA@20 004c43fe f   xapilib:launch.obj
 0001:000c4085       _mainXapiStartup@4         004c4445 f   xapilib:xapi0.obj
 0001:000c40f9       _mainCRTStartup            004c44b9 f   xapilib:xapi0.obj
 0001:000c416b       _GetTickCount@0            004c452b f   xapilib:datetime.obj
 0001:000c4173       _QueryPerformanceCounter@4 004c4533 f   xapilib:perfctr.obj
 0001:000c4184       _QueryPerformanceFrequency@4 004c4544 f   xapilib:perfctr.obj
 0001:000c4198       _CreateSemaphoreA@16       004c4558 f   xapilib:synch.obj
 0001:000c41f3       _ReleaseSemaphore@12       004c45b3 f   xapilib:synch.obj
 0001:000c4219       _CreateMutexA@12           004c45d9 f   xapilib:synch.obj
 0001:000c4271       _ReleaseMutex@4            004c4631 f   xapilib:synch.obj
 0001:000c4291       _WaitForSingleObjectEx@12  004c4651 f   xapilib:synch.obj
 0001:000c42d5       _SleepEx@8                 004c4695 f   xapilib:synch.obj
 0001:000c4327       _WaitForSingleObject@8     004c46e7 f   xapilib:synch.obj
 0001:000c4339       _Sleep@4                   004c46f9 f   xapilib:synch.obj
 0001:000c4347       _XapiMmTimerThread@4       004c4707 f   xapilib:mmtimer.obj
 0001:000c452f       _timeSetEvent@20           004c48ef f   xapilib:mmtimer.obj
 0001:000c4653       _timeKillEvent@4           004c4a13 f   xapilib:mmtimer.obj
 0001:000c46c2       _XGetVideoStandard@0       004c4a82 f   xapilib:xgetvideostandard.obj
 0001:000c46eb       _XGetVideoFlags@0          004c4aab f   xapilib:xgetvideoflags.obj
 0001:000c4734       _CloseHandle@4             004c4af4 f   xapilib:handle.obj
 0001:000c4752       _XapiCallThreadNotifyRoutines@4 004c4b12 f   xapilib:thread.obj
 0001:000c478a       _SetThreadPriority@8       004c4b4a f   xapilib:thread.obj
 0001:000c47dc       _RaiseException@16         004c4b9c f   xapilib:thread.obj
 0001:000c4832       _SetUnhandledExceptionFilter@4 004c4bf2 f   xapilib:thread.obj
 0001:000c4844       _XRegisterThreadNotifyRoutine@8 004c4c04 f   xapilib:thread.obj
 0001:000c488d       _UnhandledExceptionFilter@4 004c4c4d f   xapilib:thread.obj
 0001:000c48c9       _XapiThreadStartup@8       004c4c89 f   xapilib:thread.obj
 0001:000c4961       _CreateThread@24           004c4d21 f   xapilib:thread.obj
 0001:000c49cf       _GetCurrentThreadId@0      004c4d8f f   xapilib:thread.obj
 0001:000c49dc       _XAutoPowerDownResetTimer@0 004c4d9c f   xapilib:powerdwn.obj
 0001:000c49f7       _XapiAutoPowerDownTimeout@16 004c4db7 f   xapilib:powerdwn.obj
 0001:000c4a09       _XapiInitAutoPowerDown@0   004c4dc9 f   xapilib:powerdwn.obj
 0001:000c4a7d       _ReadFile@20               004c4e3d f   xapilib:filehops.obj
 0001:000c4b6a       _WriteFile@20              004c4f2a f   xapilib:filehops.obj
 0001:000c4c40       _SetEndOfFile@4            004c5000 f   xapilib:filehops.obj
 0001:000c4cc4       _SetFilePointer@16         004c5084 f   xapilib:filehops.obj
 0001:000c4dbe       _SetFilePointerEx@20       004c517e f   xapilib:filehops.obj
 0001:000c4e86       _FlushFileBuffers@4        004c5246 f   xapilib:filehops.obj
 0001:000c4ead       _DeviceIoControl@32        004c526d f   xapilib:filehops.obj
 0001:000c4fab       _BuildUpdateFilePath@12    004c536b f   xapilib:bootutil.obj
 0001:000c4ff5       _XoUpdateLoadXBEInfo@8     004c53b5 f   xapilib:bootutil.obj
 0001:000c50c1       _XoUpdateGetSavedDataFromLaunchPage@12 004c5481 f   xapilib:bootutil.obj
 0001:000c5125       _XapipUpdateGetCurrentDDriveMapping@8 004c54e5 f   xapilib:bootutil.obj
 0001:000c51b7       _XapipUpdateSaveDDriveMappingToLaunchPage@8 004c5577 f   xapilib:bootutil.obj
 0001:000c5238       _XapipUpdateDetectAndVerify@16 004c55f8 f   xapilib:bootutil.obj
 0001:000c53ba       _XapipLaunchNewImageInternal@16 004c577a f   xapilib:bootutil.obj
 0001:000c553b       _XapipUpdateRebootIfNecessary@0 004c58fb f   xapilib:bootutil.obj
 0001:000c56a0       _lstrcpynA@12              004c5a60 f   xapilib:lcompata.obj
 0001:000c5705       _XapiValidateDiskPartitionEx@8 004c5ac5 f   xapilib:xapiinit.obj
 0001:000c577d       _XapiCopySectionToFile@16  004c5b3d f   xapilib:xapiinit.obj
 0001:000c5864       _XapiMapLetterToDirectory@24 004c5c24 f   xapilib:xapiinit.obj
 0001:000c5b98       _XapiSetupPerTitleDriveLetters@8 004c5f58 f   xapilib:xapiinit.obj
 0001:000c5bed       _XapiBootToDash@12         004c5fad f   xapilib:xapiinit.obj
 0001:000c5c52       _XapiValidateDiskPartition@4 004c6012 f   xapilib:xapiinit.obj
 0001:000c5c63       _XapiInitProcess@0         004c6023 f   xapilib:xapiinit.obj
 0001:000c5dd2       __cinit@0                  004c6192 f   xapilib:xapi0dat.obj
 0001:000c5e2a       __rtinit@0                 004c61ea f   xapilib:xapi0dat.obj
 0001:000c5e53       _GetLastError@0            004c6213 f   xapilib:error.obj
 0001:000c5e7b       _SetLastError@4            004c623b f   xapilib:error.obj
 0001:000c5ea9       _XapiSetLastNTError@4      004c6269 f   xapilib:error.obj
 0001:000c5ec0       _XapiRestrictCodeSelectorLimit@0 004c6280 f   xapilib:krnlptch.obj
 0001:000c5f24       _XapiApplyKernelPatches@0  004c62e4 f   xapilib:krnlptch.obj
 0001:000c5fea       _XQueryValue@20            004c63aa f   xapilib:xqueryvalue.obj
 0001:000c600c       _XapiFormatObjectAttributes@12 004c63cc f   xapilib:support.obj
 0001:000c6034       _XapiFormatTimeOut@8       004c63f4 f   xapilib:support.obj
 0001:000c6062       _XGetAVPack@0              004c6422 f   xapilib:xgetavpack.obj
 0001:000c606a       _CreateFileA@28            004c642a f   xapilib:fileopcr.obj
 0001:000c61f5       _XComputeContentSignatureKey@8 004c65b5 f   xapilib:contsig.obj
 0001:000c6214       _XapiComputeContentHeaderSignature@16 004c65d4 f   xapilib:contsig.obj
 0001:000c62f9       _XapiLoadContentMetadataHeader@16 004c66b9 f   xapilib:contsig.obj
 0001:000c63da       _XGetSectionHandleA@4      004c679a f   xapilib:xemodule.obj
 0001:000c6441       _XLoadSectionByHandle@4    004c6801 f   xapilib:xemodule.obj
 0001:000c6462       _XFreeSectionByHandle@4    004c6822 f   xapilib:xemodule.obj
 0001:000c6480       _XGetSectionSize@4         004c6840 f   xapilib:xemodule.obj
 0001:000c648a       _XGetParentalControlSetting@0 004c684a f   xapilib:xgetparentalcontrolsetting.obj
 0001:000c64af       _GetDiskFreeSpaceExA@16    004c686f f   xapilib:pathmisc.obj
 0001:000c65a3       _XapiSelectCachePartition@12 004c6963 f   xapilib:pathmisc.obj
 0001:000c67ee       _XMountUtilityDrive@4      004c6bae f   xapilib:pathmisc.obj
 0001:000c68f3       _HeapFree@12               004c6cb3 f   xapilib:xapiheap.obj
 0001:000c690a       _GetProcessHeap@0          004c6cca f   xapilib:xapiheap.obj
 0001:000c6910       _LocalAlloc@8              004c6cd0 f   xapilib:xapiheap.obj
 0001:000c692d       _LocalFree@4               004c6ced f   xapilib:xapiheap.obj
 0001:000c694b       _RtlpCreateUnCommittedRange@4 004c6d0b f   xapilib:heap.obj
 0001:000c6a6b       _RtlpDestroyUnCommittedRange@8 004c6e2b f   xapilib:heap.obj
 0001:000c6a8c       _RtlpInsertUnCommittedPages@12 004c6e4c f   xapilib:heap.obj
 0001:000c6b1f       _RtlpFindAndCommitPages@16 004c6edf f   xapilib:heap.obj
 0001:000c6caa       _RtlpCoalesceFreeBlocks@16 004c706a f   xapilib:heap.obj
 0001:000c6f4f       _RtlpInsertFreeBlock@12    004c730f f   xapilib:heap.obj
 0001:000c7049       _RtlpGetExtraStuffPointer@4 004c7409 f   xapilib:heap.obj
 0001:000c7065       _RtlpGrowBlockInPlace@20   004c7425 f   xapilib:heap.obj
 0001:000c7463       _RtlSizeHeap@12            004c7823 f   xapilib:heap.obj
 0001:000c7492       _RtlpInitializeHeapSegment@28 004c7852 f   xapilib:heap.obj
 0001:000c75b0       _RtlpExtendHeap@8          004c7970 f   xapilib:heap.obj
 0001:000c7737       _RtlpDeCommitFreeBlock@12  004c7af7 f   xapilib:heap.obj
 0001:000c79e1       _RtlCreateHeap@24          004c7da1 f   xapilib:heap.obj
 0001:000c7e05       _RtlAllocateHeap@12        004c81c5 f   xapilib:heap.obj
 0001:000c8580       _RtlFreeHeap@12            004c8940 f   xapilib:heap.obj
 0001:000c8774       _RtlReAllocateHeap@16      004c8b34 f   xapilib:heap.obj
 0001:000c8ea2       _XapiShutdownChannelStartNextPacket@0 004c9262 f   xapilib:xapiterm.obj
 0001:000c8ebb       _XapiShutdownChannelStartPacket@8 004c927b f   xapilib:xapiterm.obj
 0001:000c8ebe       _XapiShutdownNotification@4 004c927e f   xapilib:xapiterm.obj
 0001:000c8f14       _XapiChangeCodeSelectorLimit@8 004c92d4 f   xapilib:xapidlla.obj
 0001:000c8f39       _XShaHmacInitialize@12     004c92f9 f   xapilib:xcalcsig.obj
 0001:000c8f9b       _XShaHmacUpdate@12         004c935b f   xapilib:xcalcsig.obj
 0001:000c8fa0       _XShaHmacComputeFinal@16   004c9360 f   xapilib:xcalcsig.obj
 0001:000c9012       _XMemAlloc@8               004c93d2 f   xapilib:xmem.obj
 0001:000c90b2       _XMemFree@8                004c9472 f   xapilib:xmem.obj
 0001:000c90cc       _XapiFormatFATVolumeEx@8   004c948c f   xapilib:format.obj
 0001:000c93f0       @RtlFindFirstSetRightMember@4 004c97b0 f   xapilib:bitmapa.obj
 0001:000c93f4       _XPhysicalAlloc@16         004c97b4 f   xapilib:physical.obj
 0001:000c9437       _XPhysicalAllocEx@20       004c97f7 f   xapilib:physical.obj
 0001:000c9464       _XPhysicalFree@4           004c9824 f   xapilib:physical.obj
 0001:000c946a       ??_ECMcpxAPU@DirectSound@@W7AEPAXI@Z 004c982a f i dsound:mcpapu.obj
 0001:000c9472       _HalWriteSMBusValue@16     004c9832 f   xboxkrnl:xboxkrnl.exe
 0001:000c9478       _ExQueryNonVolatileSetting@20 004c9838 f   xboxkrnl:xboxkrnl.exe
 0001:000c947e       _XcSHAFinal@8              004c983e f   xboxkrnl:xboxkrnl.exe
 0001:000c9484       _XcSHAUpdate@12            004c9844 f   xboxkrnl:xboxkrnl.exe
 0001:000c948a       _XcSHAInit@4               004c984a f   xboxkrnl:xboxkrnl.exe
 0001:000c9490       _XcHMAC@28                 004c9850 f   xboxkrnl:xboxkrnl.exe
 0001:000c9496       _DbgPrint                  004c9856 f   xboxkrnl:xboxkrnl.exe
 0001:000c949c       ??2@YAPAXI@Z               004c985c f   libcpmt:newop.obj
 0001:000c94c0       ??_Gout_of_range@std@@UAEPAXI@Z 004c9880 f i libcpmt:string.obj
 0001:000c94c0       ??_Eout_of_range@std@@UAEPAXI@Z 004c9880 f i libcpmt:string.obj
 0001:000c94dc       ??1out_of_range@std@@UAE@XZ 004c989c f i libcpmt:string.obj
 0001:000c94e7       ?_Xran@_String_base@std@@QBEXXZ 004c98a7 f   libcpmt:string.obj
 0001:000c9527       ??0out_of_range@std@@QAE@ABV01@@Z 004c98e7 f i libcpmt:string.obj
 0001:000c953f       ?_Xlen@_String_base@std@@QBEXXZ 004c98ff f   libcpmt:string.obj
 0001:000c957f       ??_U@YAPAXI@Z              004c993f f   libcpmt:newaop.obj
 0001:000c9584       ??1bad_alloc@std@@UAE@XZ   004c9944 f i libcpmt:nomemory.obj
 0001:000c958f       ??_Gbad_alloc@std@@UAEPAXI@Z 004c994f f i libcpmt:nomemory.obj
 0001:000c958f       ??_Ebad_alloc@std@@UAEPAXI@Z 004c994f f i libcpmt:nomemory.obj
 0001:000c95ab       ??0bad_alloc@std@@QAE@ABV01@@Z 004c996b f i libcpmt:nomemory.obj
 0001:000c95c3       ?_Nomemory@std@@YAXXZ      004c9983 f   libcpmt:nomemory.obj
 0001:000c9624       __fpclear                  004c99e4 f   LIBCMT:fpinit.obj
 0001:000c9625       __cfltcvt_init             004c99e5 f   LIBCMT:fpinit.obj
 0001:000c965d       __fpmath                   004c9a1d f   LIBCMT:fpinit.obj
 0001:000c9680       _memmove                   004c9a40 f   LIBCMT:memmove.obj
 0001:000c99bd       ??3@YAXPAX@Z               004c9d7d f   LIBCMT:delete.obj
 0001:000c99c2       ?_JumpToContinuation@@YGXPAXPAUEHRegistrationNode@@@Z 004c9d82 f   LIBCMT:trnsctrl.obj
 0001:000c99f2       ?_CallMemberFunction2@@YGXPAX00H@Z 004c9db2 f   LIBCMT:trnsctrl.obj
 0001:000c99f2       ?_CallMemberFunction1@@YGXPAX00@Z 004c9db2 f   LIBCMT:trnsctrl.obj
 0001:000c99f2       ?_CallMemberFunction0@@YGXPAX0@Z 004c9db2 f   LIBCMT:trnsctrl.obj
 0001:000c99f9       ?_UnwindNestedFrames@@YGXPAUEHRegistrationNode@@PAUEHExceptionRecord@@@Z 004c9db9 f   LIBCMT:trnsctrl.obj
 0001:000c9a4b       ___CxxFrameHandler         004c9e0b f   LIBCMT:trnsctrl.obj
 0001:000c9abc       ?_CallSETranslator@@YAHPAUEHExceptionRecord@@PAUEHRegistrationNode@@PAX2PBU_s_FuncInfo@@H1@Z 004c9e7c f   LIBCMT:trnsctrl.obj
 0001:000c9c35       ?_GetRangeOfTrysToCheck@@YAPBU_s_TryBlockMapEntry@@PBU_s_FuncInfo@@HHPAI1@Z 004c9ff5 f   LIBCMT:trnsctrl.obj
 0001:000c9caf       ?_CreateFrameInfo@@YAPAUFrameInfo@@PAU1@PAX@Z 004ca06f f   LIBCMT:trnsctrl.obj
 0001:000c9cd7       ?IsExceptionObjectToBeDestroyed@@YAHPAX@Z 004ca097 f   LIBCMT:trnsctrl.obj
 0001:000c9cf8       ?_FindAndUnlinkFrame@@YAXPAUFrameInfo@@@Z 004ca0b8 f   LIBCMT:trnsctrl.obj
 0001:000c9d44       ?_CallCatchBlock2@@YAPAXPAUEHRegistrationNode@@PBU_s_FuncInfo@@PAXHK@Z 004ca104 f   LIBCMT:trnsctrl.obj
 0001:000c9da0       __global_unwind2           004ca160 f   LIBCMT:exsup.obj
 0001:000c9de2       __local_unwind2            004ca1a2 f   LIBCMT:exsup.obj
 0001:000c9e3a       __NLG_Return2              004ca1fa     LIBCMT:exsup.obj
 0001:000c9e4a       __abnormal_termination     004ca20a f   LIBCMT:exsup.obj
 0001:000c9e6d       __NLG_Notify1              004ca22d f   LIBCMT:exsup.obj
 0001:000c9e76       __NLG_Notify               004ca236 f   LIBCMT:exsup.obj
 0001:000c9e89       __NLG_Dispatch             004ca249     LIBCMT:exsup.obj
 0001:000c9e8e       __CxxThrowException@8      004ca24e f   LIBCMT:throw.obj
 0001:000c9ec7       ??0exception@@QAE@XZ       004ca287 f   LIBCMT:stdexcpt.obj
 0001:000c9ed8       ??0exception@@QAE@ABQBD@Z  004ca298 f   LIBCMT:stdexcpt.obj
 0001:000c9f1d       ??0exception@@QAE@ABV0@@Z  004ca2dd f   LIBCMT:stdexcpt.obj
 0001:000c9f6c       ??1exception@@UAE@XZ       004ca32c f   LIBCMT:stdexcpt.obj
 0001:000c9f82       ?what@exception@@UBEPBDXZ  004ca342 f   LIBCMT:stdexcpt.obj
 0001:000c9f8f       ??_Gexception@@UAEPAXI@Z   004ca34f f i LIBCMT:stdexcpt.obj
 0001:000c9f8f       ??_Eexception@@UAEPAXI@Z   004ca34f f i LIBCMT:stdexcpt.obj
 0001:000c9fab       ??1type_info@@UAE@XZ       004ca36b f   LIBCMT:typinfo.obj
 0001:000c9ff1       ??_Gtype_info@@UAEPAXI@Z   004ca3b1 f i LIBCMT:typinfo.obj
 0001:000c9ff1       ??_Etype_info@@UAEPAXI@Z   004ca3b1 f i LIBCMT:typinfo.obj
 0001:000ca00d       __purecall                 004ca3cd f   LIBCMT:purevirt.obj
 0001:000ca021       _printf                    004ca3e1 f   LIBCMT:printf.obj
 0001:000ca0b7       @__security_check_cookie@4 004ca477 f   LIBCMT:secchk.obj
 0001:000ca0c5       ??_V@YAXPAX@Z              004ca485 f   LIBCMT:delete2.obj
 0001:000ca0ca       __fclose_lk                004ca48a f   LIBCMT:fclose.obj
 0001:000ca116       _fclose                    004ca4d6 f   LIBCMT:fclose.obj
 0001:000ca167       _fgetc                     004ca527 f   LIBCMT:fgetc.obj
 0001:000ca1b7       _sprintf                   004ca577 f   LIBCMT:sprintf.obj
 0001:000ca20f       __fsopen                   004ca5cf f   LIBCMT:fopen.obj
 0001:000ca26b       _fopen                     004ca62b f   LIBCMT:fopen.obj
 0001:000ca27e       ?__ArrayUnwind@@YGXPAXIHP6EX0@Z@Z 004ca63e f   LIBCMT:ehvecdtr.obj
 0001:000ca2dc       ??_M@YGXPAXIHP6EX0@Z@Z     004ca69c f   LIBCMT:ehvecdtr.obj
 0001:000ca33c       ??_L@YGXPAXIHP6EX0@Z1@Z    004ca6fc f   LIBCMT:ehvecctr.obj
 0001:000ca3a0       __ftol2                    004ca760 f   LIBCMT:ftol2.obj
 0001:000ca415       __lockexit                 004ca7d5 f   LIBCMT:crt0dat.obj
 0001:000ca41e       __unlockexit               004ca7de f   LIBCMT:crt0dat.obj
 0001:000ca4eb       _exit                      004ca8ab f   LIBCMT:crt0dat.obj
 0001:000ca4f7       __exit                     004ca8b7 f   LIBCMT:crt0dat.obj
 0001:000ca503       __flush                    004ca8c3 f   LIBCMT:fflush.obj
 0001:000ca560       __fflush_lk                004ca920 f   LIBCMT:fflush.obj
 0001:000ca663       _fflush                    004caa23 f   LIBCMT:fflush.obj
 0001:000ca6b3       __flushall                 004caa73 f   LIBCMT:fflush.obj
 0001:000ca6bc       ___initstdio               004caa7c f   LIBCMT:_file.obj
 0001:000ca765       ___endstdio                004cab25 f   LIBCMT:_file.obj
 0001:000ca779       __lock_file                004cab39 f   LIBCMT:_file.obj
 0001:000ca7a8       __lock_file2               004cab68 f   LIBCMT:_file.obj
 0001:000ca7cb       __unlock_file              004cab8b f   LIBCMT:_file.obj
 0001:000ca7fa       __unlock_file2             004cabba f   LIBCMT:_file.obj
 0001:000ca81d       _fscanf                    004cabdd f   LIBCMT:fscanf.obj
 0001:000ca8e7       ___onexitinit              004caca7 f   LIBCMT:onexit.obj
 0001:000ca90f       __onexit                   004caccf f   LIBCMT:onexit.obj
 0001:000ca947       _atexit                    004cad07 f   LIBCMT:onexit.obj
 0001:000ca960       __alldiv                   004cad20 f   LIBCMT:lldiv.obj
 0001:000caa10       __allmul                   004cadd0 f   LIBCMT:llmul.obj
 0001:000caa44       _free                      004cae04 f   LIBCMT:free.obj
 0001:000caa9c       __heap_alloc               004cae5c f   LIBCMT:malloc.obj
 0001:000caac3       __nh_malloc                004cae83 f   LIBCMT:malloc.obj
 0001:000caaef       _malloc                    004caeaf f   LIBCMT:malloc.obj
 0001:000cab01       _realloc                   004caec1 f   LIBCMT:realloc.obj
 0001:000cabf0       _strncpy                   004cafb0 f   LIBCMT:strncpy.obj
 0001:000cad20       _strncmp                   004cb0e0 f   LIBCMT:strncmp.obj
 0001:000cad59       _toupper                   004cb119 f   LIBCMT:toupper.obj
 0001:000cad90       _strrchr                   004cb150 f   LIBCMT:strrchr.obj
 0001:000cadbd       __fread_lk                 004cb17d f   LIBCMT:fread.obj
 0001:000caeb5       _fread                     004cb275 f   LIBCMT:fread.obj
 0001:000caf01       __ftell_lk                 004cb2c1 f   LIBCMT:ftell.obj
 0001:000cb063       _ftell                     004cb423 f   LIBCMT:ftell.obj
 0001:000cb0a4       __fseek_lk                 004cb464 f   LIBCMT:fseek.obj
 0001:000cb133       _fseek                     004cb4f3 f   LIBCMT:fseek.obj
 0001:000cb17c       __fwrite_lk                004cb53c f   LIBCMT:fwrite.obj
 0001:000cb293       _fwrite                    004cb653 f   LIBCMT:fwrite.obj
 0001:000cb2df       _fprintf                   004cb69f f   LIBCMT:fprintf.obj
 0001:000cb33d       _clearerr                  004cb6fd f   LIBCMT:clearerr.obj
 0001:000cb3b0       __chkstk                   004cb770 f   LIBCMT:chkstk.obj
 0001:000cb3b0       __alloca_probe             004cb770     LIBCMT:chkstk.obj
 0001:000cb410       _strchr                    004cb7d0 f   LIBCMT:strchr.obj
 0001:000cb416       ___from_strstr_to_strchr   004cb7d6     LIBCMT:strchr.obj
 0001:000cb4ce       _atol                      004cb88e f   LIBCMT:atox.obj
 0001:000cb526       _atoi                      004cb8e6 f   LIBCMT:atox.obj
 0001:000cb52b       _strtok                    004cb8eb f   LIBCMT:strtok.obj
 0001:000cb5d0       _fgets                     004cb990 f   LIBCMT:fgets.obj
 0001:000cb656       _rand                      004cba16 f   LIBCMT:rand.obj
 0001:000cb680       _strstr                    004cba40 f   LIBCMT:strstr.obj
 0001:000cb706       __errno                    004cbac6 f   LIBCMT:dosmap.obj
 0001:000cb70f       ___doserrno                004cbacf f   LIBCMT:dosmap.obj
 0001:000cb718       __dosmaperr                004cbad8 f   LIBCMT:dosmap.obj
 0001:000cb78b       _calloc                    004cbb4b f   LIBCMT:calloc.obj
 0001:000cb7d8       _floor                     004cbb98 f   LIBCMT:floor.obj
 0001:000cb8ab       _strerror                  004cbc6b f   LIBCMT:strerror.obj
 0001:000cb8fc       _isdigit                   004cbcbc f   LIBCMT:_ctype.obj
 0001:000cb925       _isxdigit                  004cbce5 f   LIBCMT:_ctype.obj
 0001:000cb953       _isspace                   004cbd13 f   LIBCMT:_ctype.obj
 0001:000cb97c       _isalnum                   004cbd3c f   LIBCMT:_ctype.obj
 0001:000cb9b0       __allshr                   004cbd70 f   LIBCMT:llshr.obj
 0001:000cb9e0       _memchr                    004cbda0 f   LIBCMT:memchr.obj
 0001:000cba8d       _perror                    004cbe4d f   LIBCMT:perror.obj
 0001:000cbb4a       _vsprintf                  004cbf0a f   LIBCMT:vsprintf.obj
 0001:000cbba1       _ceil                      004cbf61 f   LIBCMT:ceil.obj
 0001:000cbcf0       _qsort                     004cc0b0 f   LIBCMT:qsort.obj
 0001:000cbf73       _ldexp                     004cc333 f   LIBCMT:ldexp.obj
 0001:000cc120       _pow                       004cc4e0 f   LIBCMT:pow.obj
 0001:000cc124       __CIpow                    004cc4e4 f   LIBCMT:pow.obj
 0001:000cc126       __CIpow_default            004cc4e6 f   LIBCMT:pow.obj
 0001:000cc13f       __pow_default              004cc4ff     LIBCMT:pow.obj
 0001:000cc335       _frexp                     004cc6f5 f   LIBCMT:frexp.obj
 0001:000cc3e4       __CIacos                   004cc7a4 f   LIBCMT:acos.obj
 0001:000cc3f8       _acos                      004cc7b8     LIBCMT:acos.obj
 0001:000cc4b0       __setjmp3                  004cc870 f   LIBCMT:setjmp3.obj
 0001:000cc52c       _longjmp                   004cc8ec f   LIBCMT:longjmp.obj
 0001:000cc74e       _strtol                    004ccb0e f   LIBCMT:strtol.obj
 0001:000cc765       _strtoul                   004ccb25 f   LIBCMT:strtol.obj
 0001:000cc77c       _sscanf                    004ccb3c f   LIBCMT:sscanf.obj
 0001:000cc863       _tmpfile                   004ccc23 f   LIBCMT:tmpfile.obj
 0001:000cc980       _memset                    004ccd40 f   LIBCMT:memset.obj
 0001:000cc9e0       _memcpy                    004ccda0 f   LIBCMT:memcpy.obj
 0001:000ccd20       __CIcos                    004cd0e0 f   LIBCMT:cos.obj
 0001:000ccd34       _cos                       004cd0f4     LIBCMT:cos.obj
 0001:000ccdce       _fabs                      004cd18e f   LIBCMT:fabs.obj
 0001:000cce80       __CIsqrt                   004cd240 f   LIBCMT:sqrt.obj
 0001:000cce94       _sqrt                      004cd254     LIBCMT:sqrt.obj
 0001:000ccf3c       __CIsin                    004cd2fc f   LIBCMT:sin.obj
 0001:000ccf50       _sin                       004cd310     LIBCMT:sin.obj
 0001:000ccfec       __SEH_prolog               004cd3ac f   LIBCMT:sehprolg.obj
 0001:000cd027       __SEH_epilog               004cd3e7 f   LIBCMT:sehprolg.obj
 0001:000cd040       __except_handler3          004cd400 f   LIBCMT:exsup3.obj
 0001:000cd112       __seh_longjmp_unwind@4     004cd4d2 f   LIBCMT:exsup3.obj
 0001:000cd130       __aulldiv                  004cd4f0 f   LIBCMT:ulldiv.obj
 0001:000cd198       __snprintf                 004cd558 f   LIBCMT:snprintf.obj
 0001:000cd1ef       __strnicmp                 004cd5af f   LIBCMT:strnicmp.obj
 0001:000cd244       __snwprintf                004cd604 f   LIBCMT:snwprint.obj
 0001:000cd2b4       __vsnprintf                004cd674 f   LIBCMT:vsnprint.obj
 0001:000cd30c       _sinh                      004cd6cc f   LIBCMT:87ctrigh.obj
 0001:000cd316       _cosh                      004cd6d6 f   LIBCMT:87ctrigh.obj
 0001:000cd31d       _tanh                      004cd6dd f   LIBCMT:87ctrigh.obj
 0001:000cd324       __CIsinh                   004cd6e4 f   LIBCMT:87ctrigh.obj
 0001:000cd32e       __CIcosh                   004cd6ee f   LIBCMT:87ctrigh.obj
 0001:000cd335       __CItanh                   004cd6f5 f   LIBCMT:87ctrigh.obj
 0001:000cd33c       __copysign                 004cd6fc f   LIBCMT:ieeemisc.obj
 0001:000cd35d       __fpclass                  004cd71d f   LIBCMT:ieeemisc.obj
 0001:000cd3f9       __callnewh                 004cd7b9 f   LIBCMT:handler.obj
 0001:000cd414       __EH_prolog                004cd7d4 f   LIBCMT:ehprolog.obj
 0001:000cd433       __forcdecpt                004cd7f3 f   LIBCMT:cvt.obj
 0001:000cd48b       __cropzeros                004cd84b f   LIBCMT:cvt.obj
 0001:000cd4d6       __positive                 004cd896 f   LIBCMT:cvt.obj
 0001:000cd4f0       __fassign                  004cd8b0 f   LIBCMT:cvt.obj
 0001:000cd5fa       __cftoe                    004cd9ba f   LIBCMT:cvt.obj
 0001:000cd6ff       __cftof                    004cdabf f   LIBCMT:cvt.obj
 0001:000cd751       __cftog                    004cdb11 f   LIBCMT:cvt.obj
 0001:000cd7de       __cfltcvt                  004cdb9e f   LIBCMT:cvt.obj
 0001:000cd82f       __setdefaultprecision      004cdbef f   LIBCMT:fp8.obj
 0001:000cd8d1       ___FrameUnwindToState      004cdc91 f   LIBCMT:frame.obj
 0001:000cd99f       ___DestructExceptionObject 004cdd5f f   LIBCMT:frame.obj
 0001:000ce02a       ___InternalCxxFrameHandler 004ce3ea f   LIBCMT:frame.obj
 0001:000ce0cc       __getptd                   004ce48c f   LIBCMT:tidtable.obj
 0001:000ce14e       __freefls@4                004ce50e f   LIBCMT:tidtable.obj
 0001:000ce217       __freeptd                  004ce5d7 f   LIBCMT:tidtable.obj
 0001:000ce269       __mtinit                   004ce629 f   LIBCMT:tidtable.obj
 0001:000ce2dc       ?terminate@@YAXXZ          004ce69c f   LIBCMT:hooks.obj
 0001:000ce318       ?_inconsistency@@YAXXZ     004ce6d8 f   LIBCMT:hooks.obj
 0001:000ce350       __CallSettingFrame@12      004ce710 f   LIBCMT:lowhelpr.obj
 0001:000ce377       __NLG_Return               004ce737     LIBCMT:lowhelpr.obj
 0001:000ce39c       ?__CxxUnhandledExceptionFilter@@YGJPAU_EXCEPTION_POINTERS@@@Z 004ce75c f   LIBCMT:unhandld.obj
 0001:000ce3e2       ?__CxxSetUnhandledExceptionFilter@@YAHXZ 004ce7a2 f   LIBCMT:unhandld.obj
 0001:000ce3f4       ?__CxxRestoreUnhandledExceptionFilter@@YAXXZ 004ce7b4 f   LIBCMT:unhandld.obj
 0001:000ce400       __mtinitlocks              004ce7c0 f   LIBCMT:mlock.obj
 0001:000ce449       __mtdeletelocks            004ce809 f   LIBCMT:mlock.obj
 0001:000ce472       __unlock                   004ce832 f   LIBCMT:mlock.obj
 0001:000ce484       __mtinitlocknum            004ce844 f   LIBCMT:mlock.obj
 0001:000ce524       __lock                     004ce8e4 f   LIBCMT:mlock.obj
 0001:000ce552       __amsg_exit                004ce912 f   LIBCMT:crt0.obj
 0001:000ce56e       __stbuf                    004ce92e f   LIBCMT:_sftbuf.obj
 0001:000ce5f6       __ftbuf                    004ce9b6 f   LIBCMT:_sftbuf.obj
 0001:000ce6ae       __output                   004cea6e f   LIBCMT:output.obj
 0001:000cee35       ___security_init_cookie    004cf1f5 f   LIBCMT:seccinit.obj
 0001:000cee8f       ___security_error_handler  004cf24f f   LIBCMT:secfail.obj
 0001:000cf018       __close_lk                 004cf3d8 f   LIBCMT:close.obj
 0001:000cf099       __close                    004cf459 f   LIBCMT:close.obj
 0001:000cf134       __freebuf                  004cf4f4 f   LIBCMT:_freebuf.obj
 0001:000cf15f       __filbuf                   004cf51f f   LIBCMT:_filbuf.obj
 0001:000cf240       __flsbuf                   004cf600 f   LIBCMT:_flsbuf.obj
 0001:000cf359       __openfile                 004cf719 f   LIBCMT:_open.obj
 0001:000cf4c1       __getstream                004cf881 f   LIBCMT:stream.obj
 0001:000cf5e3       __write_lk                 004cf9a3 f   LIBCMT:write.obj
 0001:000cf76e       __write                    004cfb2e f   LIBCMT:write.obj
 0001:000cf819       __commit                   004cfbd9 f   LIBCMT:commit.obj
 0001:000cf8d3       __ioinit                   004cfc93 f   LIBCMT:ioinit.obj
 0001:000cf938       __fcloseall                004cfcf8 f   LIBCMT:closeall.obj
 0001:000cfa04       __input                    004cfdc4 f   LIBCMT:input.obj
 0001:000d0581       __msize                    004d0941 f   LIBCMT:msize.obj
 0001:000d05da       __isctype                  004d099a f   LIBCMT:isctype.obj
 0001:000d05fb       __read_lk                  004d09bb f   LIBCMT:read.obj
 0001:000d07d2       __read                     004d0b92 f   LIBCMT:read.obj
 0001:000d087d       __lseek_lk                 004d0c3d f   LIBCMT:lseek.obj
 0001:000d08ef       __lseek                    004d0caf f   LIBCMT:lseek.obj
 0001:000d099a       __ismbcspace               004d0d5a f   LIBCMT:ismbspc.obj
 0001:000d09ca       __raise_exc                004d0d8a f   LIBCMT:fpexcept.obj
 0001:000d0c6e       __handle_exc               004d102e f   LIBCMT:fpexcept.obj
 0001:000d0e5b       __set_errno                004d121b f   LIBCMT:fpexcept.obj
 0001:000d0e83       __errcode                  004d1243 f   LIBCMT:fpexcept.obj
 0001:000d0eb0       __umatherr                 004d1270 f   LIBCMT:fpexcept.obj
 0001:000d0f4e       __handle_qnan1             004d130e f   LIBCMT:fpexcept.obj
 0001:000d0fa1       __handle_qnan2             004d1361 f   LIBCMT:fpexcept.obj
 0001:000d1000       __except1                  004d13c0 f   LIBCMT:fpexcept.obj
 0001:000d10a0       __except2                  004d1460 f   LIBCMT:fpexcept.obj
 0001:000d1151       __frnd                     004d1511 f   LIBCMT:frnd.obj
 0001:000d1162       __set_exp                  004d1522 f   LIBCMT:util.obj
 0001:000d118c       __sptype                   004d154c f   LIBCMT:util.obj
 0001:000d11e7       __decomp                   004d15a7 f   LIBCMT:util.obj
 0001:000d129b       __statfp                   004d165b f   LIBCMT:fpctrl.obj
 0001:000d12a6       __clrfp                    004d1666 f   LIBCMT:fpctrl.obj
 0001:000d12b2       __ctrlfp                   004d1672 f   LIBCMT:fpctrl.obj
 0001:000d12d6       __set_statfp               004d1696 f   LIBCMT:fpctrl.obj
 0001:000d132c       __set_osfhnd               004d16ec f   LIBCMT:osfinfo.obj
 0001:000d1372       __free_osfhnd              004d1732 f   LIBCMT:osfinfo.obj
 0001:000d13bb       __get_osfhandle            004d177b f   LIBCMT:osfinfo.obj
 0001:000d13fc       __lock_fhandle             004d17bc f   LIBCMT:osfinfo.obj
 0001:000d149c       __unlock_fhandle           004d185c f   LIBCMT:osfinfo.obj
 0001:000d14be       __alloc_osfhnd             004d187e f   LIBCMT:osfinfo.obj
 0001:000d164d       __fFEXP                    004d1a0d     LIBCMT:87tran.obj
 0001:000d16a4       __rtinfpopse               004d1a64     LIBCMT:87tran.obj
 0001:000d16a6       __rtinfnpopse              004d1a66     LIBCMT:87tran.obj
 0001:000d16b6       __fFLN                     004d1a76     LIBCMT:87tran.obj
 0001:000d176b       __rtinfpop                 004d1b2b     LIBCMT:87tran.obj
 0001:000d176d       __rtinfnpop                004d1b2d     LIBCMT:87tran.obj
 0001:000d178a       __ffexpm1                  004d1b4a     LIBCMT:87tran.obj
 0001:000d1834       __trandisp1                004d1bf4 f   LIBCMT:87disp.obj
 0001:000d189b       __trandisp2                004d1c5b f   LIBCMT:87disp.obj
 0001:000d1927       __rttospopde               004d1ce7     LIBCMT:87disp.obj
 0001:000d192c       __rttospop                 004d1cec     LIBCMT:87disp.obj
 0001:000d192e       __rtnospop                 004d1cee     LIBCMT:87disp.obj
 0001:000d1930       __rttosnpop                004d1cf0     LIBCMT:87disp.obj
 0001:000d1931       __rtnospopde               004d1cf1     LIBCMT:87disp.obj
 0001:000d1938       __rtzeropop                004d1cf8     LIBCMT:87disp.obj
 0001:000d193a       __rtzeronpop               004d1cfa     LIBCMT:87disp.obj
 0001:000d193f       __rtonepop                 004d1cff     LIBCMT:87disp.obj
 0001:000d1941       __rtonenpop                004d1d01     LIBCMT:87disp.obj
 0001:000d1946       __tosnan1                  004d1d06     LIBCMT:87disp.obj
 0001:000d1971       __nosnan2                  004d1d31     LIBCMT:87disp.obj
 0001:000d1973       __tosnan2                  004d1d33     LIBCMT:87disp.obj
 0001:000d199b       __nan2                     004d1d5b     LIBCMT:87disp.obj
 0001:000d19da       __rtindfpop                004d1d9a     LIBCMT:87disp.obj
 0001:000d19dc       __rtindfnpop               004d1d9c     LIBCMT:87disp.obj
 0001:000d19ed       __rttosnpopde              004d1dad     LIBCMT:87disp.obj
 0001:000d19f7       __rtchsifneg               004d1db7     LIBCMT:87disp.obj
 0001:000d1a00       __startTwoArgErrorHandling 004d1dc0 f   LIBCMT:genexcep.obj
 0001:000d1a17       __startOneArgErrorHandling 004d1dd7 f   LIBCMT:genexcep.obj
 0001:000d1a54       __twoToTOS                 004d1e14 f   LIBCMT:common.obj
 0001:000d1a69       __load_CW                  004d1e29 f   LIBCMT:common.obj
 0001:000d1a80       __convertTOStoQNaN         004d1e40 f   LIBCMT:common.obj
 0001:000d1a99       __fload_withFB             004d1e59 f   LIBCMT:common.obj
 0001:000d1adc       __checkTOS_withFB          004d1e9c f   LIBCMT:common.obj
 0001:000d1af2       __fast_exit                004d1eb2 f   LIBCMT:common.obj
 0001:000d1aff       __math_exit                004d1ebf f   LIBCMT:common.obj
 0001:000d1b29       __check_overflow_exit      004d1ee9 f   LIBCMT:common.obj
 0001:000d1b3d       __check_range_exit         004d1efd f   LIBCMT:common.obj
 0001:000d1be0       __d_inttype                004d1fa0 f   LIBCMT:powhlp.obj
 0001:000d1c45       __powhlp                   004d2005 f   LIBCMT:powhlp.obj
 0001:000d1d97       __rt_probe_read4@4         004d2157 f   LIBCMT:sehsupp.obj
 0001:000d1e17       __ultoa                    004d21d7 f   LIBCMT:xtoa.obj
 0001:000d1e31       __mbsrchr                  004d21f1 f   LIBCMT:mbsrchr.obj
 0001:000d1e9c       __rmtmp                    004d225c f   LIBCMT:rmtmp.obj
 0001:000d1f3e       _strdup                    004d22fe f   LIBCMT:strdup.obj
 0001:000d1f3e       __strdup                   004d22fe f   LIBCMT:strdup.obj
 0001:000d220f       __sopen                    004d25cf f   LIBCMT:open.obj
 0001:000d2264       _tolower                   004d2624 f   LIBCMT:tolower.obj
 0001:000d22a0       ___ascii_strnicmp          004d2660 f   LIBCMT:_strnicm.obj
 0001:000d2310       ___ascii_stricmp           004d26d0 f   LIBCMT:_stricmp.obj
 0001:000d23e5       __woutput                  004d27a5 f   LIBCMT:woutput.obj
 0001:000d2bac       __fFSINH                   004d2f6c     LIBCMT:87trigh.obj
 0001:000d2bfe       __fFCOSH                   004d2fbe     LIBCMT:87trigh.obj
 0001:000d2ca8       __cintrindisp2             004d3068 f   LIBCMT:87cdisp.obj
 0001:000d2ce6       __cintrindisp1             004d30a6 f   LIBCMT:87cdisp.obj
 0001:000d2d23       __ctrandisp2               004d30e3 f   LIBCMT:87cdisp.obj
 0001:000d2eb9       __ctrandisp1               004d3279 f   LIBCMT:87cdisp.obj
 0001:000d2eec       __fload                    004d32ac f   LIBCMT:87cdisp.obj
 0001:000d2f28       __ZeroTail                 004d32e8 f   LIBCMT:intrncvt.obj
 0001:000d2f5a       __IncMan                   004d331a f   LIBCMT:intrncvt.obj
 0001:000d2fa7       __RoundMan                 004d3367 f   LIBCMT:intrncvt.obj
 0001:000d3019       __CopyMan                  004d33d9 f   LIBCMT:intrncvt.obj
 0001:000d3034       __IsZeroMan                004d33f4 f   LIBCMT:intrncvt.obj
 0001:000d304d       __ShrMan                   004d340d f   LIBCMT:intrncvt.obj
 0001:000d30c8       __ld12cvt                  004d3488 f   LIBCMT:intrncvt.obj
 0001:000d3220       __ld12tod                  004d35e0 f   LIBCMT:intrncvt.obj
 0001:000d3236       __ld12tof                  004d35f6 f   LIBCMT:intrncvt.obj
 0001:000d324c       __atodbl                   004d360c f   LIBCMT:intrncvt.obj
 0001:000d3279       __atoflt                   004d3639 f   LIBCMT:intrncvt.obj
 0001:000d32a6       __fptostr                  004d3666 f   LIBCMT:_fptostr.obj
 0001:000d3325       ___dtold                   004d36e5 f   LIBCMT:cfout.obj
 0001:000d33df       __fltout2                  004d379f f   LIBCMT:cfout.obj
 0001:000d3444       __fptrap                   004d3804 f   LIBCMT:crt0fp.obj
 0001:000d356d       __control87                004d392d f   LIBCMT:ieee87.obj
 0001:000d359f       __controlfp                004d395f f   LIBCMT:ieee87.obj
 0001:000d35b5       ?_ValidateRead@@YAHPBXI@Z  004d3975 f   LIBCMT:validate.obj
 0001:000d35d0       ?_ValidateWrite@@YAHPAXI@Z 004d3990 f   LIBCMT:validate.obj
 0001:000d35eb       ?_ValidateExecute@@YAHP6GHXZ@Z 004d39ab f   LIBCMT:validate.obj
 0001:000d362d       ___updatetmbcinfo          004d39ed f   LIBCMT:mbctype.obj
 0001:000d37ab       __setmbcp                  004d3b6b f   LIBCMT:mbctype.obj
 0001:000d38cc       ___initmbctable            004d3c8c f   LIBCMT:mbctype.obj
 0001:000d38f4       __mtxthreadnotification@4  004d3cb4 f   LIBCMT:thread.obj
 0001:000d392e       ___crtInitCritSecAndSpinCount 004d3cee f   LIBCMT:initcrit.obj
 0001:000d398f       __NMSG_WRITE               004d3d4f f   LIBCMT:crt0msg.obj
 0001:000d39bb       __FF_MSGBANNER             004d3d7b f   LIBCMT:crt0msg.obj
 0001:000d39dd       __isatty                   004d3d9d f   LIBCMT:isatty.obj
 0001:000d3a07       _wctomb                    004d3dc7 f   LIBCMT:wctomb.obj
 0001:000d3a40       __aulldvrm                 004d3e00 f   LIBCMT:ulldvrm.obj
 0001:000d3ad5       __getbuf                   004d3e95 f   LIBCMT:_getbuf.obj
 0001:000d3b19       __lseeki64_lk              004d3ed9 f   LIBCMT:lseeki64.obj
 0001:000d3b9a       __ungetc_lk                004d3f5a f   LIBCMT:ungetc.obj
 0001:000d3c06       _mbtowc                    004d3fc6 f   LIBCMT:mbtowc.obj
 0001:000d3c3d       __matherr                  004d3ffd f   LIBCMT:matherr.obj
 0001:000d3c40       __87except                 004d4000 f   LIBCMT:87except.obj
 0001:000d3d1d       __chsize_lk                004d40dd f   LIBCMT:chsize.obj
 0001:000d3e40       __putwc_lk                 004d4200 f   LIBCMT:fputwc.obj
 0001:000d3f05       ___addl                    004d42c5 f   LIBCMT:mantold.obj
 0001:000d3f26       ___add_12                  004d42e6 f   LIBCMT:mantold.obj
 0001:000d3f84       ___shl_12                  004d4344 f   LIBCMT:mantold.obj
 0001:000d3fb2       ___shr_12                  004d4372 f   LIBCMT:mantold.obj
 0001:000d3fdf       ___mtold12                 004d439f f   LIBCMT:mantold.obj
 0001:000d40ad       ___strgtold12              004d446d f   LIBCMT:strgtold.obj
 0001:000d4524       _$I10_OUTPUT               004d48e4 f   LIBCMT:x10fout.obj
 0001:000d479b       __setmode_lk               004d4b5b f   LIBCMT:setmode.obj
 0001:000d4807       __flswbuf                  004d4bc7 f   LIBCMT:_flswbuf.obj
 0001:000d492f       ___ld12mul                 004d4cef f   LIBCMT:tenpow.obj
 0001:000d4b51       ___multtenpow12            004d4f11 f   LIBCMT:tenpow.obj
 0001:000d4bd0       _SDL_CreateYUVOverlay      004d4f90 f   libsdlx:SDL_yuv.obj
 0001:000d4c60       _SDL_LockYUVOverlay        004d5020 f   libsdlx:SDL_yuv.obj
 0001:000d4c80       _SDL_UnlockYUVOverlay      004d5040 f   libsdlx:SDL_yuv.obj
 0001:000d4ca0       _SDL_DisplayYUVOverlay     004d5060 f   libsdlx:SDL_yuv.obj
 0001:000d4cc0       _SDL_FreeYUVOverlay        004d5080 f   libsdlx:SDL_yuv.obj
 0001:000d60f0       _SDL_CreateYUV_SW          004d64b0 f   libsdlx:SDL_yuv_sw.obj
 0001:000d6770       _SDL_DisplayYUV_SW         004d6b30 f   libsdlx:SDL_yuv_sw.obj
 0001:000d6990       _SDL_FreeYUV_SW            004d6d50 f   libsdlx:SDL_yuv_sw.obj
 0001:000d6af0       _copy_row3                 004d6eb0 f   libsdlx:SDL_stretch.obj
 0001:000d6b70       _SDL_SoftStretch           004d6f30 f   libsdlx:SDL_stretch.obj
 0001:000d6dad       _XGetAudioFlags@0          004d716d f   xapilib:xgetaudioflags.obj
 0001:000d6def       _OutputDebugStringA@4      004d71af f   xapilib:outputdebugstringa.obj
 0001:000d6e21       _GetSystemTimeAsFileTime@4 004d71e1 f   xapilib:kthunks.obj
 0001:000d6e27       _IsBadReadPtr@8            004d71e7 f   xapilib:process.obj
 0001:000d6e8c       _IsBadWritePtr@8           004d724c f   xapilib:process.obj
 0001:000d6ef5       _IsBadCodePtr@4            004d72b5 f   xapilib:process.obj
 0001:000d6f04       _RtlUnwind@16              004d72c4 f   xboxkrnl:xboxkrnl.exe
 0002:00000000       _Direct3D_CreateDevice@24  004d77c0 f   d3d8:d3ddev.obj
 0002:000000b0       _D3DDevice_SetRenderState_PSTextureModes@4 004d7870 f   d3d8:state.obj
 0002:000000e0       @D3DDevice_SetRenderState_Simple@8 004d78a0 f   d3d8:state.obj
 0002:00000110       _D3DDevice_SetRenderStateNotInline@8 004d78d0 f   d3d8:state.obj
 0002:00000170       _D3DDevice_GetViewportOffsetAndScale@8 004d7930 f   d3d8:state.obj
 0002:000002a0       ?UpdateProjectionViewportTransform@D3D@@YGXXZ 004d7a60 f   d3d8:state.obj
 0002:000003e0       _D3DDevice_SetRenderState_EdgeAntiAlias@4 004d7ba0 f   d3d8:state.obj
 0002:00000420       _D3DDevice_SetRenderState_ShadowFunc@4 004d7be0 f   d3d8:state.obj
 0002:00000460       _D3DDevice_SetRenderState_FogColor@4 004d7c20 f   d3d8:state.obj
 0002:000004b0       _D3DDevice_SetRenderState_CullMode@4 004d7c70 f   d3d8:state.obj
 0002:00000520       _D3DDevice_SetRenderState_FrontFace@4 004d7ce0 f   d3d8:state.obj
 0002:00000560       _D3DDevice_SetRenderState_NormalizeNormals@4 004d7d20 f   d3d8:state.obj
 0002:000005a0       _D3DDevice_SetRenderState_TextureFactor@4 004d7d60 f   d3d8:state.obj
 0002:00000600       _D3DDevice_SetRenderState_LineWidth@4 004d7dc0 f   d3d8:state.obj
 0002:00000670       _D3DDevice_SetRenderState_Dxt1NoiseEnable@4 004d7e30 f   d3d8:state.obj
 0002:000006f0       _D3DDevice_SetRenderState_ZBias@4 004d7eb0 f   d3d8:state.obj
 0002:00000770       _D3DDevice_SetRenderState_LogicOp@4 004d7f30 f   d3d8:state.obj
 0002:000007d0       _D3DDevice_SetRenderState_FillMode@4 004d7f90 f   d3d8:state.obj
 0002:00000820       _D3DDevice_SetRenderState_BackFillMode@4 004d7fe0 f   d3d8:state.obj
 0002:00000880       _D3DDevice_SetRenderState_TwoSidedLighting@4 004d8040 f   d3d8:state.obj
 0002:00000900       _D3DDevice_SetRenderState_VertexBlend@4 004d80c0 f   d3d8:state.obj
 0002:00000950       _D3DDevice_SetTextureState_TexCoordIndex@8 004d8110 f   d3d8:state.obj
 0002:00000a60       _D3DDevice_SetTextureState_BumpEnv@12 004d8220 f   d3d8:state.obj
 0002:00000ad0       _D3DDevice_SetTextureState_BorderColor@8 004d8290 f   d3d8:state.obj
 0002:00000b10       _D3DDevice_SetTextureState_ColorKeyColor@8 004d82d0 f   d3d8:state.obj
 0002:00000b50       _D3DDevice_SetTextureStageStateNotInline@12 004d8310 f   d3d8:state.obj
 0002:00000c40       ?CommonSetTextureBumpEnv@D3D@@YIPCKPAVCDevice@1@PCK@Z 004d8400 f   d3d8:state.obj
 0002:00000cb0       ?CommonSetViewport@D3D@@YIPCKPAVCDevice@1@PCK@Z 004d8470 f   d3d8:state.obj
 0002:00000ea0       ?CommonSetControl0@D3D@@YIPCKPAVCDevice@1@PCK@Z 004d8660 f   d3d8:state.obj
 0002:00000f00       ?CommonSetDebugRegisters@D3D@@YIXXZ 004d86c0 f   d3d8:state.obj
 0002:00000fd0       ?CommonSetMultiSampleModeAndScale@D3D@@YIXPAVCDevice@1@PBU_D3DVIEWPORT8@@@Z 004d8790 f   d3d8:state.obj
 0002:00001330       _D3DDevice_SetRenderState_ZEnable@4 004d8af0 f   d3d8:state.obj
 0002:000013c0       _D3DDevice_SetRenderState_StencilEnable@4 004d8b80 f   d3d8:state.obj
 0002:00001460       _D3DDevice_SetRenderState_StencilFail@4 004d8c20 f   d3d8:state.obj
 0002:000014d0       _D3DDevice_SetRenderState_YuvEnable@4 004d8c90 f   d3d8:state.obj
 0002:00001500       _D3DDevice_SetRenderState_OcclusionCullEnable@4 004d8cc0 f   d3d8:state.obj
 0002:00001570       _D3DDevice_SetRenderState_StencilCullEnable@4 004d8d30 f   d3d8:state.obj
 0002:000015e0       _D3DDevice_SetRenderState_RopZCmpAlwaysRead@4 004d8da0 f   d3d8:state.obj
 0002:00001600       _D3DDevice_SetRenderState_RopZRead@4 004d8dc0 f   d3d8:state.obj
 0002:00001620       _D3DDevice_SetRenderState_DoNotCullUncompressed@4 004d8de0 f   d3d8:state.obj
 0002:00001640       _D3DDevice_SetRenderState_MultiSampleMode@4 004d8e00 f   d3d8:state.obj
 0002:00001670       _D3DDevice_SetRenderState_MultiSampleRenderTargetMode@4 004d8e30 f   d3d8:state.obj
 0002:000016a0       _D3DDevice_SetRenderState_MultiSampleAntiAlias@4 004d8e60 f   d3d8:state.obj
 0002:00001720       _D3DDevice_SetRenderState_MultiSampleMask@4 004d8ee0 f   d3d8:state.obj
 0002:00001770       _D3DDevice_SetRenderState_SampleAlpha@4 004d8f30 f   d3d8:state.obj
 0002:000017c0       _D3DDevice_SetTransform@8  004d8f80 f   d3d8:d3dbase.obj
 0002:000018e0       _D3DDevice_BlockUntilIdle@0 004d90a0 f   d3d8:d3dbase.obj
 0002:000018f0       _D3DDevice_BlockUntilVerticalBlank@0 004d90b0 f   d3d8:d3dbase.obj
 0002:00001920       _D3DDevice_SetFlickerFilter@4 004d90e0 f   d3d8:d3dbase.obj
 0002:00001970       _D3DDevice_SetSoftDisplayFilter@4 004d9130 f   d3d8:d3dbase.obj
 0002:000019d0       ?GetPitch@PixelJar@D3D@@YGKPAUD3DPixelContainer@@@Z 004d9190 f i d3d8:d3dbase.obj
 0002:00001a40       _D3DDevice_Reset@4         004d9200 f   d3d8:d3dbase.obj
 0002:00001af0       _D3DDevice_SetRenderTarget@8 004d92b0 f   d3d8:d3dbase.obj
 0002:00001d70       _D3DDevice_GetBackBuffer2@4 004d9530 f   d3d8:d3dbase.obj
 0002:00001dc0       _D3DDevice_SetViewport@4   004d9580 f   d3d8:d3dbase.obj
 0002:00001ff0       _D3DDevice_SetTexture@8    004d97b0 f   d3d8:d3dbase.obj
 0002:000021a0       _D3DDevice_IsBusy@0        004d9960 f   d3d8:d3dbase.obj
 0002:000021d0       ?SetTileNoWait@D3D@@YGXKPBU_D3DTILE@@@Z 004d9990 f   d3d8:d3dbase.obj
 0002:000022b0       _D3DDevice_SetScissors@12  004d9a70 f   d3d8:d3dbase.obj
 0002:000025b0       _D3DDevice_SetScreenSpaceOffset@8 004d9d70 f   d3d8:d3dbase.obj
 0002:00002600       ?D3DInternals@D3D@@YAJKPAX@Z 004d9dc0 f   d3d8:d3dbase.obj
 0002:000032b0       _D3DDevice_Swap@4          004daa70 f   d3d8:present.obj
 0002:000033a0       ?GPUScale@D3D@@YGXPAUD3DSurface@@0M@Z 004dab60 f   d3d8:present.obj
 0002:00003460       _D3DDevice_CreateTexture2@28 004dac20 f   d3d8:texture.obj
 0002:00003510       _D3DTexture_GetLevelDesc@12 004dacd0 f   d3d8:texture.obj
 0002:00003520       _D3DTexture_LockRect@20    004dace0 f   d3d8:texture.obj
 0002:00003550       _D3DDevice_CreateVertexBuffer2@4 004dad10 f   d3d8:buffer.obj
 0002:000035a0       _D3DVertexBuffer_Lock2@8   004dad60 f   d3d8:buffer.obj
 0002:000035f0       _D3DPalette_Lock2@8        004dadb0 f   d3d8:buffer.obj
 0002:00003610       _D3DPalette_GetSize@4      004dadd0 f   d3d8:buffer.obj
 0002:00003620       _D3DDevice_Clear@24        004dade0 f   d3d8:clear.obj
 0002:00003a10       _D3DDevice_DrawVertices@12 004db1d0 f   d3d8:drawprim.obj
 0002:00003ab0       _D3DDevice_SetVertexData2f@12 004db270 f   d3d8:drawprim.obj
 0002:00003af0       _D3DDevice_Begin@4         004db2b0 f   d3d8:drawprim.obj
 0002:00003b30       _D3DDevice_End@0           004db2f0 f   d3d8:drawprim.obj
 0002:00003b80       ?InitializeVertexShaderFromFvf@D3D@@YGXPAUVertexShader@1@K@Z 004db340 f   d3d8:vshader.obj
 0002:00003cc0       ?ShadowVertexShaderState@D3D@@YGXPAUVertexShader@1@K@Z 004db480 f   d3d8:vshader.obj
 0002:00003d70       ?ParseProgram@D3D@@YGPCKPCKPBKK@Z 004db530 f   d3d8:vshader.obj
 0002:00003de0       _D3DDevice_SetStreamSource@12 004db5a0 f   d3d8:vshader.obj
 0002:00003e70       _D3DDevice_LoadVertexShader@8 004db630 f   d3d8:vshader.obj
 0002:00003ed0       _D3DDevice_SelectVertexShader@8 004db690 f   d3d8:vshader.obj
 0002:00003f70       _D3DDevice_SetShaderConstantMode@4 004db730 f   d3d8:vshader.obj
 0002:00004090       ?RestoreVertexShaders@D3D@@YGXPBKK@Z 004db850 f   d3d8:vshader.obj
 0002:000040d0       ?CommonSetPassthroughProgram@D3D@@YIXPAVCDevice@1@@Z 004db890 f   d3d8:vshader.obj
 0002:000041c0       _D3DDevice_SetVertexShader@4 004db980 f   d3d8:vshader.obj
 0002:00004330       ?CleanPrivateData@D3D@@YGXPAX@Z 004dbaf0 f   d3d8:resource.obj
 0002:00004380       ?DestroyResource@D3D@@YGXPAUD3DResource@@@Z 004dbb40 f   d3d8:resource.obj
 0002:00004420       ?IsResourceSetInDevice@D3D@@YGHPAUD3DResource@@@Z 004dbbe0 f   d3d8:resource.obj
 0002:00004460       ?InternalAddRefSurface@D3D@@YGXPAUD3DResource@@@Z 004dbc20 f   d3d8:resource.obj
 0002:000044a0       _D3DResource_AddRef@4      004dbc60 f   d3d8:resource.obj
 0002:000044e0       _D3DResource_Release@4     004dbca0 f   d3d8:resource.obj
 0002:00004530       _D3DResource_GetType@4     004dbcf0 f   d3d8:resource.obj
 0002:000045c0       ?InternalReleaseSurface@D3D@@YGXPAUD3DResource@@@Z 004dbd80 f   d3d8:resource.obj
 0002:00004630       _Direct3DCreate8@4         004dbdf0 f   d3d8:enum.obj
 0002:00004640       ?InitializeKelvin@D3D@@YGXXZ 004dbe00 f   d3d8:dxgcreate.obj
 0002:00004730       ?InitializeHardware@D3D@@YGXXZ 004dbef0 f   d3d8:dxgcreate.obj
 0002:00004840       ?InitializeD3dState@D3D@@YGXXZ 004dc000 f   d3d8:dxgcreate.obj
 0002:00004910       ?FreeFrameBuffers@CDevice@D3D@@QAEXXZ 004dc0d0 f   d3d8:dxgcreate.obj
 0002:00004a40       ?InitializeFrameBuffers@CDevice@D3D@@QAEJPAU_D3DPRESENT_PARAMETERS_@@@Z 004dc200 f   d3d8:dxgcreate.obj
 0002:00004fe0       ?Init@CDevice@D3D@@QAEJPAU_D3DPRESENT_PARAMETERS_@@@Z 004dc7a0 f   d3d8:dxgcreate.obj
 0002:000054b0       ?UnInit@CDevice@D3D@@QAEXXZ 004dcc70 f   d3d8:dxgcreate.obj
 0002:00005660       ?BusyLoop@D3D@@YGXXZ       004dce20 f   d3d8:pusher.obj
 0002:00005680       ?ComputeGap@D3D@@YIKPAVCDevice@1@PAUFence@1@PCK@Z 004dce40 f   d3d8:pusher.obj
 0002:000056b0       ?DumpMatrixTransposed@D3D@@YGXPCKKPBU_D3DMATRIX@@@Z 004dce70 f   d3d8:pusher.obj
 0002:00005720       ?InitializePushBuffer@CDevice@D3D@@QAEJXZ 004dcee0 f   d3d8:pusher.obj
 0002:000057c0       ?UninitializePushBuffer@CDevice@D3D@@QAEXXZ 004dcf80 f   d3d8:pusher.obj
 0002:000058f0       ?GpuGet@CDevice@D3D@@QAEPCKXZ 004dd0b0 f   d3d8:pusher.obj
 0002:00005970       ?GpuGetOrNewer@D3D@@YGPCKPAVCDevice@1@H@Z 004dd130 f   d3d8:pusher.obj
 0002:000059f0       ?FlushWCCache@D3D@@YGXXZ   004dd1b0 f   d3d8:pusher.obj
 0002:00005a20       ?KickOff@CDevice@D3D@@QAEXXZ 004dd1e0 f   d3d8:pusher.obj
 0002:00005ad0       ?ReentrantKickOffAndWait@CDevice@D3D@@QAEXXZ 004dd290 f   d3d8:pusher.obj
 0002:00005b40       ?SetFence@D3D@@YGKK@Z      004dd300 f   d3d8:pusher.obj
 0002:00005c00       ?BlockOnTime@D3D@@YGXKK@Z  004dd3c0 f   d3d8:pusher.obj
 0002:00005d70       ?MakeRequestedSpace@D3D@@YGPCKKK@Z 004dd530 f   d3d8:pusher.obj
 0002:00005eb0       _D3DDevice_MakeSpace@0     004dd670 f   d3d8:pusher.obj
 0002:00005ec0       _D3DDevice_BeginStateBig@4 004dd680 f   d3d8:pusher.obj
 0002:00005f10       ?KickOffAndWaitForIdle@D3D@@YGXXZ 004dd6d0 f   d3d8:pusher.obj
 0002:00005f30       ?BlockOnResource@D3D@@YGXPAUD3DResource@@@Z 004dd6f0 f   d3d8:pusher.obj
 0002:00005fb0       ?BlockOnNonSurfaceResource@D3D@@YGXPAUD3DResource@@@Z 004dd770 f   d3d8:pusher.obj
 0002:00005ff0       ?XformBy4x3@D3D@@YGXPAU_D3DVECTOR@@PBU2@MPBU_D3DMATRIX@@@Z 004dd7b0 f   d3d8:math.obj
 0002:00006050       ?MatrixProduct4x4@D3D@@YGXPAU_D3DMATRIX@@PBU2@1@Z 004dd810 f   d3d8:math.obj
 0002:00006150       ?Explut@D3D@@YGXMPAM0@Z    004dd910 f   d3d8:math.obj
 0002:00006220       ?JBInvSqrt@D3D@@YGMM@Z     004dd9e0 f   d3d8:math.obj
 0002:00006280       ?NormalizeVector3@D3D@@YGXPAU_D3DVECTOR@@@Z 004dda40 f   d3d8:math.obj
 0002:000062d0       ?Inverse4x4@D3D@@YGHPAU_D3DMATRIX@@PBU2@H@Z 004dda90 f   d3d8:math.obj
 0002:00006820       ?FloatToLong@D3D@@YGJM@Z   004ddfe0 f   d3d8:floatmath.obj
 0002:00006830       ?Exp@D3D@@YGMM@Z           004ddff0 f   d3d8:floatmath.obj
 0002:00006890       ?Log@D3D@@YGMM@Z           004de050 f   d3d8:floatmath.obj
 0002:0000689b       ?DacProgramVideoStart@CMiniport@D3D@@QAEXK@Z 004de05b f   d3d8:mpdac.obj
 0002:0000691d       ?DacProgramGammaRamp@CMiniport@D3D@@QAEXPAU_D3DGAMMARAMP@@@Z 004de0dd f   d3d8:mpdac.obj
 0002:00006980       ?Log2@D3D@@YIKK@Z          004de140 f   d3d8:pixeljar.obj
 0002:00006990       ?MapToLinearD3DFORMAT@D3D@@YG?AW4_D3DFORMAT@@W42@@Z 004de150 f   d3d8:pixeljar.obj
 0002:00006a50       ?VideoBitsPerPixelOfD3DFORMAT@D3D@@YGKW4_D3DFORMAT@@@Z 004de210 f   d3d8:pixeljar.obj
 0002:00006a80       ?CalcTilePitch@D3D@@YGKKW4_D3DFORMAT@@@Z 004de240 f   d3d8:pixeljar.obj
 0002:00006ac0       ?GetSurfaceFormat@PixelJar@D3D@@YGKPAUD3DPixelContainer@@0@Z 004de280 f   d3d8:pixeljar.obj
 0002:00006be0       ?GetDepthBufferScale@PixelJar@D3D@@YGXPAUD3DPixelContainer@@PAM@Z 004de3a0 f   d3d8:pixeljar.obj
 0002:00006c50       ?GetSize@PixelJar@D3D@@YGXPAUD3DPixelContainer@@KPAK1111@Z 004de410 f   d3d8:pixeljar.obj
 0002:00006da0       ?Get2DSurfaceDesc@PixelJar@D3D@@YGXPAUD3DPixelContainer@@IPAU_D3DSURFACE_DESC@@@Z 004de560 f   d3d8:pixeljar.obj
 0002:00006e60       ?FindSurfaceWithinTexture@PixelJar@D3D@@YGXPAUD3DPixelContainer@@W4_D3DCUBEMAP_FACES@@IPAPAEPAK333@Z 004de620 f   d3d8:pixeljar.obj
 0002:00007090       ?Lock2DSurface@PixelJar@D3D@@YGXPAUD3DPixelContainer@@W4_D3DCUBEMAP_FACES@@IPAU_D3DLOCKED_RECT@@PBUtagRECT@@K@Z 004de850 f   d3d8:pixeljar.obj
 0002:00007130       ?EncodeFormat@PixelJar@D3D@@YGKKKKKW4_D3DFORMAT@@KHHPAK1@Z 004de8f0 f   d3d8:pixeljar.obj
 0002:00007325       ?GetDisplayCapabilities@CMiniport@D3D@@SGKXZ 004deae5 f   d3d8:mpmode.obj
 0002:00007344       ?GetTableForCurrentAvInfo@D3D@@YGPBUDISPLAYMODE@1@XZ 004deb04 f   d3d8:mpmode.obj
 0002:000073bd       ?SetVideoMode@CMiniport@D3D@@QAEJKKKKW4_D3DFORMAT@@KK@Z 004deb7d f   d3d8:mpmode.obj
 0002:00007630       ?IsFlipPending@CMiniport@D3D@@QAEHXZ 004dedf0 f   d3d8:mpintr.obj
 0002:00007650       ?GetTime@CMiniport@D3D@@QAEKXZ 004dee10 f i d3d8:mpintr.obj
 0002:00007660       ?Isr@CMiniport@D3D@@SGEPAU_KINTERRUPT@@PAX@Z 004dee20 f   d3d8:mpintr.obj
 0002:00007780       ?ServiceQueuedFlips@CMiniport@D3D@@AAEKXZ 004def40 f   d3d8:mpintr.obj
 0002:00007860       ?VBlank@CMiniport@D3D@@AAEKXZ 004df020 f   d3d8:mpintr.obj
 0002:00007970       ?ServiceTimerInterrupt@CMiniport@D3D@@AAEKXZ 004df130 f   d3d8:mpintr.obj
 0002:00007aa0       ?ShutdownNotification@CMiniport@D3D@@SGXPAU_HAL_SHUTDOWN_REGISTRATION@@@Z 004df260 f   d3d8:mpintr.obj
 0002:00007b10       ?ReportHardwareError@D3D@@YGXKKKK@Z 004df2d0 f   d3d8:mpintr.obj
 0002:00007b60       ?SoftwareMethod@CMiniport@D3D@@AAEXK@Z 004df320 f   d3d8:mpintr.obj
 0002:00007dd0       ?ServiceGrInterrupt@CMiniport@D3D@@AAEKXZ 004df590 f   d3d8:mpintr.obj
 0002:00007e80       ?ServiceFifoInterrupt@CMiniport@D3D@@AAEKXZ 004df640 f   d3d8:mpintr.obj
 0002:00008010       ?Dpc@CMiniport@D3D@@SGXPAU_KDPC@@PAX11@Z 004df7d0 f   d3d8:mpintr.obj
 0002:000080e7       ?ReserveInstMem@CMiniport@D3D@@AAEKK@Z 004df8a7 f   d3d8:mpcore.obj
 0002:000080fa       ?InitGammaRamp@CMiniport@D3D@@AAEXK@Z 004df8ba f   d3d8:mpcore.obj
 0002:0000813a       ?InitDMAChannel@CMiniport@D3D@@QAEHKPAUOBJECTINFO@12@0KPAPAX@Z 004df8fa f   d3d8:mpcore.obj
 0002:0000819d       ?BindToChannel@CMiniport@D3D@@QAEHPAUOBJECTINFO@12@@Z 004df95d f   d3d8:mpcore.obj
 0002:000081d1       ?MapRegisters@CMiniport@D3D@@AAEHXZ 004df991 f   d3d8:mpcore.obj
 0002:000081fc       ?GetGeneralInfo@CMiniport@D3D@@AAEHXZ 004df9bc f   d3d8:mpcore.obj
 0002:0000823d       ?InitEngines@CMiniport@D3D@@AAEHXZ 004df9fd f   d3d8:mpcore.obj
 0002:000082c0       ?LoadEngines@CMiniport@D3D@@AAEHXZ 004dfa80 f   d3d8:mpcore.obj
 0002:00008358       ?GetAddressInfo@CMiniport@D3D@@AAEXPAXPAPAXPAKH@Z 004dfb18 f   d3d8:mpcore.obj
 0002:000083b2       ?CreateCtxDmaObject@CMiniport@D3D@@QAEHKKPAXKPAUOBJECTINFO@12@@Z 004dfb72 f   d3d8:mpcore.obj
 0002:00008481       ?CreateGrObject@CMiniport@D3D@@QAEHKKPAUOBJECTINFO@12@@Z 004dfc41 f   d3d8:mpcore.obj
 0002:00008511       ?TilingUpdateIdle@CMiniport@D3D@@QAEXPAK@Z 004dfcd1 f   d3d8:mpcore.obj
 0002:0000857c       ?GetTimerTime@CMiniport@D3D@@AAE_KXZ 004dfd3c f   d3d8:mpcore.obj
 0002:00008591       ?EnableTimer@CMiniport@D3D@@AAEXH@Z 004dfd51 f   d3d8:mpcore.obj
 0002:000085af       ?SetTimerAlarm@CMiniport@D3D@@AAEX_KH@Z 004dfd6f f   d3d8:mpcore.obj
 0002:0000867d       ?ApplyLGSFix@CMiniport@D3D@@QAEXXZ 004dfe3d f   d3d8:mpcore.obj
 0002:000086c4       ?InitHardware@CMiniport@D3D@@QAEHXZ 004dfe84 f   d3d8:mpcore.obj
 0002:00008826       ?CreateTile@CMiniport@D3D@@QAEHKKKKKKK@Z 004dffe6 f   d3d8:mpcore.obj
 0002:00008a14       ?DestroyTile@CMiniport@D3D@@QAEHKK@Z 004e01d4 f   d3d8:mpcore.obj
 0002:00008ad6       ?ShutdownEngines@CMiniport@D3D@@QAEXXZ 004e0296 f   d3d8:mpcore.obj
 0002:00008d40       ?LazySetPointParams@D3D@@YGXPAVCDevice@1@@Z 004e0500 f   d3d8:lazy.obj
 0002:00008eb0       ?LazySetShaderStageProgram@D3D@@YGXPAVCDevice@1@@Z 004e0670 f   d3d8:lazy.obj
 0002:00009230       ?LazySetTextureState@D3D@@YGXPAVCDevice@1@K@Z 004e09f0 f   d3d8:lazy.obj
 0002:00009420       ?LazySetSpecFogCombiner@D3D@@YGXPAVCDevice@1@@Z 004e0be0 f   d3d8:lazy.obj
 0002:00009600       ?LazySetTextureTransform@D3D@@YGXPAVCDevice@1@@Z 004e0dc0 f   d3d8:lazy.obj
 0002:00009db0       ?LazySetLights@D3D@@YGXPAVCDevice@1@K@Z 004e1570 f   d3d8:lazy.obj
 0002:0000a100       ?LazySetTransform@D3D@@YGXPAVCDevice@1@K@Z 004e18c0 f   d3d8:lazy.obj
 0002:0000a300       ?LazySetState@D3D@@YGXXZ   004e1ac0 f   d3d8:lazy.obj
 0002:0000a380       ?LazySetStateVB@CDevice@D3D@@QAEXK@Z 004e1b40 f   d3d8:lazy.obj
 0002:0000a520       _D3DDevice_SetPixelShader@4 004e1ce0 f   d3d8:pshader.obj
 0002:0000a720       ?InitSurfaceHeader@D3D@@YGXIIW4_D3DFORMAT@@PAUD3DSurface@@II@Z 004e1ee0 f   d3d8:shadersnapshot.obj
 0002:0000a770       ?HandleShaderSnapshotPreSwap@D3D@@YGXXZ 004e1f30 f   d3d8:shadersnapshot.obj
 0002:0000a820       ?HandleMovieFrameIdle@D3D@@YGXXZ 004e1fe0 f   d3d8:shadersnapshot.obj
 0002:0000aba0       ?HandleShaderSnapshotOpcode@D3D@@YGXXZ 004e2360 f   d3d8:shadersnapshot.obj
 0002:0000b110       ?InitializeSurface@D3D@@YGXPAUD3DSurface@@KKPAX@Z 004e28d0 f   d3d8:surface.obj
 0002:0000b140       ?DBGPRINT@D3D@@YAXPADZZ    004e2900 f   d3d8:debug.obj
 0002:0000b180       ?FixupPushBuffer@D3D@@YGXPAUPushBufferFixup@1@@Z 004e2940 f   d3d8:pushres.obj
 0002:0000b211       ?HalMcControlInit@CMiniport@D3D@@AAEXXZ 004e29d1 f   d3d8:mphal.obj
 0002:0000b378       ?HalFbControlInit@CMiniport@D3D@@AAEXXZ 004e2b38 f   d3d8:mphal.obj
 0002:0000b476       ?HalDacControlInit@CMiniport@D3D@@AAEXXZ 004e2c36 f   d3d8:mphal.obj
 0002:0000b545       ?HalVideoControlInit@CMiniport@D3D@@AAEXXZ 004e2d05 f   d3d8:mphal.obj
 0002:0000b57b       ?HalGrControlInit@CMiniport@D3D@@AAEXXZ 004e2d3b f   d3d8:mphal.obj
 0002:0000b5ab       ?HalFifoControlInit@CMiniport@D3D@@AAEXXZ 004e2d6b f   d3d8:mphal.obj
 0002:0000b61c       ?HalGrIdle@CMiniport@D3D@@AAEXXZ 004e2ddc f   d3d8:mphal.obj
 0002:0000b65b       ?HalGrUnloadChannelContext@CMiniport@D3D@@AAEXK@Z 004e2e1b f   d3d8:mphal.obj
 0002:0000b694       ?HalFifoContextSwitch@CMiniport@D3D@@AAEXK@Z 004e2e54 f   d3d8:mphal.obj
 0002:0000b891       ?HalDacLoad@CMiniport@D3D@@AAEXXZ 004e3051 f   d3d8:mphal.obj
 0002:0000b8a3       ?HalFifoAllocDMA@CMiniport@D3D@@AAEXKKKPAUOBJECTINFO@12@@Z 004e3063 f   d3d8:mphal.obj
 0002:0000ba30       ?HalFifoHashAdd@CMiniport@D3D@@AAEXKKKKK@Z 004e31f0 f   d3d8:mphal.obj
 0002:0000ba69       ?HalGrInitObjectContext@CMiniport@D3D@@AAEXKK@Z 004e3229 f   d3d8:mphal.obj
 0002:0000bade       ?HalGrInit3d@CMiniport@D3D@@AAEXXZ 004e329e f   d3d8:mphal.obj
 0002:0000c4bd       ?HalGrLoadChannelContext@CMiniport@D3D@@AAEXK@Z 004e3c7d f   d3d8:mphal.obj
 0002:0000c5e0       ?HalFifoControlLoad@CMiniport@D3D@@AAEXXZ 004e3da0 f   d3d8:mphal.obj
 0002:0000c661       ?HalGrControlLoad@CMiniport@D3D@@AAEXXZ 004e3e21 f   d3d8:mphal.obj
 0002:0000c980       ?LazySetCombiners@D3D@@YGKPAVCDevice@1@K@Z 004e4140 f   d3d8:combiner.obj
 0002:0000cf40       ?g_TextureFormat@D3D@@3QBEB 004e4700     d3d8:d3ddev.obj
 0002:0000cf84       ?g_LODBias2x@D3D@@3QBMB    004e4744     d3d8:state.obj
 0002:0000cfa0       ?g_ComplexRenderStateFunctionTable@D3D@@3QBQ6GXK@ZB 004e4760     d3d8:state.obj
 0002:0000d01c       ?g_DefaultViewport@D3D@@3U_D3DVIEWPORT8@@B 004e47dc     d3d8:d3dbase.obj
 0002:0000d048       ?g_TilePitches@D3D@@3QBKB  004e4808     d3d8:d3dbase.obj
 0002:0000d0b0       ?g_TransformDirtyTable@D3D@@3QBKB 004e4870     d3d8:d3dbase.obj
 0002:0000d0d8       ?g_AntiAliasedTextureStates@D3D@@3QBKB 004e4898     d3d8:present.obj
 0002:0000d130       ?g_AntiAliasedRenderStates@D3D@@3QBKB 004e48f0     d3d8:present.obj
 0002:0000d1d0       ?g_PassthruProgramPositionAndTexture@D3D@@3QBKB 004e4990     d3d8:present.obj
 0002:0000d1f0       ?g_IdentityMatrix@D3D@@3U_D3DMATRIX@@B 004e49b0     d3d8:vshader.obj
 0002:0000d230       ?g_FixedFunctionPipelineConstants@D3D@@3QBKB 004e49f0     d3d8:vshader.obj
 0002:0000d260       ?g_PassthruProgramWFog@D3D@@3QBKB 004e4a20     d3d8:vshader.obj
 0002:0000d320       ?g_PassthruProgramZFog@D3D@@3QBKB 004e4ae0     d3d8:vshader.obj
 0002:0000d3d0       ?g_PassthruProgramSpecularFog@D3D@@3QBKB 004e4b90     d3d8:vshader.obj
 0002:0000d490       ?g_TextureCount@D3D@@3QBKB 004e4c50     d3d8:vshader.obj
 0002:0000d4a0       ?g_MinFilter@D3D@@3QAY02$$CBKA 004e4c60     d3d8:precomp.obj
 0002:0000d4b8       ?g_InitialTextureStates@D3D@@3QBEB 004e4c78     d3d8:dxgcreate.obj
 0002:0000d4d8       ?g_InitialRenderStates@D3D@@3QBKB 004e4c98     d3d8:dxgcreate.obj
 0002:0000d698       ?g_Mar@D3D@@3QBMB          004e4e58     d3d8:math.obj
 0002:0000d718       ?g_Lar@D3D@@3QBMB          004e4ed8     d3d8:math.obj
 0002:0000d798       ?g_DisplayModes@D3D@@3QBUDISPLAYMODE@1@B 004e4f58     d3d8:mpmode.obj
 0002:0000e048       ??_C@_0ED@CEHICPLJ@?5?5?5Type?3?5?$CFi?6?5Source?3?5?$CF08x?6?5?5Clas@ 004e5808     d3d8:mpintr.obj
 0002:0000e090       ??_C@_0FL@LBCDANFN@GPU?5generated?5an?5error?$CB?6Try?5repr@ 004e5850     d3d8:mpintr.obj
 0002:0000e0f4       ??_C@_0CA@GJMEKBLB@Wait?5for?5image?5write?5timed?9out?6?$AA@ 004e58b4     d3d8:shadersnapshot.obj
 0002:0000e114       ??_C@_0BP@BPOFKPAI@Wait?5for?5image?5read?5timed?9out?6?$AA@ 004e58d4     d3d8:shadersnapshot.obj
 0002:0000e134       ??_C@_0DB@PLEMIDFP@Unable?5to?5re?9open?5movie?5cache?5fi@ 004e58f4     d3d8:shadersnapshot.obj
 0002:0000e168       ??_C@_05CCMOGDN@?$CFs?3?$CFs?$AA@ 004e5928     d3d8:shadersnapshot.obj
 0002:0000e170       ??_C@_0M@FMMNPAHF@1?400?45933?41?$AA@ 004e5930     d3d8:shadersnapshot.obj
 0002:0000e17c       ??_C@_07LHBDFJPO@Release?$AA@ 004e593c     d3d8:shadersnapshot.obj
 0002:0000e184       ??_C@_0BM@PMANFOOE@createfile?5error?5?9?5st?$DN?$CF08x?6?$AA@ 004e5944     d3d8:shadersnapshot.obj
 0002:0000e1a0       ??_C@_0CF@JAIFDFBO@GetDiskFreeSpaceEx?5failed?5with?5?$CF@ 004e5960     d3d8:shadersnapshot.obj
 0002:0000e1c8       ??_C@_02HGOPDIBI@t?3?$AA@  004e5988     d3d8:shadersnapshot.obj
 0002:0000e2c0       ??_C@_09FBGPICKC@CopyRects?$AA@ 004e5a80     d3d8:pushres.obj
 0002:0000e2cc       ??_C@_0BC@JNDDCMEE@EndVisibilityTest?$AA@ 004e5a8c     d3d8:pushres.obj
 0002:0000e2e0       ??_C@_0L@BGIJEDPF@SetPalette?$AA@ 004e5aa0     d3d8:pushres.obj
 0002:0000e2ec       ??_C@_0L@BPHKIMHE@SetTexture?$AA@ 004e5aac     d3d8:pushres.obj
 0002:0000e2f8       ??_C@_0BF@MPBJCMNM@SetVertexShaderInput?$AA@ 004e5ab8     d3d8:pushres.obj
 0002:0000e310       ??_C@_0BA@LPDJAFGN@SetRenderTarget?$AA@ 004e5ad0     d3d8:pushres.obj
 0002:0000e320       ?g_VertexShaderConstants@@3PAY03MA 004e5ae0     d3d8:globals.obj
 0002:0000ef20       ?g_NullHardwareGetPut@@3PAKA 004e66e0     d3d8:globals.obj
 0002:0000ef28       _D3D__AvInfo               004e66e8     d3d8:globals.obj
 0002:0000ef2c       _D3D__GpuReg               004e66ec     d3d8:globals.obj
 0002:0000ef30       _D3D__NullHardware         004e66f0     d3d8:globals.obj
 0002:0000ef34       _D3D__IndexData            004e66f4     d3d8:globals.obj
 0002:0000ef38       _D3D__DirtyFlags           004e66f8     d3d8:globals.obj
 0002:0000ef40       _D3D__TextureState         004e6700     d3d8:globals.obj
 0002:0000f140       _D3D__RenderState          004e6900     d3d8:globals.obj
 0002:0000f3d8       _D3D__pDevice              004e6b98     d3d8:globals.obj
 0002:0000f3e0       _D3D__Device               004e6ba0     d3d8:globals.obj
 0002:00011880       ?g_OverscanColor@D3D@@3KA  004e9040     d3d8:d3dbase.obj
 0002:00011884       ?g_SoftDisplayFilterValue@D3D@@3HA 004e9044     d3d8:d3dbase.obj
 0002:00011888       ?g_FlickerFilterValue@D3D@@3KA 004e9048     d3d8:d3dbase.obj
 0002:0001188c       ?g_SoftDisplayFilterSet@D3D@@3HA 004e904c     d3d8:d3dbase.obj
 0002:00011890       ?g_FlickerFilterSet@D3D@@3HA 004e9050     d3d8:d3dbase.obj
 0002:00011898       ?g_Stream@D3D@@3PAUStream@1@A 004e9058     d3d8:vshader.obj
 0002:00011958       ?g_DirectVertexShader@D3D@@3UVertexShader@1@A 004e9118     d3d8:vshader.obj
 0002:00011a70       ?g_FvfVertexShader@D3D@@3UVertexShader@1@A 004e9230     d3d8:vshader.obj
 0002:00011b8c       ?m_PushSegmentSize@CDevice@D3D@@2KA 004e934c     d3d8:dxgcreate.obj
 0002:00011b90       ?m_PushBufferSize@CDevice@D3D@@2KA 004e9350     d3d8:dxgcreate.obj
 0002:00011b94       ?g_VideoOffset@D3D@@3KA    004e9354     d3d8:mpintr.obj
 0002:00011bd8       ?g_pFixup@D3D@@3PAUD3DFixup@@A 004e9398     d3d8:pushres.obj
 0003:00000000       _png_sig_cmp               004e93a0 f   d3dx8:png.obj
 0003:00000048       _png_zalloc                004e93e8 f   d3dx8:png.obj
 0003:0000009b       _png_zfree                 004e943b f   d3dx8:png.obj
 0003:000000a0       _png_reset_crc             004e9440 f   d3dx8:png.obj
 0003:000000b8       _png_calculate_crc         004e9458 f   d3dx8:png.obj
 0003:000000f7       _png_info_destroy          004e9497 f   d3dx8:png.obj
 0003:00000105       _png_get_io_ptr            004e94a5 f   d3dx8:png.obj
 0003:0000010d       _png_create_info_struct    004e94ad f   d3dx8:png.obj
 0003:00000133       _png_create_read_struct    004e94d3 f   d3dx8:pngread.obj
 0003:00000236       _png_read_info             004e95d6 f   d3dx8:pngread.obj
 0003:000003a9       _png_read_update_info      004e9749 f   d3dx8:pngread.obj
 0003:000003c9       _png_read_row              004e9769 f   d3dx8:pngread.obj
 0003:00000770       _png_read_image            004e9b10 f   d3dx8:pngread.obj
 0003:000007bd       _png_read_end              004e9b5d f   d3dx8:pngread.obj
 0003:000008bd       _png_read_destroy          004e9c5d f   d3dx8:pngread.obj
 0003:000009e0       _png_destroy_read_struct   004e9d80 f   d3dx8:pngread.obj
 0003:00000a61       _png_get_valid             004e9e01 f   d3dx8:pngget.obj
 0003:00000a7b       _png_get_IHDR              004e9e1b f   d3dx8:pngget.obj
 0003:00000b4c       _png_get_tRNS              004e9eec f   d3dx8:pngget.obj
 0003:00000bb3       _png_set_strip_16          004e9f53 f   d3dx8:pngrtran.obj
 0003:00000bbc       _png_set_expand            004e9f5c f   d3dx8:pngrtran.obj
 0003:00000bc5       _png_read_transform_info   004e9f65 f   d3dx8:pngrtran.obj
 0003:00000cb0       _png_do_unpack             004ea050 f   d3dx8:pngrtran.obj
 0003:00000dc0       _png_do_unshift            004ea160 f   d3dx8:pngrtran.obj
 0003:00000f3a       _png_do_chop               004ea2da f   d3dx8:pngrtran.obj
 0003:00000f7e       _png_do_read_filler        004ea31e f   d3dx8:pngrtran.obj
 0003:000011b0       _png_do_gamma              004ea550 f   d3dx8:pngrtran.obj
 0003:000014fe       _png_do_expand_palette     004ea89e f   d3dx8:pngrtran.obj
 0003:00001706       _png_do_expand             004eaaa6 f   d3dx8:pngrtran.obj
 0003:00001a5c       _png_do_dither             004eadfc f   d3dx8:pngrtran.obj
 0003:00001b6a       _png_build_gamma_table     004eaf0a f   d3dx8:pngrtran.obj
 0003:00001e75       _png_init_read_transformations 004eb215 f   d3dx8:pngrtran.obj
 0003:00001f88       _png_do_read_transformations 004eb328 f   d3dx8:pngrtran.obj
 0003:00002124       _png_set_packing           004eb4c4 f   d3dx8:pngtrans.obj
 0003:0000213d       _png_set_interlace_handling 004eb4dd f   d3dx8:pngtrans.obj
 0003:00002156       _png_do_bgr                004eb4f6 f   d3dx8:pngtrans.obj
 0003:00002215       _png_read_data             004eb5b5 f   d3dx8:pngrio.obj
 0003:0000223d       _png_set_read_fn           004eb5dd f   d3dx8:pngrio.obj
 0003:00002303       _png_set_error_fn          004eb6a3 f   d3dx8:pngerror.obj
 0003:0000231d       _png_error                 004eb6bd f   d3dx8:pngerror.obj
 0003:0000233b       _png_warning               004eb6db f   d3dx8:pngerror.obj
 0003:00002350       _png_chunk_error           004eb6f0 f   d3dx8:pngerror.obj
 0003:00002373       _png_chunk_warning         004eb713 f   d3dx8:pngerror.obj
 0003:00002398       _png_create_struct         004eb738 f   d3dx8:pngmem.obj
 0003:000023de       _png_destroy_struct        004eb77e f   d3dx8:pngmem.obj
 0003:000023f4       _png_malloc                004eb794 f   d3dx8:pngmem.obj
 0003:0000242e       _png_free                  004eb7ce f   d3dx8:pngmem.obj
 0003:0000244b       _png_memcpy_check          004eb7eb f   d3dx8:pngmem.obj
 0003:0000246e       _png_memset_check          004eb80e f   d3dx8:pngmem.obj
 0003:0000249f       _crc32                     004eb83f f   d3dx8:crc32.obj
 0003:0000258e       _inflateReset              004eb92e f   d3dx8:inflate.obj
 0003:000025cd       _inflateEnd                004eb96d f   d3dx8:inflate.obj
 0003:0000260b       _inflateInit2_             004eb9ab f   d3dx8:inflate.obj
 0003:000026f0       _inflateInit_              004eba90 f   d3dx8:inflate.obj
 0003:00002707       _inflate                   004ebaa7 f   d3dx8:inflate.obj
 0003:00002a6e       _png_get_uint_32           004ebe0e f   d3dx8:pngrutil.obj
 0003:00002a91       _png_crc_read              004ebe31 f   d3dx8:pngrutil.obj
 0003:00002aab       _png_crc_error             004ebe4b f   d3dx8:pngrutil.obj
 0003:00002b09       _png_check_chunk_name      004ebea9 f   d3dx8:pngrutil.obj
 0003:00002b6b       _png_combine_row           004ebf0b f   d3dx8:pngrutil.obj
 0003:00002d81       _png_do_read_interlace     004ec121 f   d3dx8:pngrutil.obj
 0003:0000304a       _png_read_filter_row       004ec3ea f   d3dx8:pngrutil.obj
 0003:000031c3       _png_read_start_row        004ec563 f   d3dx8:pngrutil.obj
 0003:0000335f       _png_crc_finish            004ec6ff f   d3dx8:pngrutil.obj
 0003:000033eb       _png_handle_IHDR           004ec78b f   d3dx8:pngrutil.obj
 0003:000035e1       _png_handle_PLTE           004ec981 f   d3dx8:pngrutil.obj
 0003:0000370b       _png_handle_IEND           004ecaab f   d3dx8:pngrutil.obj
 0003:00003755       _png_handle_gAMA           004ecaf5 f   d3dx8:pngrutil.obj
 0003:00003860       _png_handle_sRGB           004ecc00 f   d3dx8:pngrutil.obj
 0003:0000394f       _png_handle_tRNS           004eccef f   d3dx8:pngrutil.obj
 0003:00003b06       _png_handle_unknown        004ecea6 f   d3dx8:pngrutil.obj
 0003:00003b50       _png_read_finish_row       004ecef0 f   d3dx8:pngrutil.obj
 0003:00003d74       ?inflate_blocks_reset@D3DX@@YAXPAUinflate_blocks_state@1@PAUz_stream_s@1@PAK@Z 004ed114 f   d3dx8:infblock.obj
 0003:00003ddf       ?inflate_blocks_new@D3DX@@YAPAUinflate_blocks_state@1@PAUz_stream_s@1@P6AKKPBEI@ZI@Z 004ed17f f   d3dx8:infblock.obj
 0003:00003e6c       ?inflate_blocks@D3DX@@YAHPAUinflate_blocks_state@1@PAUz_stream_s@1@H@Z 004ed20c f   d3dx8:infblock.obj
 0003:00004607       ?inflate_blocks_free@D3DX@@YAHPAUinflate_blocks_state@1@PAUz_stream_s@1@@Z 004ed9a7 f   d3dx8:infblock.obj
 0003:0000463b       _adler32                   004ed9db f   d3dx8:adler32.obj
 0003:00004754       ?zcalloc@D3DX@@YAPAXPAXII@Z 004edaf4 f   d3dx8:zutil.obj
 0003:00004769       ?zcfree@D3DX@@YAXPAX0@Z    004edb09 f   d3dx8:zutil.obj
 0003:00004778       _png_set_gAMA              004edb18 f   d3dx8:pngset.obj
 0003:00004793       _png_set_IHDR              004edb33 f   d3dx8:pngset.obj
 0003:00004834       _png_set_PLTE              004edbd4 f   d3dx8:pngset.obj
 0003:00004858       _png_set_sRGB              004edbf8 f   d3dx8:pngset.obj
 0003:00004873       _png_set_sRGB_gAMA_and_cHRM 004edc13 f   d3dx8:pngset.obj
 0003:000048ac       _png_set_tRNS              004edc4c f   d3dx8:pngset.obj
 0003:000048f3       ?inflate_codes_new@D3DX@@YAPAUinflate_codes_state@1@IIPAUinflate_huft_s@1@0PAUz_stream_s@1@@Z 004edc93 f   d3dx8:infcodes.obj
 0003:00004927       ?inflate_codes@D3DX@@YAHPAUinflate_blocks_state@1@PAUz_stream_s@1@H@Z 004edcc7 f   d3dx8:infcodes.obj
 0003:00004e8b       ?inflate_codes_free@D3DX@@YAXPAUinflate_codes_state@1@PAUz_stream_s@1@@Z 004ee22b f   d3dx8:infcodes.obj
 0003:00005219       ?inflate_trees_bits@D3DX@@YAHPAI0PAPAUinflate_huft_s@1@PAU21@PAUz_stream_s@1@@Z 004ee5b9 f   d3dx8:inftrees.obj
 0003:00005298       ?inflate_trees_dynamic@D3DX@@YAHIIPAI00PAPAUinflate_huft_s@1@1PAU21@PAUz_stream_s@1@@Z 004ee638 f   d3dx8:inftrees.obj
 0003:0000539b       ?inflate_trees_fixed@D3DX@@YAHPAI0PAPAUinflate_huft_s@1@1PAUz_stream_s@1@@Z 004ee73b f   d3dx8:inftrees.obj
 0003:000053ca       ?inflate_flush@D3DX@@YAHPAUinflate_blocks_state@1@PAUz_stream_s@1@H@Z 004ee76a f   d3dx8:infutil.obj
 0003:000054df       ?inflate_fast@D3DX@@YAHIIPAUinflate_huft_s@1@0PAUinflate_blocks_state@1@PAUz_stream_s@1@@Z 004ee87f f   d3dx8:inffast.obj
 0003:00005824       ??_C@_0BD@LBMCPKOE@zlib?5version?5error?$AA@ 004eebc4     d3dx8:pngread.obj
 0003:00005838       ??_C@_0BC@MCPIPOGP@zlib?5memory?5error?$AA@ 004eebd8     d3dx8:pngread.obj
 0003:0000584c       ??_C@_0BD@CPDHIJBA@Unknown?5zlib?5error?$AA@ 004eebec     d3dx8:pngread.obj
 0003:00005860       ??_C@_0DH@LDFDLODO@Incompatible?5libpng?5version?5in?5a@ 004eec00     d3dx8:pngread.obj
 0003:00005898       ??_C@_0BJ@LAKDHAPN@Missing?5PLTE?5before?5IDAT?$AA@ 004eec38     d3dx8:pngread.obj
 0003:000058b4       ??_C@_0BJ@FFGICIDJ@Missing?5IHDR?5before?5IDAT?$AA@ 004eec54     d3dx8:pngread.obj
 0003:000058d0       ??_C@_0CH@NMANOLCN@PNG?5file?5corrupted?5by?5ASCII?5conv@ 004eec70     d3dx8:pngread.obj
 0003:000058f8       ??_C@_0P@KIMIGLKH@Not?5a?5PNG?5file?$AA@ 004eec98     d3dx8:pngread.obj
 0003:00005908       ??_C@_0BG@OKGHHCLP@Extra?5compressed?5data?$AA@ 004eeca8     d3dx8:pngread.obj
 0003:00005920       ??_C@_0BE@JMOGBNJB@Decompression?5error?$AA@ 004eecc0     d3dx8:pngread.obj
 0003:00005934       ??_C@_0BG@EIEOOJHA@Not?5enough?5image?5data?$AA@ 004eecd4     d3dx8:pngread.obj
 0003:0000594c       ??_C@_0CB@KCPNIGFM@Invalid?5attempt?5to?5read?5row?5data@ 004eecec     d3dx8:pngread.obj
 0003:00005970       ??_C@_0BG@JAHFDNP@Too?5many?5IDAT?8s?5found?$AA@ 004eed10     d3dx8:pngread.obj
 0003:00005988       ??_C@_0DC@MHGEAIEM@Width?5too?5large?5for?5libpng?5to?5pr@ 004eed28     d3dx8:pngget.obj
 0003:000059bc       ??_C@_0CC@JEAKIKEF@png_do_dither?5returned?5rowbytes?$DN@ 004eed5c     d3dx8:pngrtran.obj
 0003:000059e0       ??_C@_0BA@DBGPKIA@NULL?5row?5buffer?$AA@ 004eed80     d3dx8:pngrtran.obj
 0003:000059f0       ??_C@_0BL@GPADEDKN@Call?5to?5NULL?5read?5function?$AA@ 004eed90     d3dx8:pngrio.obj
 0003:00005a0c       ??_C@_0DC@EOBOCMJO@same?5structure?4?5?5Resetting?5write@ 004eedac     d3dx8:pngrio.obj
 0003:00005a40       ??_C@_0EB@NJKELLKM@It?8s?5an?5error?5to?5set?5both?5read_d@ 004eede0     d3dx8:pngrio.obj
 0003:00005a94       ??_C@_0O@BPALFKAJ@Out?5of?5Memory?$AA@ 004eee34     d3dx8:pngmem.obj
 0003:00005f20       ??_C@_0BD@GFBMLKLH@invalid?5chunk?5type?$AA@ 004ef2c0     d3dx8:pngrutil.obj
 0003:00005f34       ??_C@_0CC@FECADCN@Ignoring?5bad?5adaptive?5filter?5typ@ 004ef2d4     d3dx8:pngrutil.obj
 0003:00005f58       ??_C@_09BJGMGMHA@CRC?5error?$AA@ 004ef2f8     d3dx8:pngrutil.obj
 0003:00005f64       ??_C@_0BO@KOOEGEDO@Unknown?5filter?5method?5in?5IHDR?$AA@ 004ef304     d3dx8:pngrutil.obj
 0003:00005f84       ??_C@_0CD@DDOOCEDP@Unknown?5compression?5method?5in?5IH@ 004ef324     d3dx8:pngrutil.obj
 0003:00005fa8       ??_C@_0CB@EMHJMLOA@Unknown?5interlace?5method?5in?5IHDR@ 004ef348     d3dx8:pngrutil.obj
 0003:00005fcc       ??_C@_0DB@FGMBGHOJ@Invalid?5color?5type?1bit?5depth?5com@ 004ef36c     d3dx8:pngrutil.obj
 0003:00006000       ??_C@_0BL@KPIFPGMP@Invalid?5color?5type?5in?5IHDR?$AA@ 004ef3a0     d3dx8:pngrutil.obj
 0003:0000601c       ??_C@_0BK@OAKOLNFJ@Invalid?5bit?5depth?5in?5IHDR?$AA@ 004ef3bc     d3dx8:pngrutil.obj
 0003:00006038       ??_C@_0BL@PKEOJJBA@Invalid?5image?5size?5in?5IHDR?$AA@ 004ef3d8     d3dx8:pngrutil.obj
 0003:00006054       ??_C@_0BD@CLODLFAN@Invalid?5IHDR?5chunk?$AA@ 004ef3f4     d3dx8:pngrutil.obj
 0003:00006068       ??_C@_0BC@KBAKFAAH@Out?5of?5place?5IHDR?$AA@ 004ef408     d3dx8:pngrutil.obj
 0003:0000607c       ??_C@_0CH@GNNEJFAH@Truncating?5incorrect?5tRNS?5chunk?5@ 004ef41c     d3dx8:pngrutil.obj
 0003:000060a4       ??_C@_0BG@HHEHMEJK@Invalid?5palette?5chunk?$AA@ 004ef444     d3dx8:pngrutil.obj
 0003:000060bc       ??_C@_0BF@PMKDIIMG@Duplicate?5PLTE?5chunk?$AA@ 004ef45c     d3dx8:pngrutil.obj
 0003:000060d4       ??_C@_0BI@GEKPHPN@Invalid?5PLTE?5after?5IDAT?$AA@ 004ef474     d3dx8:pngrutil.obj
 0003:000060ec       ??_C@_0BJ@LEBILHKO@Missing?5IHDR?5before?5PLTE?$AA@ 004ef48c     d3dx8:pngrutil.obj
 0003:00006108       ??_C@_0BM@PFCLLCBO@Incorrect?5IEND?5chunk?5length?$AA@ 004ef4a8     d3dx8:pngrutil.obj
 0003:00006124       ??_C@_0BB@BLPFHNNN@No?5image?5in?5file?$AA@ 004ef4c4     d3dx8:pngrutil.obj
 0003:00006138       ??_C@_0DI@KINMKNNO@Ignoring?5incorrect?5gAMA?5value?5wh@ 004ef4d8     d3dx8:pngrutil.obj
 0003:00006170       ??_C@_0BF@IMCFKHDJ@Duplicate?5gAMA?5chunk?$AA@ 004ef510     d3dx8:pngrutil.obj
 0003:00006188       ??_C@_0BI@JEEHFLME@Out?5of?5place?5gAMA?5chunk?$AA@ 004ef528     d3dx8:pngrutil.obj
 0003:000061a0       ??_C@_0BI@POPIJBNN@Invalid?5gAMA?5after?5IDAT?$AA@ 004ef540     d3dx8:pngrutil.obj
 0003:000061b8       ??_C@_0BM@NIAHDFBB@Incorrect?5gAMA?5chunk?5length?$AA@ 004ef558     d3dx8:pngrutil.obj
 0003:000061d4       ??_C@_0BJ@CCOIFGBO@Missing?5IHDR?5before?5gAMA?$AA@ 004ef574     d3dx8:pngrutil.obj
 0003:000061f0       ??_C@_0BE@CEGOJHBA@Unknown?5sRGB?5intent?$AA@ 004ef590     d3dx8:pngrutil.obj
 0003:00006204       ??_C@_0BF@EFDCKHOG@Duplicate?5sRGB?5chunk?$AA@ 004ef5a4     d3dx8:pngrutil.obj
 0003:0000621c       ??_C@_0BI@FNFAFLBL@Out?5of?5place?5sRGB?5chunk?$AA@ 004ef5bc     d3dx8:pngrutil.obj
 0003:00006234       ??_C@_0BI@PGAMKAKH@Invalid?5sRGB?5after?5IDAT?$AA@ 004ef5d4     d3dx8:pngrutil.obj
 0003:0000624c       ??_C@_0BM@FMAJKMKD@Incorrect?5sRGB?5chunk?5length?$AA@ 004ef5ec     d3dx8:pngrutil.obj
 0003:00006268       ??_C@_0BJ@NDJOEJDI@Missing?5IHDR?5before?5sRGB?$AA@ 004ef608     d3dx8:pngrutil.obj
 0003:00006284       ??_C@_0CK@JMGMOHJA@tRNS?5chunk?5not?5allowed?5with?5alph@ 004ef624     d3dx8:pngrutil.obj
 0003:000062b0       ??_C@_0BM@JNMFOMLO@Incorrect?5tRNS?5chunk?5length?$AA@ 004ef650     d3dx8:pngrutil.obj
 0003:000062cc       ??_C@_0BF@HALLDFIL@Duplicate?5tRNS?5chunk?$AA@ 004ef66c     d3dx8:pngrutil.obj
 0003:000062e4       ??_C@_0BI@MMDCNIMN@Invalid?5tRNS?5after?5IDAT?$AA@ 004ef684     d3dx8:pngrutil.obj
 0003:000062fc       ??_C@_0BH@JJNMONHM@Zero?5length?5tRNS?5chunk?$AA@ 004ef69c     d3dx8:pngrutil.obj
 0003:00006314       ??_C@_0BJ@NIHNNFHD@Missing?5PLTE?5before?5tRNS?$AA@ 004ef6b4     d3dx8:pngrutil.obj
 0003:00006330       ??_C@_0BJ@DNLGINLH@Missing?5IHDR?5before?5tRNS?$AA@ 004ef6d0     d3dx8:pngrutil.obj
 0003:0000634c       ??_C@_0BH@OMJPKJPP@unknown?5critical?5chunk?$AA@ 004ef6ec     d3dx8:pngrutil.obj
 0003:00006364       ??_C@_0BH@KJLLHDND@Extra?5compression?5data?$AA@ 004ef704     d3dx8:pngrutil.obj
 0003:0000637c       ??_C@_0BE@JLEKBIKH@Decompression?5Error?$AA@ 004ef71c     d3dx8:pngrutil.obj
 0003:000063dc       ??_C@_0BF@CJFPCCEG@incompatible?5version?$AA@ 004ef77c     d3dx8:zutil.obj
 0003:000063f4       ??_C@_0N@DFPGLBGC@buffer?5error?$AA@ 004ef794     d3dx8:zutil.obj
 0003:00006404       ??_C@_0BE@OGGJBMCE@insufficient?5memory?$AA@ 004ef7a4     d3dx8:zutil.obj
 0003:00006418       ??_C@_0L@HAHMBNLP@data?5error?$AA@ 004ef7b8     d3dx8:zutil.obj
 0003:00006424       ??_C@_0N@MKKNPMJD@stream?5error?$AA@ 004ef7c4     d3dx8:zutil.obj
 0003:00006434       ??_C@_0L@KIJFAKBJ@file?5error?$AA@ 004ef7d4     d3dx8:zutil.obj
 0003:00006440       ??_C@_0L@FNAOCBOG@stream?5end?$AA@ 004ef7e0     d3dx8:zutil.obj
 0003:0000644c       ??_C@_0DP@GHHOJINM@Width?5too?5large?5to?5process?5image@ 004ef7ec     d3dx8:pngset.obj
 0004:00000000       ?RemoveEntryList@@YGPAU_LIST_ENTRY@@PAU1@@Z 004efa20 f i dsound:dsapi.obj
 0004:00000030       ?Raise@CIrql@DirectSound@@QAEXXZ 004efa50 f i dsound:dsapi.obj
 0004:00000052       ?Lower@CIrql@DirectSound@@QAEXXZ 004efa72 f i dsound:dsapi.obj
 0004:00000069       ?Save@CFpState@DirectSound@@QAEXXZ 004efa89 f i dsound:dsapi.obj
 0004:0000008e       ?Restore@CFpState@DirectSound@@QAEXXZ 004efaae f i dsound:dsapi.obj
 0004:000000ac       ?AddRef@CRefCount@DirectSound@@UAGKXZ 004efacc f i dsound:dsapi.obj
 0004:000000b9       ?AbsoluteRelease@CRefCount@DirectSound@@UAGXXZ 004efad9 f i dsound:dsapi.obj
 0004:000000ca       ?Release@CRefCount@DirectSound@@UAGKXZ 004efaea f i dsound:dsapi.obj
 0004:000000f4       ?AmplitudeToVolume@Math@DirectSound@@YGJM@Z 004efb14 f i dsound:dsapi.obj
 0004:00000141       ?CalcPolarCoords@CHRTFSource@DirectSound@@SGXKABU_D3DVECTOR@@000MPAM1@Z 004efb61 f i dsound:dsapi.obj
 0004:0000016a       ?GetDistanceVolume@CHRTFSource@DirectSound@@SGXMMMPBMKMHPAJ@Z 004efb8a f i dsound:dsapi.obj
 0004:000001a1       ?GetConeVolume@CHRTFSource@DirectSound@@SGXKKJMPAJ@Z 004efbc1 f i dsound:dsapi.obj
 0004:000001c1       ?GetFrontRearVolume@CHRTFSource@DirectSound@@SGXMMMMHPAJ0@Z 004efbe1 f i dsound:dsapi.obj
 0004:000001f5       ?GetCenterVolume@CHRTFSource@DirectSound@@SGXMMPAJ0@Z 004efc15 f i dsound:dsapi.obj
 0004:00000217       ?GetDopplerPitch@CHRTFSource@DirectSound@@SGXMMMPAJ@Z 004efc37 f i dsound:dsapi.obj
 0004:0000023e       ?DirectSoundEnterCriticalSection@@YGHXZ 004efc5e f i dsound:dsapi.obj
 0004:0000025c       _IDirectSound_Release@4    004efc7c f   dsound:dsapi.obj
 0004:00000272       _IDirectSoundBuffer_Unlock@20 004efc92 f   dsound:dsapi.obj
 0004:00000277       _IDirectSoundBuffer_Release@4 004efc97 f   dsound:dsapi.obj
 0004:0000028d       _XAudioCalculatePitch@4    004efcad f   dsound:dsapi.obj
 0004:000002d7       ?SetEffectImageLocations@CDirectSoundSettings@DirectSound@@QAEXPBU_DSEFFECTIMAGELOC@@@Z 004efcf7 f   dsound:dsapi.obj
 0004:000002f9       ??0CDirectSound@DirectSound@@QAE@XZ 004efd19 f   dsound:dsapi.obj
 0004:00000316       ??1CDirectSound@DirectSound@@UAE@XZ 004efd36 f   dsound:dsapi.obj
 0004:00000350       ?DoWork@CDirectSound@DirectSound@@QAGXXZ 004efd70 f   dsound:dsapi.obj
 0004:00000381       ?IncludeSubMixBin@CDirectSoundVoiceSettings@DirectSound@@IAEXK@Z 004efda1 f   dsound:dsapi.obj
 0004:000003ef       ??1CDirectSoundVoice@DirectSound@@UAE@XZ 004efe0f f   dsound:dsapi.obj
 0004:0000043c       ?SetVolume@CDirectSoundVoice@DirectSound@@QAGJJ@Z 004efe5c f   dsound:dsapi.obj
 0004:00000458       ?SetNotificationPositions@CDirectSoundBufferSettings@DirectSound@@QAEJKPBU_DSBPOSITIONNOTIFY@@@Z 004efe78 f   dsound:dsapi.obj
 0004:0000052d       ??1CDirectSoundBuffer@DirectSound@@UAE@XZ 004eff4d f   dsound:dsapi.obj
 0004:00000560       ?AddRef@CDirectSound@DirectSound@@UAGKXZ 004eff80 f i dsound:dsapi.obj
 0004:00000560       ?AddRef@CDirectSoundBuffer@DirectSound@@UAGKXZ 004eff80 f i dsound:dsapi.obj
 0004:000005a7       ?Release@CDirectSoundBuffer@DirectSound@@UAGKXZ 004effc7 f i dsound:dsapi.obj
 0004:000005f1       ?Play@CDirectSoundBuffer@DirectSound@@QAGJKKK@Z 004f0011 f   dsound:dsapi.obj
 0004:00000642       ?Stop@CDirectSoundBuffer@DirectSound@@QAGJXZ 004f0062 f   dsound:dsapi.obj
 0004:00000691       ?GetStatus@CDirectSoundBuffer@DirectSound@@QAGJPAK@Z 004f00b1 f   dsound:dsapi.obj
 0004:000006e2       ?SetLoopRegion@CDirectSoundBuffer@DirectSound@@QAGJKK@Z 004f0102 f   dsound:dsapi.obj
 0004:00000767       ?GetCurrentPosition@CDirectSoundBuffer@DirectSound@@QAGJPAK0@Z 004f0187 f   dsound:dsapi.obj
 0004:000007bc       ?Lock@CDirectSoundBuffer@DirectSound@@QAGJKKPAPAXPAK01K@Z 004f01dc f   dsound:dsapi.obj
 0004:0000089e       ?SetCurrentPosition@CDirectSoundBuffer@DirectSound@@QAGJK@Z 004f02be f   dsound:dsapi.obj
 0004:000008ef       ?GetVoiceData@CDirectSound3DCalculator@DirectSound@@SGXPBU_DS3DCALCLISTENER@@PBU_DS3DCALCBUFFER@@PBU_DS3DCALCI3DL2LISTENER@@PBU_DS3DCALCI3DL2BUFFER@@PAU_DS3DCALCVOICEDATA@@@Z 004f030f f   dsound:dsapi.obj
 0004:00000bd0       ?SetVolume@CDirectSoundBuffer@DirectSound@@QAGJJ@Z 004f05f0 f i dsound:dsapi.obj
 0004:00000c1e       _IDirectSoundBuffer_SetVolume@8 004f063e f   dsound:dsapi.obj
 0004:00000c3a       _IDirectSoundBuffer_Play@16 004f065a f   dsound:dsapi.obj
 0004:00000c5e       _IDirectSoundBuffer_Stop@4 004f067e f   dsound:dsapi.obj
 0004:00000c76       _IDirectSoundBuffer_SetLoopRegion@12 004f0696 f   dsound:dsapi.obj
 0004:00000c96       _IDirectSoundBuffer_GetStatus@8 004f06b6 f   dsound:dsapi.obj
 0004:00000cb2       _IDirectSoundBuffer_GetCurrentPosition@12 004f06d2 f   dsound:dsapi.obj
 0004:00000cd2       _IDirectSoundBuffer_SetCurrentPosition@8 004f06f2 f   dsound:dsapi.obj
 0004:00000cee       _IDirectSoundBuffer_Lock@32 004f070e f   dsound:dsapi.obj
 0004:00000d1e       ??_GCDirectSound@DirectSound@@UAEPAXI@Z 004f073e f i dsound:dsapi.obj
 0004:00000d1e       ??_ECDirectSound@DirectSound@@UAEPAXI@Z 004f073e f i dsound:dsapi.obj
 0004:00000d39       ?SetMixBins@CDirectSoundVoiceSettings@DirectSound@@QAEXPBU_DSMIXBINS@@@Z 004f0759 f   dsound:dsapi.obj
 0004:00000e04       ?SetOutputBuffer@CDirectSoundVoiceSettings@DirectSound@@QAEXPAVCDirectSoundBuffer@2@@Z 004f0824 f   dsound:dsapi.obj
 0004:00000ed7       ??0CDirectSoundVoice@DirectSound@@QAE@PAVCDirectSound@1@@Z 004f08f7 f   dsound:dsapi.obj
 0004:00000f01       ??_ECDirectSoundVoice@DirectSound@@UAEPAXI@Z 004f0921 f i dsound:dsapi.obj
 0004:00000f01       ??_GCDirectSoundVoice@DirectSound@@UAEPAXI@Z 004f0921 f i dsound:dsapi.obj
 0004:00000f1c       ?Initialize@CDirectSoundVoice@DirectSound@@QAGXPAVCMcpxVoiceClient@2@PAVCDirectSoundVoiceSettings@2@@Z 004f093c f   dsound:dsapi.obj
 0004:00000fb3       ?SetPlayRegion@CDirectSoundBufferSettings@DirectSound@@QAEXKK@Z 004f09d3 f   dsound:dsapi.obj
 0004:00000fd7       ??0CDirectSoundBuffer@DirectSound@@QAE@PAVCDirectSound@1@@Z 004f09f7 f   dsound:dsapi.obj
 0004:00000fef       ??_ECDirectSoundBuffer@DirectSound@@UAEPAXI@Z 004f0a0f f i dsound:dsapi.obj
 0004:00000fef       ??_GCDirectSoundBuffer@DirectSound@@UAEPAXI@Z 004f0a0f f i dsound:dsapi.obj
 0004:0000100a       ?SetPlayRegion@CDirectSoundBuffer@DirectSound@@QAGJKK@Z 004f0a2a f   dsound:dsapi.obj
 0004:0000108a       _IDirectSoundBuffer_SetPlayRegion@12 004f0aaa f   dsound:dsapi.obj
 0004:000010aa       ?Release@CDirectSound@DirectSound@@UAGKXZ 004f0aca f   dsound:dsapi.obj
 0004:00001173       ??1CDirectSoundVoiceSettings@DirectSound@@UAE@XZ 004f0b93 f   dsound:dsapi.obj
 0004:000011c0       ?SetFormat@CDirectSoundVoiceSettings@DirectSound@@QAEHPBUtWAVEFORMATEX@@H@Z 004f0be0 f   dsound:dsapi.obj
 0004:00001246       ?SetFormat@CDirectSoundVoice@DirectSound@@QAGJPBUtWAVEFORMATEX@@@Z 004f0c66 f   dsound:dsapi.obj
 0004:0000128a       ?SetBufferData@CDirectSoundBufferSettings@DirectSound@@QAEJPAXK@Z 004f0caa f   dsound:dsapi.obj
 0004:00001316       ?SetBufferData@CDirectSoundBuffer@DirectSound@@QAGJPAXK@Z 004f0d36 f   dsound:dsapi.obj
 0004:000013c4       ?Calculate3D@CDirectSound3DCalculator@DirectSound@@SGXPAU_DS3DCALCLISTENER@@PAU_DS3DCALCBUFFER@@@Z 004f0de4 f   dsound:dsapi.obj
 0004:00001604       ?SetFormat@CDirectSoundBuffer@DirectSound@@QAGJPBUtWAVEFORMATEX@@@Z 004f1024 f i dsound:dsapi.obj
 0004:00001652       _IDirectSoundBuffer_SetFormat@8 004f1072 f   dsound:dsapi.obj
 0004:0000166e       _IDirectSoundBuffer_SetBufferData@12 004f108e f   dsound:dsapi.obj
 0004:0000168e       ??0CDirectSoundSettings@DirectSound@@QAE@XZ 004f10ae f   dsound:dsapi.obj
 0004:0000171d       ??_GCDirectSoundSettings@DirectSound@@UAEPAXI@Z 004f113d f i dsound:dsapi.obj
 0004:0000171d       ??_ECRefCount@DirectSound@@UAEPAXI@Z 004f113d f i dsound:dsapi.obj
 0004:0000171d       ??_GCRefCount@DirectSound@@UAEPAXI@Z 004f113d f i dsound:dsapi.obj
 0004:0000171d       ??_ECDirectSoundSettings@DirectSound@@UAEPAXI@Z 004f113d f i dsound:dsapi.obj
 0004:00001739       ??_GCDirectSoundVoiceSettings@DirectSound@@UAEPAXI@Z 004f1159 f i dsound:dsapi.obj
 0004:00001739       ??_ECDirectSoundVoiceSettings@DirectSound@@UAEPAXI@Z 004f1159 f i dsound:dsapi.obj
 0004:00001754       ?Initialize@CDirectSoundVoiceSettings@DirectSound@@QAEJKPBUtWAVEFORMATEX@@PBU_DSMIXBINS@@@Z 004f1174 f   dsound:dsapi.obj
 0004:00001856       ??1CDirectSoundBufferSettings@DirectSound@@UAE@XZ 004f1276 f   dsound:dsapi.obj
 0004:0000187b       ?Initialize@CDirectSoundBufferSettings@DirectSound@@QAEJPBU_DSBUFFERDESC@@@Z 004f129b f   dsound:dsapi.obj
 0004:000018e0       ?Initialize@CDirectSoundBuffer@DirectSound@@QAGJPBU_DSBUFFERDESC@@@Z 004f1300 f   dsound:dsapi.obj
 0004:000019c7       ?CreateSoundBuffer@CDirectSound@DirectSound@@QAGJPBU_DSBUFFERDESC@@PAPAUIDirectSoundBuffer@@PAUIUnknown@@@Z 004f13e7 f   dsound:dsapi.obj
 0004:00001a63       ??_GCDirectSoundBufferSettings@DirectSound@@UAEPAXI@Z 004f1483 f i dsound:dsapi.obj
 0004:00001a63       ??_ECDirectSoundBufferSettings@DirectSound@@UAEPAXI@Z 004f1483 f i dsound:dsapi.obj
 0004:00001a7e       _IDirectSound_CreateSoundBuffer@16 004f149e f   dsound:dsapi.obj
 0004:00001aa2       ?Initialize@CDirectSound@DirectSound@@QAGJXZ 004f14c2 f   dsound:dsapi.obj
 0004:00001bdb       ?DirectSoundCreateInternal@@YGJPAPAVCDirectSound@DirectSound@@@Z 004f15fb f   dsound:dsapi.obj
 0004:00001c48       _DirectSoundCreate@12      004f1668 f   dsound:dsapi.obj
 0004:00001c8f       ?PoolAlloc@CMemoryManager@DirectSound@@SGPAXW4DSOUND_POOL_TAG@@KH@Z 004f16af f   dsound:dscommon.obj
 0004:00001cd6       ?PoolFree@CMemoryManager@DirectSound@@SGXPAX@Z 004f16f6 f   dsound:dscommon.obj
 0004:00001cee       ?PhysicalAlloc@CMemoryManager@DirectSound@@SGPAXKKKH@Z 004f170e f   dsound:dscommon.obj
 0004:00001d3d       ?PhysicalFree@CMemoryManager@DirectSound@@SGXPAX@Z 004f175d f   dsound:dscommon.obj
 0004:00001d55       ?MemAlloc@CMemoryManager@DirectSound@@SGPAXW4DSOUND_POOL_TAG@@KH@Z 004f1775 f   dsound:dscommon.obj
 0004:00001dbd       ?MemFree@CMemoryManager@DirectSound@@SGXPAX@Z 004f17dd f   dsound:dscommon.obj
 0004:00001df1       ?PcmToInternalFormat@WaveFormat@DirectSound@@YGXPAUDSWAVEFORMAT@@PBUtWAVEFORMATEX@@@Z 004f1811 f   dsound:dscommon.obj
 0004:00001e1a       ?AdpcmToInternalFormat@WaveFormat@DirectSound@@YGXPAUDSWAVEFORMAT@@PBUxbox_adpcmwaveformat_tag@@@Z 004f183a f   dsound:dscommon.obj
 0004:00001e41       ?ExtensibleToInternalFormat@WaveFormat@DirectSound@@YGKPAUDSWAVEFORMAT@@PBUWAVEFORMATEXTENSIBLE@@@Z 004f1861 f   dsound:dscommon.obj
 0004:00001e8a       ?CreateInternalFormat@WaveFormat@DirectSound@@YGKPAUDSWAVEFORMAT@@PBUtWAVEFORMATEX@@@Z 004f18aa f   dsound:dscommon.obj
 0004:00001ee3       ?CalcNormOrient@CFullHRTFListener@DirectSound@@SGXABU_D3DVECTOR@@0PAU3@@Z 004f1903 f   dsound:hrtf.obj
 0004:00001f20       ??0CMcpxGPDspManager@DirectSound@@QAE@XZ 004f1940 f   dsound:gpdsp.obj
 0004:00001f3f       ?Initialize@CMcpxGPDspManager@DirectSound@@QAEXXZ 004f195f f   dsound:gpdsp.obj
 0004:00001fb4       ?AC3SetOutputBuffer@CMcpxGPDspManager@DirectSound@@QAEXPAUMCPX_ALLOC_CONTEXT@@K@Z 004f19d4 f   dsound:gpdsp.obj
 0004:00001fc8       ?SetMultipassBuffer@CMcpxGPDspManager@DirectSound@@QAEXPAUMCPX_ALLOC_CONTEXT@@K@Z 004f19e8 f   dsound:gpdsp.obj
 0004:00001fdf       ??1CMcpxGPDspManager@DirectSound@@QAE@XZ 004f19ff f   dsound:gpdsp.obj
 0004:00002020       ?MoveEntryTailList@@YGPAU_LIST_ENTRY@@PAU1@0@Z 004f1a40 f i dsound:mcpapu.obj
 0004:0000204a       ??0CMcpxAPU@DirectSound@@QAE@PAVCDirectSoundSettings@1@@Z 004f1a6a f   dsound:mcpapu.obj
 0004:000020e2       ?Terminate@CMcpxAPU@DirectSound@@IAEXXZ 004f1b02 f   dsound:mcpapu.obj
 0004:00002145       ?AllocateVoices@CMcpxAPU@DirectSound@@QAEJPAVCMcpxVoiceClient@2@@Z 004f1b65 f   dsound:mcpapu.obj
 0004:000021d6       ?FreeVoices@CMcpxAPU@DirectSound@@QAEXPAVCMcpxVoiceClient@2@@Z 004f1bf6 f   dsound:mcpapu.obj
 0004:00002243       ?WaitForMagicWrite@CMcpxAPU@DirectSound@@IAEXXZ 004f1c63 f   dsound:mcpapu.obj
 0004:000022a6       ?ServiceVoiceInterrupt@CMcpxAPU@DirectSound@@IAEXXZ 004f1cc6 f   dsound:mcpapu.obj
 0004:0000231f       ?GetInterruptStatusCallback@CMcpxAPU@DirectSound@@CGEPAX@Z 004f1d3f f   dsound:mcpapu.obj
 0004:0000234b       ?HandleDeltaPanic@CMcpxAPU@DirectSound@@IAEXXZ 004f1d6b f   dsound:mcpapu.obj
 0004:000023b9       ?HandleIdleVoice@CMcpxAPU@DirectSound@@IAEXK@Z 004f1dd9 f   dsound:mcpapu.obj
 0004:00002409       ?ScheduleDeferredCommandLow@CMcpxAPU@DirectSound@@IAEHPAUMCPX_DEFERRED_COMMAND@@@Z 004f1e29 f   dsound:mcpapu.obj
 0004:0000242e       ?RemoveDeferredCommandHigh@CMcpxAPU@DirectSound@@IAEXPAUMCPX_DEFERRED_COMMAND@@@Z 004f1e4e f   dsound:mcpapu.obj
 0004:00002490       ?ServiceDeferredCommandsHigh@CMcpxAPU@DirectSound@@IAEXXZ 004f1eb0 f   dsound:mcpapu.obj
 0004:00002512       ?ServiceDeferredCommandsLow@CMcpxAPU@DirectSound@@IAEXXZ 004f1f32 f   dsound:mcpapu.obj
 0004:000025a4       ?SetHRTFHeadroom@CMcpxAPU@DirectSound@@QAEJK@Z 004f1fc4 f   dsound:mcpapu.obj
 0004:000025db       ?SetMixBinHeadroom@CMcpxAPU@DirectSound@@QAEJK@Z 004f1ffb f   dsound:mcpapu.obj
 0004:00002620       ?AddSynchVoice@CMcpxAPU@DirectSound@@QAEJPAVCMcpxVoiceClient@2@@Z 004f2040 f   dsound:mcpapu.obj
 0004:00002647       ?RemoveSynchVoice@CMcpxAPU@DirectSound@@QAEXPAVCMcpxVoiceClient@2@@Z 004f2067 f   dsound:mcpapu.obj
 0004:00002658       ?DeferredCommandDpcRoutine@CMcpxAPU@DirectSound@@CGXPAU_KDPC@@PAX11@Z 004f2078 f i dsound:mcpapu.obj
 0004:00002664       ?ApuShutdownNotifier@CMcpxAPU@DirectSound@@CGXPAU_HAL_SHUTDOWN_REGISTRATION@@@Z 004f2084 f i dsound:mcpapu.obj
 0004:00002680       ??1CMcpxAPU@DirectSound@@UAE@XZ 004f20a0 f   dsound:mcpapu.obj
 0004:0000272b       ?ServiceApuInterruptDpc@CMcpxAPU@DirectSound@@IAEXXZ 004f214b f   dsound:mcpapu.obj
 0004:0000276d       ?HandleSoftwareMethod@CMcpxAPU@DirectSound@@IAEXKK@Z 004f218d f   dsound:mcpapu.obj
 0004:00002783       ?RemoveDeferredCommand@CMcpxAPU@DirectSound@@QAEXPAUMCPX_DEFERRED_COMMAND@@@Z 004f21a3 f   dsound:mcpapu.obj
 0004:000027c7       ?ApuInterruptDpcRoutine@CMcpxAPU@DirectSound@@CGXPAU_KDPC@@PAX11@Z 004f21e7 f i dsound:mcpapu.obj
 0004:000027d3       ??_GCMcpxAPU@DirectSound@@UAEPAXI@Z 004f21f3 f i dsound:mcpapu.obj
 0004:000027d3       ??_ECMcpxAPU@DirectSound@@UAEPAXI@Z 004f21f3 f i dsound:mcpapu.obj
 0004:000027ee       ?HandleFETrap@CMcpxAPU@DirectSound@@IAEXXZ 004f220e f   dsound:mcpapu.obj
 0004:00002835       ?ScheduleDeferredCommandHigh@CMcpxAPU@DirectSound@@IAEHPAUMCPX_DEFERRED_COMMAND@@@Z 004f2255 f   dsound:mcpapu.obj
 0004:0000290b       ?ServiceApuInterrupt@CMcpxAPU@DirectSound@@IAEHXZ 004f232b f   dsound:mcpapu.obj
 0004:00002960       ?ScheduleDeferredCommand@CMcpxAPU@DirectSound@@QAEHPAUMCPX_DEFERRED_COMMAND@@@Z 004f2380 f   dsound:mcpapu.obj
 0004:000029a7       ?ApuInterruptServiceRoutine@CMcpxAPU@DirectSound@@CGEPAU_KINTERRUPT@@PAX@Z 004f23c7 f i dsound:mcpapu.obj
 0004:000029b3       ?Initialize@CMcpxAPU@DirectSound@@QAEJXZ 004f23d3 f   dsound:mcpapu.obj
 0004:00002aa5       ?GetStatus@CMcpxNotifier@DirectSound@@QAEHK@Z 004f24c5 f i dsound:mcpstrm.obj
 0004:00002ac3       ?BytesToSamples@CMcpxVoiceClient@DirectSound@@IAEKK@Z 004f24e3 f i dsound:mcpstrm.obj
 0004:00002adc       ?SamplesToBytes@CMcpxVoiceClient@DirectSound@@IAEKK@Z 004f24fc f i dsound:mcpstrm.obj
 0004:00002afe       ?RatioToPitch@Math@DirectSound@@YGJM@Z 004f251e f   dsound:dsmath.obj
 0004:00002b1c       ?CreateMarker@CMcpxBufferSgeHeap@DirectSound@@IAEPAUSGEHEAPRUNMARKER@@PAU3@GGPAU_LIST_ENTRY@@@Z 004f253c f i dsound:heap.obj
 0004:00002b52       ?CreateMarker@CMcpxSlopMemoryHeap@DirectSound@@IAEPAUSLOPRUNMARKER@@PAXKPAU_LIST_ENTRY@@@Z 004f2572 f i dsound:heap.obj
 0004:00002b79       ??0CMcpxBufferSgeHeap@DirectSound@@QAE@XZ 004f2599 f   dsound:heap.obj
 0004:00002b99       ??1CMcpxBufferSgeHeap@DirectSound@@UAE@XZ 004f25b9 f   dsound:heap.obj
 0004:00002bbb       ?Initialize@CMcpxBufferSgeHeap@DirectSound@@QAEJG@Z 004f25db f   dsound:heap.obj
 0004:00002c46       ?AllocRun@CMcpxBufferSgeHeap@DirectSound@@IAEPAUSGEHEAPRUNMARKER@@PAXG@Z 004f2666 f   dsound:heap.obj
 0004:00002d17       ?CoalesceRuns@CMcpxBufferSgeHeap@DirectSound@@IAEPAUSGEHEAPRUNMARKER@@PAU3@0@Z 004f2737 f   dsound:heap.obj
 0004:00002d38       ?MapBuffer@CMcpxBufferSgeHeap@DirectSound@@KGXKPAXK@Z 004f2758 f   dsound:heap.obj
 0004:00002da5       ?UnmapBuffer@CMcpxBufferSgeHeap@DirectSound@@KGXPAXK@Z 004f27c5 f   dsound:heap.obj
 0004:00002dbc       ??0CMcpxSlopMemoryHeap@DirectSound@@QAE@XZ 004f27dc f   dsound:heap.obj
 0004:00002de1       ??1CMcpxSlopMemoryHeap@DirectSound@@UAE@XZ 004f2801 f   dsound:heap.obj
 0004:00002e42       ?AddRun@CMcpxSlopMemoryHeap@DirectSound@@QAEHPAXKK@Z 004f2862 f   dsound:heap.obj
 0004:00002ec6       ?Alloc@CMcpxSlopMemoryHeap@DirectSound@@QAEPAXK@Z 004f28e6 f   dsound:heap.obj
 0004:00002fa7       ?CoalesceRuns@CMcpxSlopMemoryHeap@DirectSound@@IAEPAUSLOPRUNMARKER@@PAU3@0@Z 004f29c7 f   dsound:heap.obj
 0004:00002fc2       ??_GCMcpxBufferSgeHeap@DirectSound@@UAEPAXI@Z 004f29e2 f i dsound:heap.obj
 0004:00002fc2       ??_ECMcpxBufferSgeHeap@DirectSound@@UAEPAXI@Z 004f29e2 f i dsound:heap.obj
 0004:00002fdd       ?Alloc@CMcpxBufferSgeHeap@DirectSound@@QAEPAUSGEHEAPRUNMARKER@@PAXK@Z 004f29fd f   dsound:heap.obj
 0004:0000306c       ?FreeRun@CMcpxBufferSgeHeap@DirectSound@@IAEXPAUSGEHEAPRUNMARKER@@@Z 004f2a8c f   dsound:heap.obj
 0004:000030c8       ??_GCMcpxSlopMemoryHeap@DirectSound@@UAEPAXI@Z 004f2ae8 f i dsound:heap.obj
 0004:000030c8       ??_ECMcpxSlopMemoryHeap@DirectSound@@UAEPAXI@Z 004f2ae8 f i dsound:heap.obj
 0004:000030e3       ?Free@CMcpxSlopMemoryHeap@DirectSound@@QAEXPAX@Z 004f2b03 f   dsound:heap.obj
 0004:0000317c       ?Free@CMcpxBufferSgeHeap@DirectSound@@QAEXPAUSGEHEAPRUNMARKER@@@Z 004f2b9c f   dsound:heap.obj
 0004:000031e1       ?GetFilterPair@CHRTFSource@DirectSound@@SGXMMHPAUHRTFFILTERPAIR@@@Z 004f2c01 f i dsound:mcpvoice.obj
 0004:00003203       ?Reset@CMcpxNotifier@DirectSound@@QAEXXZ 004f2c23 f i dsound:mcpvoice.obj
 0004:0000321f       ?Initialize@CMcpxVoiceClient@DirectSound@@UAEJH@Z 004f2c3f f   dsound:mcpvoice.obj
 0004:0000326a       ?SetFormat@CMcpxVoiceClient@DirectSound@@UAEJXZ 004f2c8a f   dsound:mcpvoice.obj
 0004:0000337d       ?ReleaseVoiceResources@CMcpxVoiceClient@DirectSound@@IAEXXZ 004f2d9d f   dsound:mcpvoice.obj
 0004:00003405       ?ConvertMixBinValues@CMcpxVoiceClient@DirectSound@@IAEXPAK0@Z 004f2e25 f   dsound:mcpvoice.obj
 0004:000034b6       ?ConvertVolumeValues@CMcpxVoiceClient@DirectSound@@IAEXPAUMCPX_VOICE_VOLUME@@@Z 004f2ed6 f   dsound:mcpvoice.obj
 0004:0000370a       ?ConvertPitchValue@CMcpxVoiceClient@DirectSound@@IAEXPAK@Z 004f312a f   dsound:mcpvoice.obj
 0004:0000378c       ?GetAntecedentVoice@CMcpxVoiceClient@DirectSound@@AAEXPAEPAPAV12@@Z 004f31ac f   dsound:mcpvoice.obj
 0004:00003800       ?RemoveIdleVoice@CMcpxVoiceClient@DirectSound@@AAEXH@Z 004f3220 f   dsound:mcpvoice.obj
 0004:000039dc       ?RemoveStuckVoice@CMcpxVoiceClient@DirectSound@@AAEXXZ 004f33fc f   dsound:mcpvoice.obj
 0004:00003a41       ?ReleaseVoice@CMcpxVoiceClient@DirectSound@@IAEXXZ 004f3461 f   dsound:mcpvoice.obj
 0004:00003ac5       ?CheckStuckVoice@CMcpxVoiceClient@DirectSound@@IAEXXZ 004f34e5 f   dsound:mcpvoice.obj
 0004:00003b19       ?PauseVoice@CMcpxVoiceClient@DirectSound@@IAEJK@Z 004f3539 f   dsound:mcpvoice.obj
 0004:00003bff       ?LoadHRTFFilter@CMcpxVoiceClient@DirectSound@@QAEXPBU_DS3DCALCBUFFER@@PBU_DS3DCALCVOICEDATA@@@Z 004f361f f   dsound:mcpvoice.obj
 0004:00003d6e       ?SetFilter@CMcpxVoiceClient@DirectSound@@QAEJPBU_DSFILTERDESC@@@Z 004f378e f   dsound:mcpvoice.obj
 0004:00003eb8       ?GetSslPosition@CMcpxVoiceClient@DirectSound@@IAEKXZ 004f38d8 f   dsound:mcpvoice.obj
 0004:00003f43       ?Initialize@CMcpxNotifier@DirectSound@@QAEXKK@Z 004f3963 f i dsound:mcpvoice.obj
 0004:00003f61       ?Initialize@CMcpxVoiceNotifier@DirectSound@@QAEXG@Z 004f3981 f i dsound:mcpvoice.obj
 0004:00003f78       ?AllocateVoiceResources@CMcpxVoiceClient@DirectSound@@IAEJXZ 004f3998 f   dsound:mcpvoice.obj
 0004:000040f2       ?SetMixBins@CMcpxVoiceClient@DirectSound@@QAEJXZ 004f3b12 f   dsound:mcpvoice.obj
 0004:000041b3       ?SetVolume@CMcpxVoiceClient@DirectSound@@QAEJXZ 004f3bd3 f   dsound:mcpvoice.obj
 0004:0000424b       ?SetPitch@CMcpxVoiceClient@DirectSound@@QAEJXZ 004f3c6b f   dsound:mcpvoice.obj
 0004:000042dd       ?WaitForVoiceOff@CMcpxVoiceClient@DirectSound@@IAEXXZ 004f3cfd f   dsound:mcpvoice.obj
 0004:000042f9       ?Apply3dSettings@CMcpxVoiceClient@DirectSound@@QAEXXZ 004f3d19 f   dsound:mcpvoice.obj
 0004:00004362       ??0CMcpxVoiceClient@DirectSound@@QAE@PAVCMcpxAPU@1@PAVCDirectSoundVoiceSettings@1@@Z 004f3d82 f   dsound:mcpvoice.obj
 0004:000043c7       ?DeactivateVoice@CMcpxVoiceClient@DirectSound@@IAEXH@Z 004f3de7 f   dsound:mcpvoice.obj
 0004:00004501       ?Commit3dSettings@CMcpxVoiceClient@DirectSound@@QAEXXZ 004f3f21 f   dsound:mcpvoice.obj
 0004:00004586       ?DisconnectVoice@CMcpxVoiceClient@DirectSound@@QAEJXZ 004f3fa6 f   dsound:mcpvoice.obj
 0004:0000468d       ??1CMcpxVoiceClient@DirectSound@@UAE@XZ 004f40ad f   dsound:mcpvoice.obj
 0004:000046c5       ?ActivateVoice@CMcpxVoiceClient@DirectSound@@IAEXXZ 004f40e5 f   dsound:mcpvoice.obj
 0004:00004891       ??_ECMcpxVoiceClient@DirectSound@@UAEPAXI@Z 004f42b1 f i dsound:mcpvoice.obj
 0004:00004891       ??_GCMcpxVoiceClient@DirectSound@@UAEPAXI@Z 004f42b1 f i dsound:mcpvoice.obj
 0004:000048b0       ?MapBuffer@CMcpxBuffer@DirectSound@@IAEXK@Z 004f42d0 f   dsound:mcpbuf.obj
 0004:00004922       ?UnmapBuffer@CMcpxBuffer@DirectSound@@IAEXXZ 004f4342 f   dsound:mcpbuf.obj
 0004:00004965       ?PlayFromCurrent@CMcpxBuffer@DirectSound@@IAEXK@Z 004f4385 f   dsound:mcpbuf.obj
 0004:00004aa6       ?PlayFromPosition@CMcpxBuffer@DirectSound@@IAEXKK@Z 004f44c6 f   dsound:mcpbuf.obj
 0004:00004c25       ?Pause@CMcpxBuffer@DirectSound@@QAEJK@Z 004f4645 f   dsound:mcpbuf.obj
 0004:00004c98       ?GetStatus@CMcpxBuffer@DirectSound@@QAEJPAK@Z 004f46b8 f   dsound:mcpbuf.obj
 0004:00004cda       ?GetCurrentPosition@CMcpxBuffer@DirectSound@@QAEJPAK0@Z 004f46fa f   dsound:mcpbuf.obj
 0004:00004db9       ?ServiceVoiceInterrupt@CMcpxBuffer@DirectSound@@MAEHXZ 004f47d9 f   dsound:mcpbuf.obj
 0004:00004e00       ?NotifyToPosition@CMcpxBuffer@DirectSound@@IAEXKH@Z 004f4820 f   dsound:mcpbuf.obj
 0004:00004e61       ?NotifyStop@CMcpxBuffer@DirectSound@@IAEXXZ 004f4881 f   dsound:mcpbuf.obj
 0004:00004e9b       ?ScheduleDeferredCommand@CMcpxBuffer@DirectSound@@MAEHK_JK@Z 004f48bb f   dsound:mcpbuf.obj
 0004:00004eca       ?RemoveDeferredCommand@CMcpxBuffer@DirectSound@@MAEXK@Z 004f48ea f   dsound:mcpbuf.obj
 0004:00004ee4       ??0CMcpxBuffer@DirectSound@@QAE@PAVCMcpxAPU@1@PAVCDirectSoundBufferSettings@1@@Z 004f4904 f   dsound:mcpbuf.obj
 0004:00004f40       ?MapInputBuffer@CMcpxBuffer@DirectSound@@IAEJXZ 004f4960 f   dsound:mcpbuf.obj
 0004:00004fa5       ?MapEffectsBuffer@CMcpxBuffer@DirectSound@@IAEXXZ 004f49c5 f   dsound:mcpbuf.obj
 0004:00004ff7       ?OnPositionDelta@CMcpxBuffer@DirectSound@@IAEXXZ 004f4a17 f   dsound:mcpbuf.obj
 0004:00005096       ?AllocateBufferResources@CMcpxBuffer@DirectSound@@IAEJXZ 004f4ab6 f   dsound:mcpbuf.obj
 0004:000050e4       ?Play@CMcpxBuffer@DirectSound@@QAEJK@Z 004f4b04 f   dsound:mcpbuf.obj
 0004:00005194       ?SetPlayRegion@CMcpxBuffer@DirectSound@@QAEJXZ 004f4bb4 f   dsound:mcpbuf.obj
 0004:000051df       ?SetLoopRegion@CMcpxBuffer@DirectSound@@QAEJXZ 004f4bff f   dsound:mcpbuf.obj
 0004:000051fd       ?Stop@CMcpxBuffer@DirectSound@@QAEJK@Z 004f4c1d f   dsound:mcpbuf.obj
 0004:0000528d       ?SetCurrentPosition@CMcpxBuffer@DirectSound@@QAEJK@Z 004f4cad f   dsound:mcpbuf.obj
 0004:00005383       ?Initialize@CMcpxBuffer@DirectSound@@QAEJXZ 004f4da3 f   dsound:mcpbuf.obj
 0004:000053a7       ?SetBufferData@CMcpxBuffer@DirectSound@@QAEJXZ 004f4dc7 f   dsound:mcpbuf.obj
 0004:000053c1       ?ReleaseBufferResources@CMcpxBuffer@DirectSound@@IAEXXZ 004f4de1 f   dsound:mcpbuf.obj
 0004:0000540e       ?SetFormat@CMcpxBuffer@DirectSound@@UAEJXZ 004f4e2e f   dsound:mcpbuf.obj
 0004:00005466       ?OnDeferredTerminate@CMcpxBuffer@DirectSound@@IAEXXZ 004f4e86 f   dsound:mcpbuf.obj
 0004:00005481       ??1CMcpxBuffer@DirectSound@@UAE@XZ 004f4ea1 f   dsound:mcpbuf.obj
 0004:000054be       ?ReleaseBufferData@CMcpxBuffer@DirectSound@@QAEJH@Z 004f4ede f   dsound:mcpbuf.obj
 0004:000054ef       ?ServiceDeferredCommand@CMcpxBuffer@DirectSound@@MAEXKK@Z 004f4f0f f   dsound:mcpbuf.obj
 0004:0000553e       ??_GCMcpxBuffer@DirectSound@@UAEPAXI@Z 004f4f5e f i dsound:mcpbuf.obj
 0004:0000553e       ??_ECMcpxBuffer@DirectSound@@UAEPAXI@Z 004f4f5e f i dsound:mcpbuf.obj
 0004:000055a7       ?Get1PoleLoPass@CI3DL2Source@DirectSound@@CGHJJMM@Z 004f4fc7 f   dsound:i3dl2.obj
 0004:00005633       ?CalculateI3DL2@CI3DL2Source@DirectSound@@SGXMMMPBU_DS3DCALCI3DL2BUFFER@@PAJ1PAH2@Z 004f5053 f   dsound:i3dl2.obj
 0004:00005762       ??0CMcpxDspScratchDma@DirectSound@@QAE@H@Z 004f5182 f   dsound:dspdma.obj
 0004:0000577c       ??1CMcpxDspScratchDma@DirectSound@@QAE@XZ 004f519c f   dsound:dspdma.obj
 0004:000057aa       ?Initialize@CMcpxDspScratchDma@DirectSound@@QAEXK@Z 004f51ca f   dsound:dspdma.obj
 0004:0000585d       ?AddPages@CMcpxDspScratchDma@DirectSound@@QAEXPAUMCPX_ALLOC_CONTEXT@@KPAK@Z 004f527d f   dsound:dspdma.obj
 0004:000058af       ?Copy@CMcpxDspScratchDma@DirectSound@@QAEXKPAXK@Z 004f52cf f   dsound:dspdma.obj
 0004:000058d7       ?SetupVoiceProcessor@CMcpxCore@DirectSound@@IAEJXZ 004f52f7 f   dsound:mcpxcore.obj
 0004:000059aa       ?SetupGlobalProcessor@CMcpxCore@DirectSound@@IAEJXZ 004f53ca f   dsound:mcpxcore.obj
 0004:00005ae9       ?SetupEncodeProcessor@CMcpxCore@DirectSound@@IAEJXZ 004f5509 f   dsound:mcpxcore.obj
 0004:00005c8d       ?SetupAc97@CMcpxCore@DirectSound@@IAEJXZ 004f56ad f   dsound:mcpxcore.obj
 0004:00005d46       ?SetInterruptState@CMcpxCore@DirectSound@@IAEXH@Z 004f5766 f   dsound:mcpxcore.obj
 0004:00005d7d       ?SetPrivLockState@CMcpxCore@DirectSound@@IAEXH@Z 004f579d f   dsound:mcpxcore.obj
 0004:00005db4       ?SetFrontEndState@CMcpxCore@DirectSound@@IAEXW4MCPX_FE_STATE@@@Z 004f57d4 f   dsound:mcpxcore.obj
 0004:00005e0f       ?SetSetupEngineState@CMcpxCore@DirectSound@@IAEXW4MCPX_SE_STATE@@@Z 004f582f f   dsound:mcpxcore.obj
 0004:00005e71       ?GetPhysicalMemoryProperties@CMcpxCore@DirectSound@@SGKPAXKPAK1@Z 004f5891 f   dsound:mcpxcore.obj
 0004:00005ee8       ?MapTransfer@CMcpxCore@DirectSound@@SGKPAPAXPAK1@Z 004f5908 f   dsound:mcpxcore.obj
 0004:00005f25       ?AllocateContext@CMcpxCore@DirectSound@@SGJPAUMCPX_ALLOC_CONTEXT@@KK@Z 004f5945 f   dsound:mcpxcore.obj
 0004:00005f64       ?ResetGlobalCounters@CMcpxCore@DirectSound@@IAEXXZ 004f5984 f   dsound:mcpxcore.obj
 0004:00005fde       ??$__AddRef@VCDirectSoundVoiceSettings@DirectSound@@@DirectSound@@YGPAVCDirectSoundVoiceSettings@0@PAV10@@Z 004f59fe f i dsound:dsapi.obj
 0004:00005fde       ??$__AddRef@VCDirectSoundBuffer@DirectSound@@@DirectSound@@YGPAVCDirectSoundBuffer@0@PAV10@@Z 004f59fe f i dsound:dsapi.obj
 0004:00005fde       ??$__AddRef@VCDirectSoundSettings@DirectSound@@@DirectSound@@YGPAVCDirectSoundSettings@0@PAV10@@Z 004f59fe f i dsound:mcpxcore.obj
 0004:00005fde       ??$__AddRef@VCDirectSoundBufferSettings@DirectSound@@@DirectSound@@YGPAVCDirectSoundBufferSettings@0@PAV10@@Z 004f59fe f i dsound:mcpbuf.obj
 0004:00005fde       ??$__AddRef@VCMcpxVoiceClient@DirectSound@@@DirectSound@@YGPAVCMcpxVoiceClient@0@PAV10@@Z 004f59fe f i dsound:dsapi.obj
 0004:00005fde       ??$__AddRef@VCMcpxSlopMemoryHeap@DirectSound@@@DirectSound@@YGPAVCMcpxSlopMemoryHeap@0@PAV10@@Z 004f59fe f i dsound:mcpxcore.obj
 0004:00005fde       ??$__AddRef@VCMcpxAPU@DirectSound@@@DirectSound@@YGPAVCMcpxAPU@0@PAV10@@Z 004f59fe f i dsound:mcpvoice.obj
 0004:00005fde       ??$__AddRef@VCDirectSound@DirectSound@@@DirectSound@@YGPAVCDirectSound@0@PAV10@@Z 004f59fe f i dsound:dsapi.obj
 0004:00005ff3       ?SetupDSPs@CMcpxCore@DirectSound@@IAEJXZ 004f5a13 f i dsound:mcpxcore.obj
 0004:0000601f       ??0CMcpxCore@DirectSound@@QAE@PAVCDirectSoundSettings@1@@Z 004f5a3f f   dsound:mcpxcore.obj
 0004:00006042       ??1CMcpxCore@DirectSound@@UAE@XZ 004f5a62 f   dsound:mcpxcore.obj
 0004:000060e7       ?SetupFrontEndProcessor@CMcpxCore@DirectSound@@IAEJXZ 004f5b07 f   dsound:mcpxcore.obj
 0004:000061b4       ?AllocateApuMemory@CMcpxCore@DirectSound@@IAEJXZ 004f5bd4 f   dsound:mcpxcore.obj
 0004:00006334       ?IdleVoiceProcessor@CMcpxCore@DirectSound@@QAEHH@Z 004f5d54 f   dsound:mcpxcore.obj
 0004:00006411       ??_GCMcpxCore@DirectSound@@UAEPAXI@Z 004f5e31 f i dsound:mcpxcore.obj
 0004:00006411       ??_ECMcpxCore@DirectSound@@UAEPAXI@Z 004f5e31 f i dsound:mcpxcore.obj
 0004:0000642c       ?Reset@CMcpxCore@DirectSound@@IAEXXZ 004f5e4c f   dsound:mcpxcore.obj
 0004:000064a9       ?Initialize@CMcpxCore@DirectSound@@QAEJXZ 004f5ec9 f   dsound:mcpxcore.obj
 0004:00006515       ??0CAc97Device@DirectSound@@QAE@XZ 004f5f35 f   dsound:ac97.obj
 0004:0000651d       ?AcquireCodecSemaphore@CAc97Device@DirectSound@@KGHXZ 004f5f3d f   dsound:ac97.obj
 0004:0000654a       ?CodecReady@CAc97Device@DirectSound@@IAEHXZ 004f5f6a f   dsound:ac97.obj
 0004:0000659a       ?SynchronizeAciInterrupt@CAc97Device@DirectSound@@IAEXXZ 004f5fba f   dsound:ac97.obj
 0004:000065ae       ?PokeAc97Register@CAc97Device@DirectSound@@KGHW4AC97REGISTER@@G@Z 004f5fce f   dsound:ac97.obj
 0004:000065cb       ?PowerUp@CAc97Device@DirectSound@@IAEJXZ 004f5feb f   dsound:ac97.obj
 0004:000065e3       ?Pause@CAc97Channel@DirectSound@@QAEXXZ 004f6003 f   dsound:ac97.obj
 0004:00006612       ?SetPrdIndeces@CAc97Channel@DirectSound@@IAEXEEHH@Z 004f6032 f   dsound:ac97.obj
 0004:000066a2       ?SetMode@CAc97Channel@DirectSound@@QAEXK@Z 004f60c2 f   dsound:ac97.obj
 0004:000066d3       ?SetPosition@CAc97Channel@DirectSound@@IAEXK@Z 004f60f3 f   dsound:ac97.obj
 0004:00006701       ?AciSynchronizationRoutine@CAc97Device@DirectSound@@CGEPAX@Z 004f6121 f i dsound:ac97.obj
 0004:0000670f       ?CreateChannel@CAc97Device@DirectSound@@QAEJW4AC97CHANNELTYPE@@PAPAVCAc97Channel@2@@Z 004f612f f   dsound:ac97.obj
 0004:00006777       ?AttachPacket@CAc97Channel@DirectSound@@QAEXKK@Z 004f6197 f   dsound:ac97.obj
 0004:00006808       ?Reset@CAc97Channel@DirectSound@@QAEXXZ 004f6228 f   dsound:ac97.obj
 0004:0000687a       ?Flush@CAc97Channel@DirectSound@@QAEXH@Z 004f629a f   dsound:ac97.obj
 0004:000068c8       ?Run@CAc97Channel@DirectSound@@QAEXK@Z 004f62e8 f   dsound:ac97.obj
 0004:00006922       ?Initialize@CAc97Channel@DirectSound@@QAEJKP6GXPAX@Z0@Z 004f6342 f   dsound:ac97.obj
 0004:000069c4       ?Terminate@CAc97Channel@DirectSound@@QAEXXZ 004f63e4 f   dsound:ac97.obj
 0004:00006a12       ?ServiceInterrupt@CAc97Channel@DirectSound@@IAEXXZ 004f6432 f   dsound:ac97.obj
 0004:00006a69       ?ServiceAciInterrupt@CAc97Device@DirectSound@@IAEKXZ 004f6489 f   dsound:ac97.obj
 0004:00006b3d       ?ServiceAciInterruptDpc@CAc97Device@DirectSound@@IAEXXZ 004f655d f   dsound:ac97.obj
 0004:00006b96       ?AciInterruptServiceRoutine@CAc97Device@DirectSound@@CGEPAU_KINTERRUPT@@PAX@Z 004f65b6 f i dsound:ac97.obj
 0004:00006ba7       ?AciInterruptDpcHandler@CAc97Device@DirectSound@@CGXPAU_KDPC@@PAX11@Z 004f65c7 f i dsound:ac97.obj
 0004:00006bb3       ?ReleaseChannel@CAc97Device@DirectSound@@QAEXW4AC97CHANNELTYPE@@@Z 004f65d3 f   dsound:ac97.obj
 0004:00006bf2       ?Terminate@CAc97Device@DirectSound@@QAEXXZ 004f6612 f   dsound:ac97.obj
 0004:00006c61       ?AciShutdownNotifier@CAc97Device@DirectSound@@CGXPAU_HAL_SHUTDOWN_REGISTRATION@@@Z 004f6681 f i dsound:ac97.obj
 0004:00006c70       ??1CAc97Device@DirectSound@@QAE@XZ 004f6690 f   dsound:ac97.obj
 0004:00006c7d       ?Initialize@CAc97Device@DirectSound@@QAEJK@Z 004f669d f   dsound:ac97.obj
 0004:00006d5c       ?AC3GetTotalScratchSize@CMcpxEPDspManager@DirectSound@@SGKXZ 004f677c f   dsound:epdsp.obj
 0004:00006d62       ?AC3GetProgram@CMcpxEPDspManager@DirectSound@@SGXKPAPAXPAK@Z 004f6782 f   dsound:epdsp.obj
 0004:00006e00       ??0CMcpxEPDspManager@DirectSound@@QAE@XZ 004f6820 f   dsound:epdsp.obj
 0004:00006e0d       ?GetDolbyConfigTable@CMcpxEPDspManager@DirectSound@@QAEPAUDOLBY_CONFIG_TABLE@@XZ 004f682d f   dsound:epdsp.obj
 0004:00006e11       ?AC3StartGpInput@CMcpxEPDspManager@DirectSound@@AAEXK@Z 004f6831 f   dsound:epdsp.obj
 0004:00006e88       ?AC3SetAnalogOutput@CMcpxEPDspManager@DirectSound@@QAEXKK@Z 004f68a8 f   dsound:epdsp.obj
 0004:00006eb0       ?AC3SetDigitalOutput@CMcpxEPDspManager@DirectSound@@QAEXKK@Z 004f68d0 f   dsound:epdsp.obj
 0004:00006ef5       ??1CMcpxEPDspManager@DirectSound@@QAE@XZ 004f6915 f   dsound:epdsp.obj
 0004:00006f12       ?Initialize@CMcpxEPDspManager@DirectSound@@QAEXPAVCMcpxGPDspManager@2@@Z 004f6932 f   dsound:epdsp.obj
 0004:00007048       ?m_wfxMixDest@CDirectSoundBufferSettings@DirectSound@@2UtWAVEFORMATEX@@B 004f6a68     dsound:dsapi.obj
 0004:00007088       ?m_asNextStep@CImaAdpcmCodec@DirectSound@@0QBFB 004f6aa8     dsound:dscommon.obj
 0004:000070a8       ?m_asStep@CImaAdpcmCodec@DirectSound@@0QBFB 004f6ac8     dsound:dscommon.obj
 0004:0000715c       _KSDATAFORMAT_SUBTYPE_XBOX_ADPCM 004f6b7c     dsound:globals.obj
 0004:0000716c       _KSDATAFORMAT_SUBTYPE_PCM  004f6b8c     dsound:globals.obj
 0004:0000717c       _DirectSoundI3DL2ListenerPreset_Default 004f6b9c     dsound:globals.obj
 0004:000071b0       _DirectSoundDefault3DListener 004f6bd0     dsound:globals.obj
 0004:000071f0       _DirectSoundDefaultI3DL2Buffer 004f6c10     dsound:globals.obj
 0004:00007218       _DirectSoundDefault3DBuffer 004f6c38     dsound:globals.obj
 0004:00007264       _DirectSoundDefaultMixBins_3D 004f6c84     dsound:globals.obj
 0004:0000726c       _DirectSoundRequiredMixBins_3D 004f6c8c     dsound:globals.obj
 0004:00007274       _DirectSoundDefaultMixBins_6Channel 004f6c94     dsound:globals.obj
 0004:0000727c       _DirectSoundDefaultMixBins_4Channel 004f6c9c     dsound:globals.obj
 0004:00007284       _DirectSoundDefaultMixBins_Mono 004f6ca4     dsound:globals.obj
 0004:00007284       _DirectSoundDefaultMixBins_Stereo 004f6ca4     dsound:globals.obj
 0004:0000728c       _DirectSoundDefaultMixBinVolumePairs_3D 004f6cac     dsound:globals.obj
 0004:000072b4       _DirectSoundRequiredMixBinVolumePairs_3D 004f6cd4     dsound:globals.obj
 0004:000072d4       _DirectSoundDefaultMixBinVolumePairs_6Channel 004f6cf4     dsound:globals.obj
 0004:00007304       _DirectSoundDefaultMixBinVolumePairs_4Channel 004f6d24     dsound:globals.obj
 0004:00007324       _DirectSoundDefaultMixBinVolumePairs_Mono 004f6d44     dsound:globals.obj
 0004:00007324       _DirectSoundDefaultMixBinVolumePairs_Stereo 004f6d44     dsound:globals.obj
 0004:00007334       ?m_dwUsageThreshold@CMcpxSlopMemoryHeap@DirectSound@@2KB 004f6d54     dsound:heap.obj
 0004:00007380       ?m_flScale23@CI3DL2Listener@DirectSound@@2MB 004f6da0     dsound:i3dl2.obj
 0004:00007384       ?m_flScale16@CI3DL2Listener@DirectSound@@2MB 004f6da4     dsound:i3dl2.obj
 0004:00007388       ?m_aflReflectionData@CI3DL2Listener@DirectSound@@2QAY04$$CBMA 004f6da8     dsound:i3dl2.obj
 0004:000073d8       ?m_aflShortReverbInputFactor@CI3DL2Listener@DirectSound@@2QAY01$$CBMA 004f6df8     dsound:i3dl2.obj
 0004:000073f8       ?m_aflShortReverbFeedbackDelay@CI3DL2Listener@DirectSound@@2QBMB 004f6e18     dsound:i3dl2.obj
 0004:00007408       ?m_aflLongReverbInputDelay@CI3DL2Listener@DirectSound@@2QAY03$$CBMA 004f6e28     dsound:i3dl2.obj
 0004:00007428       ?m_dwSamplesPerSec@CI3DL2Listener@DirectSound@@2KB 004f6e48     dsound:i3dl2.obj
 0004:0000742c       ?m_adwGPOutputBufferSizes@CMcpxCore@DirectSound@@2QBKB 004f6e4c     dsound:mcpxcore.obj
 0004:00007430       ?m_adwEPOutputBufferSizes@CMcpxCore@DirectSound@@2QBKB 004f6e50     dsound:mcpxcore.obj
 0004:0000743c       ?m_dwAc97RegisterBase@CAc97Device@DirectSound@@2KB 004f6e5c     dsound:ac97.obj
 0004:00007440       ?m_dwAciRegisterBase@CAc97Device@DirectSound@@2KB 004f6e60     dsound:ac97.obj
 0004:00007444       ?m_wfxFormat@CAc97Device@DirectSound@@2UtWAVEFORMATEX@@B 004f6e64     dsound:ac97.obj
 0004:00007458       ?m_adwRegisterOffsets@CAc97Channel@DirectSound@@2QBKB 004f6e78     dsound:ac97.obj
 0004:00007460       ?m_dwSilenceSize@CAc97Channel@DirectSound@@2KB 004f6e80     dsound:ac97.obj
 0004:00007470       ?m_dwRefCount@CFpState@DirectSound@@0KA 004f6e90     dsound:dscommon.obj
 0004:00007474       _g_dwDirectSoundDebugLevel 004f6e94     dsound:globals.obj
 0004:00007478       _g_dwDirectSoundDebugBreakLevel 004f6e98     dsound:globals.obj
 0004:0000747c       _g_dwDirectSoundDebugFlags 004f6e9c     dsound:globals.obj
 0004:00007480       _g_pfnDirectSoundDebugCallback 004f6ea0     dsound:globals.obj
 0004:00007484       _g_dwDirectSoundPoolMemoryUsage 004f6ea4     dsound:globals.obj
 0004:00007488       _g_dwDirectSoundPhysicalMemoryUsage 004f6ea8     dsound:globals.obj
 0004:0000748c       _g_dwDirectSoundPhysicalMemorySlop 004f6eac     dsound:globals.obj
 0004:00007490       _g_dwDirectSoundPhysicalMemoryRecovered 004f6eb0     dsound:globals.obj
 0004:00007494       _g_dwDirectSoundFree2dVoices 004f6eb4     dsound:globals.obj
 0004:00007498       _g_dwDirectSoundFree3dVoices 004f6eb8     dsound:globals.obj
 0004:0000749c       _g_dwDirectSoundFreeBufferSGEs 004f6ebc     dsound:globals.obj
 0004:000074a0       _g_dwDirectSoundDeltaPanicCount 004f6ec0     dsound:globals.obj
 0004:000074a4       _g_dwDirectSoundDeltaWarningCount 004f6ec4     dsound:globals.obj
 0004:000074a8       _g_dwDirectSoundSpeakerConfig 004f6ec8     dsound:globals.obj
 0004:000074ac       _g_dwDirectSoundOverrideSpeakerConfig 004f6ecc     dsound:globals.obj
 0004:000074b0       _g_fDirectSoundInFinalRelease 004f6ed0     dsound:globals.obj
 0004:000074b4       _g_fDirectSoundDisableBusyWaitWarning 004f6ed4     dsound:globals.obj
 0004:000074b8       _g_fDirectSoundI3DL2Overdelay 004f6ed8     dsound:globals.obj
 0004:000074bc       _g_DirectSoundCriticalSection 004f6edc     dsound:globals.obj
 0004:00007aa8       ?m_pSlopMemoryHeap@CMcpxSlopMemoryHeap@DirectSound@@2PAV12@A 004f74c8     dsound:heap.obj
 0004:00007aac       ?m_dwStuckVoiceCount@CMcpxVoiceClient@DirectSound@@2KA 004f74cc     dsound:mcpvoice.obj
 0004:00007ab0       ?m_dwGlobalRefCount@CAc97MediaObject@DirectSound@@1KA 004f74d0     dsound:ac97xmo.obj
 0004:00007ab4       ?m_pDevice@CAc97MediaObject@DirectSound@@1PAVCAc97Device@2@A 004f74d4     dsound:ac97xmo.obj
 0004:00007ab8       ?m_pDevice@CAc97Device@DirectSound@@2PAV12@A 004f74d8     dsound:ac97.obj
 0004:00007ac0       ?m_Interrupt@CAc97Device@DirectSound@@1U_KINTERRUPT@@A 004f74e0     dsound:ac97.obj
 0004:00007b30       ?m_pDirectSound@CDirectSound@DirectSound@@2PAV12@A 004f7550     dsound:dsapi.obj
 0004:00007b34       ?m_fps@CFpState@DirectSound@@0U_KFLOATING_SAVE@@A 004f7554     dsound:dscommon.obj
 0004:00007b54       ?m_dwPhysicalMemoryUsage@CMemoryManager@DirectSound@@2AAKA 004f7574     dsound:dscommon.obj
 0004:00007b58       ?m_dwPoolMemoryUsage@CMemoryManager@DirectSound@@2AAKA 004f7578     dsound:dscommon.obj
 0004:00007b5c       ?m_vtable@CHRTFSource@DirectSound@@0UHRTFSOURCEVECTORTABLE@@A 004f757c     dsound:hrtf.obj
 0004:00007b84       ?m_nAlgorithm@CHRTFSource@DirectSound@@0IA 004f75a4     dsound:hrtf.obj
 0004:00007b88       ?m_Interrupt@CMcpxAPU@DirectSound@@1U_KINTERRUPT@@A 004f75a8     dsound:mcpapu.obj
 0004:00007bf8       ?m_dwUsed@CMcpxSlopMemoryHeap@DirectSound@@2AAKA 004f7618     dsound:heap.obj
 0004:00007bfc       ?m_dwAvailable@CMcpxSlopMemoryHeap@DirectSound@@2AAKA 004f761c     dsound:heap.obj
 0004:00007c00       ?m_ctxMemory@CMcpxCore@DirectSound@@2PAUMCPX_ALLOC_CONTEXT@@A 004f7620     dsound:mcpxcore.obj
 0005:00000000       ?XID_BeginTypeDescriptionTable@@3KA 004f7740     xapilib:typeinfo.obj
 0005:00000004       _GamepadTypeInfoENTRY      004f7744     xapilib:typeinfo.obj
 0005:00000008       _IrRemoteTypeInfoENTRY     004f7748     xapilib:typeinfo.obj
 0005:0000000c       _KeyboardTypeInfoENTRY     004f774c     libsdlx:keyboard.obj
 0005:00000010       _MouseTypeInfoENTRY        004f7750     xapilib:mouse.obj
 0005:00000014       ?XID_EndTypeDescriptionTable@@3KA 004f7754     xapilib:typeinfo.obj
 0005:00000018       _USBD_BeginClassDescriptionTable 004f7758     xapilib:usbd.obj
 0005:0000001c       _XID_DescriptionPointer    004f775c     xapilib:xid.obj
 0005:00000020       _XID_1DescriptionPointer   004f7760     xapilib:xid.obj
 0005:00000024       _USBHUB_DescriptionPointer 004f7764     xapilib:hub.obj
 0005:00000028       _USBD_EndClassDescriptionTable 004f7768     xapilib:usbd.obj
 0005:0000002c       ?sm_2ndLevelHub@IUsbInit@@0EA 004f776c     xapilib:usbinit.obj
 0005:00000030       _XDEVICE_TYPE_DEBUG_KEYBOARD_TABLE 004f7770     libsdlx:keyboard.obj
 0005:0000003c       ?KeyboardDefaults@@3U_XINPUT_KEYBOARD@@A 004f777c     libsdlx:keyboard.obj
 0005:00000044       ?KeyboardReportInfoList@@3PAU_XID_REPORT_TYPE_INFO@@A 004f7784     libsdlx:keyboard.obj
 0005:00000049       ?KeyboardLEDDefaults@@3U_XINPUT_KEYBOARD_LEDS@@A 004f7789     libsdlx:keyboard.obj
 0005:0000004c       ?KeyboardLEDReportInfoList@@3PAU_XID_REPORT_TYPE_INFO@@A 004f778c     libsdlx:keyboard.obj
 0005:00000054       ?KeyboardDefaultPolling@@3U_XINPUT_POLLING_PARAMETERS@@A 004f7794     libsdlx:keyboard.obj
 0005:00000058       ?KeyboardTypeInfo@@3U_XID_TYPE_INFORMATION@@A 004f7798     libsdlx:keyboard.obj
 0005:0000008c       ?XID_KeyboardState@@3U_XID_KEYBOARD_STATE@@A 004f77cc     libsdlx:queue.obj
 0005:000000c0       ?HidToVK_Table@@3PAEA      004f7800     libsdlx:queue.obj
 0005:00000134       ?HidModifierToVK_Table@@3PAEA 004f7874     libsdlx:queue.obj
 0005:0000013c       ?HidSymToAscii_Table@@3PAEA 004f787c     libsdlx:queue.obj
 0005:00000150       ?HidSymToAsciiShift_Table@@3PAEA 004f7890     libsdlx:queue.obj
 0005:0000016c       ?HidNumPadToAscii@@3PAEA   004f78ac     libsdlx:queue.obj
 0005:0000017c       ?HidNumPadShiftToAscii@@3PAEA 004f78bc     libsdlx:queue.obj
 0005:0000018c       _XPP_XInitDevicesHasBeenCalled 004f78cc     xapilib:xpp.obj
 0005:00000190       _XDEVICE_TYPE_GAMEPAD_TABLE 004f78d0     xapilib:typeinfo.obj
 0005:0000019c       ?GamepadDefaults@@3U_XINPUT_GAMEPAD@@A 004f78dc     xapilib:typeinfo.obj
 0005:000001b0       ?GameInputReportInfoList@@3PAU_XID_REPORT_TYPE_INFO@@A 004f78f0     xapilib:typeinfo.obj
 0005:000001b8       ?RumbleDefaults@@3U_XINPUT_RUMBLE@@A 004f78f8     xapilib:typeinfo.obj
 0005:000001bc       ?GameOutputReportInfoList@@3PAU_XID_REPORT_TYPE_INFO@@A 004f78fc     xapilib:typeinfo.obj
 0005:000001c4       ?GameDefaultPolling@@3U_XINPUT_POLLING_PARAMETERS@@A 004f7904     xapilib:typeinfo.obj
 0005:000001c8       ?GamepadTypeInfo@@3U_XID_TYPE_INFORMATION@@A 004f7908     xapilib:typeinfo.obj
 0005:000001f4       _XDEVICE_TYPE_IR_REMOTE_TABLE 004f7934     xapilib:typeinfo.obj
 0005:00000200       ?IrRemoteDefaults@@3U_XINPUT_IR_REMOTE@@A 004f7940     xapilib:typeinfo.obj
 0005:00000204       ?IrRemoteReportInfoList@@3PAU_XID_REPORT_TYPE_INFO@@A 004f7944     xapilib:typeinfo.obj
 0005:0000020c       ?IrRemoteDefaultPolling@@3U_XINPUT_POLLING_PARAMETERS@@A 004f794c     xapilib:typeinfo.obj
 0005:00000210       ?IrRemoteTypeInfo@@3U_XID_TYPE_INFORMATION@@A 004f7950     xapilib:typeinfo.obj
 0005:0000023c       _XDEVICE_TYPE_DEBUG_MOUSE_TABLE 004f797c     xapilib:mouse.obj
 0005:00000248       ?MouseDefaults@@3U_XINPUT_MOUSE@@A 004f7988     xapilib:mouse.obj
 0005:0000024c       ?MouseReportInfoList@@3PAU_XID_REPORT_TYPE_INFO@@A 004f798c     xapilib:mouse.obj
 0005:00000254       ?MouseDefaultPolling@@3U_XINPUT_POLLING_PARAMETERS@@A 004f7994     xapilib:mouse.obj
 0005:00000258       ?MouseTypeInfo@@3U_XID_TYPE_INFORMATION@@A 004f7998     xapilib:mouse.obj
 0005:00000284       _XID_Description           004f79c4     xapilib:xid.obj
 0005:0000029c       _XID_1Description          004f79dc     xapilib:xid.obj
 0005:000002b4       ?XID_gResourceRequirements@@3U_USB_RESOURCE_REQUIREMENTS@@A 004f79f4     xapilib:xid.obj
 0005:000002c4       ?USBD_PageZeroBytesRemaining@@3KA 004f7a04     xapilib:usbmem.obj
 0005:000002c8       _USBHUB_Types              004f7a08     xapilib:hub.obj
 0005:000002cc       _USBHUB_Description        004f7a0c     xapilib:hub.obj
 0005:000002e4       ?GetMaxDeviceTypeCount@IUsbInit@@QAEKPAU_XPP_DEVICE_TYPE@@@Z 004f7a24 f   xapilib:usbinit.obj
 0005:0000031b       ?UseDefaultCount@IUsbInit@@QAEHXZ 004f7a5b f   xapilib:usbinit.obj
 0005:00000327       ?RegisterResources@IUsbInit@@QAEXPAU_USB_RESOURCE_REQUIREMENTS@@@Z 004f7a67 f   xapilib:usbinit.obj
 0005:00000529       ?Process@IUsbInit@@QAEXXZ  004f7c69 f   xapilib:usbinit.obj
 0005:00000672       _XID_Init@4                004f7db2 f   xapilib:xid.obj
 0005:0000087d       _USBD_Init@8               004f7fbd f   xapilib:usbd.obj
 0005:000008f6       _USBD_NewHostController@8  004f8036 f   xapilib:usbd.obj
 0005:00000973       ??_H@YGXPAXIHP6EPAX0@Z@Z   004f80b3 f i xapilib:tree.obj
 0005:00000995       ?Init@CDeviceTree@@QAEXKK@Z 004f80d5 f   xapilib:tree.obj
 0005:00000a38       _HCD_DriverEntry@4         004f8178 f   xapilib:ohcd.obj
 0005:00000a44       _HCD_EnumHardware@0        004f8184 f   xapilib:ohcd.obj
 0005:00000a86       _HCD_NewHostController@12  004f81c6 f   xapilib:ohcd.obj
 0005:00000c01       _USBHUB_Init@4             004f8341 f   xapilib:hub.obj
 0005:00000c6d       @OHCD_RootHubInitialize@4  004f83ad f   xapilib:roothub.obj
 0005:00000d1d       @OHCD_fPoolInit@4          004f845d f   xapilib:pool.obj
 0005:00000ee2       @OHCD_ScheduleInitialize@4 004f8622 f   xapilib:schedule.obj
 0005:00000f43       _OHCD_DevSysCheckHardware@4 004f8683 f   xapilib:devsys.obj
 0005:00000f4e       _OHCD_DevSysTakeControl@4  004f868e f   xapilib:devsys.obj
 0005:00000fb0       _XInputDebugGetKeystroke@4 004f86f0 f   libsdlx:queue.obj
 0005:000010a3       ?XID_KeyboardInit@@YIHXZ   004f87e3 f   libsdlx:queue.obj
 0005:000010ac       ?XID_KeyboardClose@@YIXPAU_XID_OPEN_DEVICE@@@Z 004f87ec f   libsdlx:queue.obj
 0005:000010c5       ?XID_KeyboardRemove@@YIXPAU_XID_OPEN_DEVICE@@@Z 004f8805 f   libsdlx:queue.obj
 0005:000010d4       ?XID_KeyboardInitQueue@@YGHHK@Z 004f8814 f   libsdlx:queue.obj
 0005:00001115       ?XID_KeyboardReset@@YGXH@Z 004f8855 f   libsdlx:queue.obj
 0005:00001135       ?XID_KeyboardQueueGetWritePos@@YGPAU_XINPUT_DEBUG_KEYSTROKE@@H@Z 004f8875 f   libsdlx:queue.obj
 0005:00001151       ?XID_KeyboardQueueIncrementWritePos@@YGPAU_XINPUT_DEBUG_KEYSTROKE@@H@Z 004f8891 f   libsdlx:queue.obj
 0005:0000118c       ?XID_KeyboardQueueHidKeystroke@@YGXEEPAU_XINPUT_DEBUG_KEYSTROKE@@@Z 004f88cc f   libsdlx:queue.obj
 0005:00001271       _XInputDebugInitKeyboardQueue@4 004f89b1 f   libsdlx:queue.obj
 0005:000012d0       ?XID_KeyboardOpen@@YIHPAU_XID_OPEN_DEVICE@@@Z 004f8a10 f   libsdlx:queue.obj
 0005:000012f2       ?XID_KeyboardUpdate@@YGXHPAU_XINPUT_KEYBOARD@@@Z 004f8a32 f   libsdlx:queue.obj
 0005:00001505       ?XID_KeyboardNewData@@YIXPAU_XID_OPEN_DEVICE@@@Z 004f8c45 f   libsdlx:queue.obj
 0005:00001532       _XInputOpen@16             004f8c72 f   xapilib:xidinp.obj
 0005:00001588       _XInputClose@4             004f8cc8 f   xapilib:xidinp.obj
 0005:00001594       _XInputGetCapabilities@8   004f8cd4 f   xapilib:xidinp.obj
 0005:0000176c       _XInputGetState@8          004f8eac f   xapilib:xidinp.obj
 0005:000017df       _XdReportDeviceInsertionRemoval@12 004f8f1f f   xapilib:xpp.obj
 0005:00001801       _XInitDevices@8            004f8f41 f   xapilib:xpp.obj
 0005:00001806       _XGetDevices@4             004f8f46 f   xapilib:xpp.obj
 0005:00001828       _XGetDeviceChanges@12      004f8f68 f   xapilib:xpp.obj
 0005:00001895       ?GetTypeInformation@@YIPAU_XID_TYPE_INFORMATION@@EPAE@Z 004f8fd5 f   xapilib:typeinfo.obj
 0005:000018cc       ?GetTypeInformation@@YIPAU_XID_TYPE_INFORMATION@@PAU_XPP_DEVICE_TYPE@@@Z 004f900c f   xapilib:typeinfo.obj
 0005:000018f7       ?XID_MouseOpen@@YIHPAU_XID_OPEN_DEVICE@@@Z 004f9037 f   xapilib:mouse.obj
 0005:00001a2b       ?AddSignedByteWithSaturation@@YGDDD@Z 004f916b f i xapilib:mouse.obj
 0005:00001a4a       ?XID_MouseNewData@@YIXPAU_XID_OPEN_DEVICE@@@Z 004f918a f   xapilib:mouse.obj
 0005:00001ab8       ?XID_SetEnumWatchdog@@YGXXZ 004f91f8 f i xapilib:xid.obj
 0005:00001ad3       ?XID_WatchdogTimerProc@@YGXPAU_KDPC@@PAX11@Z 004f9213 f   xapilib:xid.obj
 0005:00001ae4       ?XID_fRemoveDeviceComplete@@YIXPAU_XID_DEVICE_NODE@@@Z 004f9224 f   xapilib:xid.obj
 0005:00001b07       ?XID_fFindNode@@YIPAU_XID_DEVICE_NODE@@PAU_XID_TYPE_INFORMATION@@K@Z 004f9247 f   xapilib:xid.obj
 0005:00001b71       ?XID_fOpenEndpoints@@YIJPAU_XID_OPEN_DEVICE@@PAU_XINPUT_POLLING_PARAMETERS@@@Z 004f92b1 f   xapilib:xid.obj
 0005:00001c1c       ?XID_CloseEndpointStateMachine@@YGXPAU_URB_CLOSE_ENDPOINT@@PAU_XID_OPEN_DEVICE@@@Z 004f935c f   xapilib:xid.obj
 0005:00001ccd       ?XID_NewInterruptData@@YGXPAT_URB@@PAU_XID_OPEN_DEVICE@@@Z 004f940d f   xapilib:xid.obj
 0005:00001d89       ?XID_ClearInputStallComplete@@YGXPAT_URB@@PAU_XID_OPEN_DEVICE@@@Z 004f94c9 f   xapilib:xid.obj
 0005:00001e13       ?XID_ProcessGamepadData@@YIXPAU_XID_OPEN_DEVICE@@@Z 004f9553 f   xapilib:xid.obj
 0005:00001e65       ?XID_ProcessIRRemoteData@@YIXPAU_XID_OPEN_DEVICE@@@Z 004f95a5 f   xapilib:xid.obj
 0005:00001e89       ?XID_fWaitForUrb@@YIXPAVIUsbDevice@@PAT_URB@@PAU_KEVENT@@@Z 004f95c9 f   xapilib:xid.obj
 0005:00001ed6       ?XID_EnumKeyboardComplete@@YGXPAT_URB@@PAU_XID_DEVICE_NODE@@@Z 004f9616 f   xapilib:xid.obj
 0005:00001f60       ?XID_EnumMouseComplete@@YGXPAT_URB@@PAU_XID_DEVICE_NODE@@@Z 004f96a0 f   xapilib:xid.obj
 0005:00001ffd       ?XID_fCloseEndpoints@@YIXPAU_XID_OPEN_DEVICE@@@Z 004f973d f   xapilib:xid.obj
 0005:0000201b       ?XID_EnumKeyboard@@YGXPAT_URB@@PAU_XID_DEVICE_NODE@@@Z 004f975b f   xapilib:xid.obj
 0005:000020a6       ?XID_EnumMouse@@YGXPAT_URB@@PAU_XID_DEVICE_NODE@@@Z 004f97e6 f   xapilib:xid.obj
 0005:00002131       _XID_RemoveDevice@4        004f9871 f   xapilib:xid.obj
 0005:0000216c       ?XID_fCloseDevice@@YIXPAU_XID_OPEN_DEVICE@@@Z 004f98ac f   xapilib:xid.obj
 0005:00002200       ?XID_EnumLegacy1@@YGXPAT_URB@@PAU_XID_DEVICE_NODE@@@Z 004f9940 f   xapilib:xid.obj
 0005:000022de       ?XID_EnumStage1@@YGXPAT_URB@@PAU_XID_DEVICE_NODE@@@Z 004f9a1e f   xapilib:xid.obj
 0005:000023d2       ?XID_fOpenDevice@@YIKPAU_XID_TYPE_INFORMATION@@KPAPAU_XID_OPEN_DEVICE@@PAU_XINPUT_POLLING_PARAMETERS@@@Z 004f9b12 f   xapilib:xid.obj
 0005:00002622       _XID_AddDevice@4           004f9d62 f   xapilib:xid.obj
 0005:00002776       ?GetParent@IUsbDevice@@QBEPAV1@XZ 004f9eb6 f i xapilib:usbdev.obj
 0005:0000278d       ?GetFirstChild@IUsbDevice@@QBEPAV1@XZ 004f9ecd f i xapilib:usbdev.obj
 0005:000027a4       ?GetSibling@IUsbDevice@@QBEPAV1@XZ 004f9ee4 f i xapilib:usbdev.obj
 0005:000027bb       ?XID_SyncComplete@@YGXPAT_URB@@PAU_KEVENT@@@Z 004f9efb f   xapilib:xid.obj
 0005:000027bb       ?USBD_SubmitSynchronousRequestComplete@@YGXPAT_URB@@PAU_KEVENT@@@Z 004f9efb f   xapilib:usbdev.obj
 0005:000027cc       ?CancelRequest@IUsbDevice@@QAEJPAT_URB@@@Z 004f9f0c f   xapilib:usbdev.obj
 0005:000027df       ?GetExtension@IUsbDevice@@QBEPAXXZ 004f9f1f f   xapilib:usbdev.obj
 0005:000027e3       ?SetExtension@IUsbDevice@@QAEPAXPAX@Z 004f9f23 f   xapilib:usbdev.obj
 0005:000027f0       ?GetInterfaceNumber@IUsbDevice@@QBEEXZ 004f9f30 f   xapilib:usbdev.obj
 0005:000027f4       ?SetClassSpecificType@IUsbDevice@@QAEXE@Z 004f9f34 f   xapilib:usbdev.obj
 0005:000027fe       ?Win32FromUsbdStatus@IUsbDevice@@SGKJ@Z 004f9f3e f   xapilib:usbdev.obj
 0005:0000286c       ?GetInterfaceDescriptor@IUsbDevice@@QBEPBU_USB_INTERFACE_DESCRIPTOR@@XZ 004f9fac f   xapilib:usbdev.obj
 0005:00002872       ?GetEndpointDescriptor@IUsbDevice@@QBEPBU_USB_ENDPOINT_DESCRIPTOR@@EEE@Z 004f9fb2 f   xapilib:usbdev.obj
 0005:000028e8       ?GetPort@IUsbDevice@@QBEKXZ 004fa028 f   xapilib:usbdev.obj
 0005:000028ec       ?OpenDefaultEndpoint@IUsbDevice@@AAEJPAT_URB@@@Z 004fa02c f   xapilib:usbdev.obj
 0005:00002972       ?CloseDefaultEndpoint@IUsbDevice@@AAEJPAT_URB@@@Z 004fa0b2 f   xapilib:usbdev.obj
 0005:000029de       ?FindChild@IUsbDevice@@QBEPAV1@E@Z 004fa11e f   xapilib:usbdev.obj
 0005:00002a0f       ?InsertChild@IUsbDevice@@QAEXPAV1@@Z 004fa14f f   xapilib:usbdev.obj
 0005:00002a57       ?RemoveChild@IUsbDevice@@QAEEPAV1@@Z 004fa197 f   xapilib:usbdev.obj
 0005:00002ab3       ?SetExternalPortWithoutHub@IUsbDevice@@QAEXPAPAV1@I@Z 004fa1f3 f   xapilib:usbdev.obj
 0005:00002b28       ?SubmitRequest@IUsbDevice@@QAEJPAT_URB@@@Z 004fa268 f   xapilib:usbdev.obj
 0005:00002c12       ?SetExternalPortWithHub@IUsbDevice@@QAEXPAPAV1@I@Z 004fa352 f   xapilib:usbdev.obj
 0005:00002c54       ?SetExternalPort@IUsbDevice@@QAEXXZ 004fa394 f   xapilib:usbdev.obj
 0005:00002c9f       ??0IUsbInit@@QAE@KPAU_XDEVICE_PREALLOC_TYPE@@@Z 004fa3df f i xapilib:usbd.obj
 0005:00002cf9       ?AllocDevice@CDeviceTree@@QAEPAVIUsbDevice@@XZ 004fa439 f i xapilib:usbd.obj
 0005:00002d49       _USBD_CompleteRequest@4    004fa489 f   xapilib:usbd.obj
 0005:00002d5d       _USBD_CalculateUsbBandwidth@12 004fa49d f   xapilib:usbd.obj
 0005:00002da6       ?USBD_FindClassDriver@@YGPAU_USB_CLASS_DRIVER_DESCRIPTION@@T_PNP_CLASS_ID@@@Z 004fa4e6 f   xapilib:usbd.obj
 0005:00002ddb       _USBD_AllocateMemory@8     004fa51b f   xapilib:usbmem.obj
 0005:00002e43       ??0IUsbDevice@@QAE@XZ      004fa583 f i xapilib:tree.obj
 0005:00002e55       ?FreeDevice@CDeviceTree@@QAEXPAVIUsbDevice@@@Z 004fa595 f i xapilib:tree.obj
 0005:00002e87       ?DeviceConnected@IUsbDevice@@QAEXEE@Z 004fa5c7 f   xapilib:tree.obj
 0005:00002f4b       ?USBD_SetEnumWatchDog@@YGXXZ 004fa68b f i xapilib:tree.obj
 0005:00002f6d       ?USBD_DeviceEnumStagePre1@@YGXJPAX@Z 004fa6ad f   xapilib:tree.obj
 0005:00002fbe       ?USBD_DeviceEnumStagePre4@@YGXPAT_URB@@PAVIUsbDevice@@@Z 004fa6fe f   xapilib:tree.obj
 0005:00002fe9       ?USBD_AllocateUsbAddress@@YIEPAU_USBD_HOST_CONTROLLER@@@Z 004fa729 f   xapilib:tree.obj
 0005:0000301a       ?USBD_FreeUsbAddress@@YIXPAU_USBD_HOST_CONTROLLER@@E@Z 004fa75a f   xapilib:tree.obj
 0005:0000304e       ?IncrementBusyHubCount@IUsbDevice@@SGXXZ 004fa78e f   xapilib:tree.obj
 0005:00003055       ?DecrementBusyHubCount@IUsbDevice@@SGXXZ 004fa795 f   xapilib:tree.obj
 0005:0000305c       _USBD_DeviceConnected@8    004fa79c f   xapilib:tree.obj
 0005:00003071       ?USBD_DeviceEnumStage0@@YGXXZ 004fa7b1 f   xapilib:tree.obj
 0005:000030d3       ?ResetComplete@IUsbDevice@@QAEXJPAX@Z 004fa813 f   xapilib:tree.obj
 0005:000030d8       ?RemoveComplete@IUsbDevice@@QAEXXZ 004fa818 f   xapilib:tree.obj
 0005:0000314e       ?USBD_CompleteDeviceDisconnected@@YGXPAVIUsbDevice@@@Z 004fa88e f   xapilib:tree.obj
 0005:000031a0       ?USBD_DeviceEnumNextPending@@YGXPAT_URB@@PAVIUsbDevice@@@Z 004fa8e0 f   xapilib:tree.obj
 0005:0000324f       ?DeviceDisconnected@IUsbDevice@@QAEXE@Z 004fa98f f   xapilib:tree.obj
 0005:000032c6       ?DeviceNotResponding@IUsbDevice@@QAEXXZ 004faa06 f   xapilib:tree.obj
 0005:0000330b       ?USBD_fDeviceAbortEnum2@@YIXPAVIUsbDevice@@@Z 004faa4b f   xapilib:tree.obj
 0005:0000338c       _USBD_DeviceDisconnected@8 004faacc f   xapilib:tree.obj
 0005:0000339f       ?DisableComplete@IUsbDevice@@QAEXJPAX@Z 004faadf f   xapilib:tree.obj
 0005:000033d2       ?USBD_DeviceAbortEnum@@YGXPAT_URB@@PAVIUsbDevice@@@Z 004fab12 f   xapilib:tree.obj
 0005:0000343f       ?USBD_DeviceEnumStage3@@YGXPAT_URB@@PAVIUsbDevice@@@Z 004fab7f f   xapilib:tree.obj
 0005:000034a4       ?AddComplete@IUsbDevice@@QAEXJ@Z 004fabe4 f   xapilib:tree.obj
 0005:00003630       ?USBD_LoadClassDriver@@YIXPAVIUsbDevice@@T_PNP_CLASS_ID@@@Z 004fad70 f   xapilib:tree.obj
 0005:00003664       ?USBD_DeviceEnumStage2@@YGXPAT_URB@@PAVIUsbDevice@@@Z 004fada4 f   xapilib:tree.obj
 0005:0000373f       ?USBD_DeviceEnumStage6@@YGXPAT_URB@@PAVIUsbDevice@@@Z 004fae7f f   xapilib:tree.obj
 0005:00003886       ?USBD_fDeviceEnumStage1@@YIXPAVIUsbDevice@@@Z 004fafc6 f   xapilib:tree.obj
 0005:00003986       ?USBD_DeviceEnumStage5@@YGXPAT_URB@@PAVIUsbDevice@@@Z 004fb0c6 f   xapilib:tree.obj
 0005:00003a3f       ?USBD_fDeviceEnumStage4@@YIXPAT_URB@@PAVIUsbDevice@@@Z 004fb17f f   xapilib:tree.obj
 0005:00003b8a       ?USBD_DeviceEnumTimerProc@@YGXPAU_KDPC@@PAX11@Z 004fb2ca f   xapilib:tree.obj
 0005:00003bde       _OHCD_PoolAllocateEndpoint@0 004fb31e f i xapilib:ohcd.obj
 0005:00003bf1       @OHCD_fOpenEndpoint@8      004fb331 f   xapilib:ohcd.obj
 0005:00003d65       @OHCD_fGetEndpointState@8  004fb4a5 f   xapilib:ohcd.obj
 0005:00003d86       @OHCD_fSetEndpointState@8  004fb4c6 f   xapilib:ohcd.obj
 0005:00003db4       @OHCD_fDequeueControlTransfer@8 004fb4f4 f   xapilib:ohcd.obj
 0005:00003ded       @OHCD_fDequeueBulkTransfer@8 004fb52d f   xapilib:ohcd.obj
 0005:00003e26       @OHCD_fDequeueInterruptTransfer@8 004fb566 f   xapilib:ohcd.obj
 0005:00003e55       @OHCD_fCancelQueuedUrbs@8  004fb595 f   xapilib:ohcd.obj
 0005:00003ecb       @OHCD_fPauseEndpoint@8     004fb60b f   xapilib:ohcd.obj
 0005:00003f08       _OHCD_ShutDown@4           004fb648 f   xapilib:ohcd.obj
 0005:00003f43       _HCD_CancelRequest@8       004fb683 f   xapilib:ohcd.obj
 0005:00003ffa       @OHCD_fCloseEndpoint@8     004fb73a f   xapilib:ohcd.obj
 0005:00004061       @OHCD_fAbortEndpoint@8     004fb7a1 f   xapilib:ohcd.obj
 0005:000040b4       _HCD_SubmitRequest@8       004fb7f4 f   xapilib:ohcd.obj
 0005:000041cc       ?USBHUB_ResetComplete@@YGXPAT_URB@@PAVIUsbDevice@@@Z 004fb90c f   xapilib:hub.obj
 0005:000041f8       ?USBHUB_DisableComplete@@YGXPAT_URB@@PAVIUsbDevice@@@Z 004fb938 f   xapilib:hub.obj
 0005:0000421c       ?USBHUB_RelatchPortSpeed@@YGXPAVIUsbDevice@@@Z 004fb95c f   xapilib:hub.obj
 0005:00004279       ?USBHUB_SetBusy@@YGXPAU_USBHUB_DEVICE_NODE@@H@Z 004fb9b9 f   xapilib:hub.obj
 0005:000042af       ?USBHUB_WatchdogTimerProc@@YGXPAU_KDPC@@PAX11@Z 004fb9ef f   xapilib:hub.obj
 0005:00004320       ?USBHUB_SetEnumWatchdog@@YGXK@Z 004fba60 f i xapilib:hub.obj
 0005:00004383       ?USBHUB_PortProcessChange@@YGXPAVIUsbDevice@@@Z 004fbac3 f   xapilib:hub.obj
 0005:000044d1       ?USBHUB_RemoveHubComplete@@YGXPAT_URB@@PAVIUsbDevice@@@Z 004fbc11 f   xapilib:hub.obj
 0005:00004534       ?USBHUB_DisableResetPort@@YGXPAVIUsbDevice@@EPAXE@Z 004fbc74 f   xapilib:hub.obj
 0005:0000461b       ?USBHUB_RemoveHubStage2@@YGXPAT_URB@@PAVIUsbDevice@@@Z 004fbd5b f   xapilib:hub.obj
 0005:0000463d       ?USBHUB_RemoveHubStage1@@YGXPAVIUsbDevice@@@Z 004fbd7d f   xapilib:hub.obj
 0005:0000466f       ?USBHUB_ClearInterruptStallComplete@@YGXPAT_URB@@PAVIUsbDevice@@@Z 004fbdaf f   xapilib:hub.obj
 0005:00004700       ?USBHUB_PortStatusChange2@@YGXPAT_URB@@PAVIUsbDevice@@@Z 004fbe40 f   xapilib:hub.obj
 0005:0000475b       ?USBHUB_ClearHubFeatureComplete@@YGXPAT_URB@@PAVIUsbDevice@@@Z 004fbe9b f   xapilib:hub.obj
 0005:000047b6       _USBHUB_RemoveDevice@4     004fbef6 f   xapilib:hub.obj
 0005:00004806       ?USBHUB_ChangeNotifyComplete@@YGXPAT_URB@@PAVIUsbDevice@@@Z 004fbf46 f   xapilib:hub.obj
 0005:000048d2       ?USBHUB_HubStatusChange@@YGXPAT_URB@@PAVIUsbDevice@@@Z 004fc012 f   xapilib:hub.obj
 0005:00004992       ?USBHUB_PoweringPorts@@YGXPAT_URB@@PAVIUsbDevice@@@Z 004fc0d2 f   xapilib:hub.obj
 0005:000049fd       ?USBHUB_PortStatusChange1@@YGXPAVIUsbDevice@@@Z 004fc13d f   xapilib:hub.obj
 0005:00004ad0       ?USBHUB_ClearPortFeatureComplete@@YGXPAT_URB@@PAVIUsbDevice@@@Z 004fc210 f   xapilib:hub.obj
 0005:00004b00       ?USBHUB_RelatchPortSpeedComplete@@YGXPAT_URB@@PAVIUsbDevice@@@Z 004fc240 f   xapilib:hub.obj
 0005:00004b80       ?USBHUB_EnumHubComplete@@YGXPAT_URB@@PAVIUsbDevice@@@Z 004fc2c0 f   xapilib:hub.obj
 0005:00004c2b       ?USBHUB_EnumHubStage2@@YGXPAT_URB@@PAVIUsbDevice@@@Z 004fc36b f   xapilib:hub.obj
 0005:00004ca7       ?USBHUB_EnumHubStage1@@YGXPAT_URB@@PAVIUsbDevice@@@Z 004fc3e7 f   xapilib:hub.obj
 0005:00004dcd       _USBHUB_AddDevice@4        004fc50d f   xapilib:hub.obj
 0005:00004eaf       @OHCD_RootHubProcessHotPlug@8 004fc5ef f   xapilib:roothub.obj
 0005:00004f3e       _HCD_ResetRootHubPort@16   004fc67e f   xapilib:roothub.obj
 0005:00004f8b       _HCD_DisableRootHubPort@8  004fc6cb f   xapilib:roothub.obj
 0005:00004fa8       _OHCD_RootHubResetDpc@16   004fc6e8 f   xapilib:roothub.obj
 0005:00004fd3       @OHCD_RootHubProcessInterrupt@4 004fc713 f   xapilib:roothub.obj
 0005:00005092       _OHCD_PoolFreeTD@4         004fc7d2 f i xapilib:pool.obj
 0005:000050af       @OHCD_ScheduleAddEndpointControlOrBulk@8 004fc7ef f   xapilib:schedule.obj
 0005:000050ec       @OHCD_ScheduleRemoveEndpointControlOrBulk@8 004fc82c f   xapilib:schedule.obj
 0005:0000513c       @OHCD_ReverseBits@8        004fc87c f   xapilib:schedule.obj
 0005:00005152       @OHCD_HookNewEndpointToChildren@12 004fc892 f   xapilib:schedule.obj
 0005:000051c9       @OHCD_ScheduleAddEndpointPeriodic@8 004fc909 f   xapilib:schedule.obj
 0005:000053a5       @OHCD_ScheduleRemoveEndpointPeriodic@8 004fcae5 f   xapilib:schedule.obj
 0005:0000551e       _OHCD_InterruptService@8   004fcc5e f   xapilib:isr.obj
 0005:000055b4       @OHCD_Get32BitFrameNumber@4 004fccf4 f   xapilib:isr.obj
 0005:000055d8       @OHCD_LockUsbFrameCounterToApuSampleCounter@4 004fcd18 f   xapilib:isr.obj
 0005:000056eb       @OHCD_fCompleteRequest@12  004fce2b f   xapilib:isr.obj
 0005:00005767       @OHCD_fCreditTDQuota@8     004fcea7 f   xapilib:isr.obj
 0005:00005799       @OHCD_fProcessFailedTD@8   004fced9 f   xapilib:isr.obj
 0005:0000588d       @OHCD_fProcessDoneTD@8     004fcfcd f   xapilib:isr.obj
 0005:00005939       @OHCD_fProcessCancelPendingList@8 004fd079 f   xapilib:isr.obj
 0005:00005a3b       @OHCD_fCleanEndpointTDs@8  004fd17b f   xapilib:isr.obj
 0005:00005a91       @OHCD_fProcessAbortPendingList@8 004fd1d1 f   xapilib:isr.obj
 0005:00005b18       @OHCD_fProcessClosePendingList@8 004fd258 f   xapilib:isr.obj
 0005:00005bf2       _OHCD_IsrDpc@16            004fd332 f   xapilib:isr.obj
 0005:00005d08       _OHCD_IsochPoolAllocateEndpoint@0 004fd448 f i xapilib:isoch.obj
 0005:00005d1a       @OHCD_fIsochOpenEndpoint@8 004fd45a f   xapilib:isoch.obj
 0005:00005ec7       @OHCD_fIsochCloseEndpoint@8 004fd607 f   xapilib:isoch.obj
 0005:00005f0b       @OHCD_fIsochCompleteCloseEndpoint@8 004fd64b f   xapilib:isoch.obj
 0005:00005f94       @OHCD_fIsochAttachBuffer@8 004fd6d4 f   xapilib:isoch.obj
 0005:000060fb       @OHCD_fIsochStartTransfer@8 004fd83b f   xapilib:isoch.obj
 0005:0000621a       @OHCD_fIsochStopTransfer@8 004fd95a f   xapilib:isoch.obj
 0005:00006274       @OHCD_fIsochProcessTD@8    004fd9b4 f   xapilib:isoch.obj
 0005:00006364       _OHCD_PoolAllocateTD@4     004fdaa4 f i xapilib:transfer.obj
 0005:00006384       _OHCD_PoolDebitControlTDQuota@4 004fdac4 f i xapilib:transfer.obj
 0005:000063a3       _OHCD_PoolDebitBulkTDQuota@4 004fdae3 f i xapilib:transfer.obj
 0005:000063c2       @OHCD_fGetTDsRequired@8    004fdb02 f   xapilib:transfer.obj
 0005:000063f4       @OHCD_fMapTransfer@12      004fdb34 f   xapilib:transfer.obj
 0005:0000642e       @OHCD_fProgramTransfer@12  004fdb6e f   xapilib:transfer.obj
 0005:0000672c       @OHCD_fProgramInterruptTransfer@8 004fde6c f   xapilib:transfer.obj
 0005:0000677f       @OHCD_fProgramBulkTransfer@4 004fdebf f   xapilib:transfer.obj
 0005:000067cc       @OHCD_fProgramControlTransfer@4 004fdf0c f   xapilib:transfer.obj
 0005:00006819       @OHCD_fQueueInterruptTransfer@12 004fdf59 f   xapilib:transfer.obj
 0005:0000684c       @OHCD_fQueueBulkTransfer@8 004fdf8c f   xapilib:transfer.obj
 0005:00006888       @OHCD_fQueueControlTransfer@8 004fdfc8 f   xapilib:transfer.obj
 0005:000068c4       @OHCD_fQueueTransferRequest@8 004fe004 f   xapilib:transfer.obj
 0006:00000000       __imp_@KfLowerIrql@4       004fe0a0     xboxkrnl:xboxkrnl.exe
 0006:00000004       __imp__KeRaiseIrqlToDpcLevel@0 004fe0a4     xboxkrnl:xboxkrnl.exe
 0006:00000008       __imp__ExAllocatePoolWithTag@8 004fe0a8     xboxkrnl:xboxkrnl.exe
 0006:0000000c       __imp__HalWriteSMBusValue@16 004fe0ac     xboxkrnl:xboxkrnl.exe
 0006:00000010       __imp__IoCreateSymbolicLink@8 004fe0b0     xboxkrnl:xboxkrnl.exe
 0006:00000014       __imp__IoDeleteSymbolicLink@4 004fe0b4     xboxkrnl:xboxkrnl.exe
 0006:00000018       __imp__NtCreateFile@36     004fe0b8     xboxkrnl:xboxkrnl.exe
 0006:0000001c       __imp__RtlInitAnsiString@8 004fe0bc     xboxkrnl:xboxkrnl.exe
 0006:00000020       __imp__MmPersistContiguousMemory@12 004fe0c0     xboxkrnl:xboxkrnl.exe
 0006:00000024       __imp__MmAllocateContiguousMemory@4 004fe0c4     xboxkrnl:xboxkrnl.exe
 0006:00000028       __imp__LaunchDataPage      004fe0c8     xboxkrnl:xboxkrnl.exe
 0006:00000028       _LaunchDataPage            004fe0c8     xboxkrnl:xboxkrnl.exe
 0006:0000002c       __imp__MmFreeContiguousMemory@4 004fe0cc     xboxkrnl:xboxkrnl.exe
 0006:00000030       __imp__RtlNtStatusToDosError@4 004fe0d0     xboxkrnl:xboxkrnl.exe
 0006:00000034       __imp__HalReturnToFirmware@4 004fe0d4     xboxkrnl:xboxkrnl.exe
 0006:00000038       __imp__KeQuerySystemTime@4 004fe0d8     xboxkrnl:xboxkrnl.exe
 0006:0000003c       _KeTickCount               004fe0dc     xboxkrnl:xboxkrnl.exe
 0006:0000003c       __imp__KeTickCount         004fe0dc     xboxkrnl:xboxkrnl.exe
 0006:00000040       __imp__NtSetEvent@8        004fe0e0     xboxkrnl:xboxkrnl.exe
 0006:00000044       __imp__NtPulseEvent@8      004fe0e4     xboxkrnl:xboxkrnl.exe
 0006:00000048       __imp__NtCreateSemaphore@16 004fe0e8     xboxkrnl:xboxkrnl.exe
 0006:0000004c       __imp__NtReleaseSemaphore@12 004fe0ec     xboxkrnl:xboxkrnl.exe
 0006:00000050       __imp__NtCreateMutant@12   004fe0f0     xboxkrnl:xboxkrnl.exe
 0006:00000054       __imp__NtReleaseMutant@8   004fe0f4     xboxkrnl:xboxkrnl.exe
 0006:00000058       __imp__NtWaitForSingleObjectEx@16 004fe0f8     xboxkrnl:xboxkrnl.exe
 0006:0000005c       __imp__KeDelayExecutionThread@12 004fe0fc     xboxkrnl:xboxkrnl.exe
 0006:00000060       __imp__KeSetTimerEx@20     004fe100     xboxkrnl:xboxkrnl.exe
 0006:00000064       __imp__KeQueryInterruptTime@0 004fe104     xboxkrnl:xboxkrnl.exe
 0006:00000068       __imp__RtlLeaveCriticalSection@4 004fe108     xboxkrnl:xboxkrnl.exe
 0006:0000006c       __imp__RtlEnterCriticalSection@4 004fe10c     xboxkrnl:xboxkrnl.exe
 0006:00000070       __imp__KeWaitForMultipleObjects@32 004fe110     xboxkrnl:xboxkrnl.exe
 0006:00000074       __imp__KeSetEvent@12       004fe114     xboxkrnl:xboxkrnl.exe
 0006:00000078       __imp__KeInitializeTimerEx@8 004fe118     xboxkrnl:xboxkrnl.exe
 0006:0000007c       __imp__KeWaitForSingleObject@20 004fe11c     xboxkrnl:xboxkrnl.exe
 0006:00000080       __imp__KeCancelTimer@4     004fe120     xboxkrnl:xboxkrnl.exe
 0006:00000084       __imp__ExQueryNonVolatileSetting@20 004fe124     xboxkrnl:xboxkrnl.exe
 0006:00000088       __imp__NtClose@4           004fe128     xboxkrnl:xboxkrnl.exe
 0006:0000008c       __imp_@ObfDereferenceObject@4 004fe12c     xboxkrnl:xboxkrnl.exe
 0006:00000090       __imp__KeSetBasePriorityThread@8 004fe130     xboxkrnl:xboxkrnl.exe
 0006:00000094       __imp__ObReferenceObjectByHandle@12 004fe134     xboxkrnl:xboxkrnl.exe
 0006:00000098       __imp__PsThreadObjectType  004fe138     xboxkrnl:xboxkrnl.exe
 0006:00000098       _PsThreadObjectType        004fe138     xboxkrnl:xboxkrnl.exe
 0006:0000009c       __imp__RtlRaiseException@4 004fe13c     xboxkrnl:xboxkrnl.exe
 0006:000000a0       __imp__PsTerminateSystemThread@4 004fe140     xboxkrnl:xboxkrnl.exe
 0006:000000a4       __imp__PsCreateSystemThreadEx@40 004fe144     xboxkrnl:xboxkrnl.exe
 0006:000000a8       __imp__KeSetTimer@16       004fe148     xboxkrnl:xboxkrnl.exe
 0006:000000ac       __imp__HalInitiateShutdown@0 004fe14c     xboxkrnl:xboxkrnl.exe
 0006:000000b0       _XboxHardwareInfo          004fe150     xboxkrnl:xboxkrnl.exe
 0006:000000b0       __imp__XboxHardwareInfo    004fe150     xboxkrnl:xboxkrnl.exe
 0006:000000b4       __imp__KeInitializeDpc@12  004fe154     xboxkrnl:xboxkrnl.exe
 0006:000000b8       __imp__NtWaitForSingleObject@12 004fe158     xboxkrnl:xboxkrnl.exe
 0006:000000bc       __imp__NtReadFile@32       004fe15c     xboxkrnl:xboxkrnl.exe
 0006:000000c0       __imp__NtWriteFile@32      004fe160     xboxkrnl:xboxkrnl.exe
 0006:000000c4       __imp__NtSetInformationFile@20 004fe164     xboxkrnl:xboxkrnl.exe
 0006:000000c8       __imp__NtQueryInformationFile@20 004fe168     xboxkrnl:xboxkrnl.exe
 0006:000000cc       __imp__NtQueryVolumeInformationFile@20 004fe16c     xboxkrnl:xboxkrnl.exe
 0006:000000d0       __imp__NtFlushBuffersFile@8 004fe170     xboxkrnl:xboxkrnl.exe
 0006:000000d4       __imp__NtFsControlFile@40  004fe174     xboxkrnl:xboxkrnl.exe
 0006:000000d8       __imp__NtDeviceIoControlFile@40 004fe178     xboxkrnl:xboxkrnl.exe
 0006:000000dc       __imp__NtQuerySymbolicLinkObject@12 004fe17c     xboxkrnl:xboxkrnl.exe
 0006:000000e0       __imp__NtOpenSymbolicLinkObject@8 004fe180     xboxkrnl:xboxkrnl.exe
 0006:000000e4       __imp__XcSHAFinal@8        004fe184     xboxkrnl:xboxkrnl.exe
 0006:000000e8       __imp__XcSHAUpdate@12      004fe188     xboxkrnl:xboxkrnl.exe
 0006:000000ec       __imp__XcSHAInit@4         004fe18c     xboxkrnl:xboxkrnl.exe
 0006:000000f0       __imp__XeImageFileName     004fe190     xboxkrnl:xboxkrnl.exe
 0006:000000f0       _XeImageFileName           004fe190     xboxkrnl:xboxkrnl.exe
 0006:000000f4       __imp__NtOpenFile@24       004fe194     xboxkrnl:xboxkrnl.exe
 0006:000000f8       __imp__HalRegisterShutdownNotification@8 004fe198     xboxkrnl:xboxkrnl.exe
 0006:000000fc       __imp__MmSetAddressProtect@12 004fe19c     xboxkrnl:xboxkrnl.exe
 0006:00000100       __imp__MmQueryAddressProtect@4 004fe1a0     xboxkrnl:xboxkrnl.exe
 0006:00000104       _XboxKrnlVersion           004fe1a4     xboxkrnl:xboxkrnl.exe
 0006:00000104       __imp__XboxKrnlVersion     004fe1a4     xboxkrnl:xboxkrnl.exe
 0006:00000108       _HalBootSMCVideoMode       004fe1a8     xboxkrnl:xboxkrnl.exe
 0006:00000108       __imp__HalBootSMCVideoMode 004fe1a8     xboxkrnl:xboxkrnl.exe
 0006:0000010c       __imp__XcHMAC@28           004fe1ac     xboxkrnl:xboxkrnl.exe
 0006:00000110       _XboxHDKey                 004fe1b0     xboxkrnl:xboxkrnl.exe
 0006:00000110       __imp__XboxHDKey           004fe1b0     xboxkrnl:xboxkrnl.exe
 0006:00000114       __imp__RtlEqualString@12   004fe1b4     xboxkrnl:xboxkrnl.exe
 0006:00000118       __imp__XeLoadSection@4     004fe1b8     xboxkrnl:xboxkrnl.exe
 0006:0000011c       __imp__XeUnloadSection@4   004fe1bc     xboxkrnl:xboxkrnl.exe
 0006:00000120       __imp__HalDiskCachePartitionCount 004fe1c0     xboxkrnl:xboxkrnl.exe
 0006:00000120       _HalDiskCachePartitionCount 004fe1c0     xboxkrnl:xboxkrnl.exe
 0006:00000124       __imp__NtFreeVirtualMemory@12 004fe1c4     xboxkrnl:xboxkrnl.exe
 0006:00000128       __imp__NtAllocateVirtualMemory@20 004fe1c8     xboxkrnl:xboxkrnl.exe
 0006:0000012c       __imp__RtlCompareMemoryUlong@12 004fe1cc     xboxkrnl:xboxkrnl.exe
 0006:00000130       __imp__RtlInitializeCriticalSection@4 004fe1d0     xboxkrnl:xboxkrnl.exe
 0006:00000134       __imp__NtQueryVirtualMemory@8 004fe1d4     xboxkrnl:xboxkrnl.exe
 0006:00000138       _IdexChannelObject         004fe1d8     xboxkrnl:xboxkrnl.exe
 0006:00000138       __imp__IdexChannelObject   004fe1d8     xboxkrnl:xboxkrnl.exe
 0006:0000013c       __imp__ExFreePool@4        004fe1dc     xboxkrnl:xboxkrnl.exe
 0006:00000140       __imp__HalGetInterruptVector@8 004fe1e0     xboxkrnl:xboxkrnl.exe
 0006:00000144       __imp_@KfRaiseIrql@4       004fe1e4     xboxkrnl:xboxkrnl.exe
 0006:00000148       __imp__KeConnectInterrupt@4 004fe1e8     xboxkrnl:xboxkrnl.exe
 0006:0000014c       __imp__KeInitializeInterrupt@28 004fe1ec     xboxkrnl:xboxkrnl.exe
 0006:00000150       __imp__KeStallExecutionProcessor@4 004fe1f0     xboxkrnl:xboxkrnl.exe
 0006:00000154       __imp__MmGetPhysicalAddress@4 004fe1f4     xboxkrnl:xboxkrnl.exe
 0006:00000158       __imp__MmLockUnlockBufferPages@12 004fe1f8     xboxkrnl:xboxkrnl.exe
 0006:0000015c       __imp__KeInsertQueueDpc@12 004fe1fc     xboxkrnl:xboxkrnl.exe
 0006:00000160       __imp__MmLockUnlockPhysicalPage@8 004fe200     xboxkrnl:xboxkrnl.exe
 0006:00000164       __imp__MmAllocateContiguousMemoryEx@20 004fe204     xboxkrnl:xboxkrnl.exe
 0006:00000168       __imp__MmQueryAllocationSize@4 004fe208     xboxkrnl:xboxkrnl.exe
 0006:0000016c       __imp__AvGetSavedDataAddress@0 004fe20c     xboxkrnl:xboxkrnl.exe
 0006:00000170       __imp__AvSendTVEncoderOption@16 004fe210     xboxkrnl:xboxkrnl.exe
 0006:00000174       __imp__AvSetDisplayMode@24 004fe214     xboxkrnl:xboxkrnl.exe
 0006:00000178       __imp__AvSetSavedDataAddress@4 004fe218     xboxkrnl:xboxkrnl.exe
 0006:0000017c       __imp__HalReadWritePCISpace@24 004fe21c     xboxkrnl:xboxkrnl.exe
 0006:00000180       __imp__KeDisconnectInterrupt@4 004fe220     xboxkrnl:xboxkrnl.exe
 0006:00000184       __imp__DbgPrint            004fe224     xboxkrnl:xboxkrnl.exe
 0006:00000188       __imp__MmClaimGpuInstanceMemory@8 004fe228     xboxkrnl:xboxkrnl.exe
 0006:0000018c       __imp__KeSaveFloatingPointState@4 004fe22c     xboxkrnl:xboxkrnl.exe
 0006:00000190       __imp__KeRestoreFloatingPointState@4 004fe230     xboxkrnl:xboxkrnl.exe
 0006:00000194       __imp__ExQueryPoolBlockSize@4 004fe234     xboxkrnl:xboxkrnl.exe
 0006:00000198       __imp__KeRemoveQueueDpc@4  004fe238     xboxkrnl:xboxkrnl.exe
 0006:0000019c       __imp__KeSynchronizeExecution@12 004fe23c     xboxkrnl:xboxkrnl.exe
 0006:000001a0       __imp__RtlUnwind@16        004fe240     xboxkrnl:xboxkrnl.exe
 0006:000001a4       __imp__KeBugCheck@4        004fe244     xboxkrnl:xboxkrnl.exe
 0006:000001a8       \177xboxkrnl_NULL_THUNK_DATA 004fe248     xboxkrnl:xboxkrnl.exe
 0006:000001d0       _D3DDIRTYFROMTEXTURESTATE  004fe270     Door.obj
 0006:00000228       _D3DDIRTYFROMRENDERSTATE   004fe2c8     Door.obj
 0006:000002d8       _D3DSIMPLERENDERSTATEENCODE 004fe378     Door.obj
 0006:00000448       __real@3f800000            004fe4e8     Door.obj
 0006:0000044c       __real@3df5c28f            004fe4ec     Door.obj
 0006:00000450       __real@3da3d70a            004fe4f0     Door.obj
 0006:00000454       ??_7Sprite@@6B@            004fe4f4     Furby.obj
 0006:0000045c       ??_7Furby@@6B@             004fe4fc     Furby.obj
 0006:00000468       __real@3fd45f306dc9c883    004fe508     Furby.obj
 0006:00000470       __real@43340000            004fe510     Furby.obj
 0006:00000474       ??_7Shot@@6B@              004fe514     Furby.obj
 0006:00000480       __real@3f91df46a2529d39    004fe520     Furby.obj
 0006:00000488       ??_7SKDeathAnimation@@6B@  004fe528     Furby.obj
 0006:00000488       ??_7DeathAnimation@@6B@    004fe528     Furby.obj
 0006:00000490       ??_7Skull@@6B@             004fe530     Furby.obj
 0006:0000049c       ??_7SkullShot@@6B@         004fe53c     Furby.obj
 0006:000004a8       ??_7logic_error@std@@6B@   004fe548     Furby.obj
 0006:000004a8       ??_7length_error@std@@6B@  004fe548     Furby.obj
 0006:000004b0       ??_C@_0BB@MOGOBHAF@list?$DMT?$DO?5too?5long?$AA@ 004fe550     Furby.obj
 0006:000004c4       __real@3ecccccd            004fe564     Furby.obj
 0006:000004c8       ??_C@_09GFGMNAM@Framework?$AA@ 004fe568     Main.obj
 0006:000004d4       ??_7State@@6B@             004fe574     Main.obj
 0006:000004f0       ??_C@_0BDH@BEILMPOP@FurbyKill3D?5?9?5Help?6Possible?5opti@ 004fe590     Main.obj
 0006:00000628       ??_C@_0ED@KPPAHKBP@Usage?3?6furbykill3d?5?$FL?9?9fullscreen@ 004fe6c8     Main.obj
 0006:0000066c       ??_C@_05BFPFJDDN@?9?9bad?$AA@ 004fe70c     Main.obj
 0006:00000674       ??_C@_02GHOAPKHL@?9b?$AA@  004fe714     Main.obj
 0006:00000678       ??_C@_09OEBKHDEM@?9?9nosound?$AA@ 004fe718     Main.obj
 0006:00000684       ??_C@_02MLFFLFHH@?9n?$AA@  004fe724     Main.obj
 0006:00000688       ??_C@_05JOFLIIJG@?9?9low?$AA@ 004fe728     Main.obj
 0006:00000690       ??_C@_02PJGDNHPF@?9l?$AA@  004fe730     Main.obj
 0006:00000694       ??_C@_02OAHIOGLE@?9m?$AA@  004fe734     Main.obj
 0006:00000698       ??_C@_02DIMDPHP@?9f?$AA@   004fe738     Main.obj
 0006:0000069c       ??_C@_0N@HODNNBDN@?9?9fullscreen?$AA@ 004fe73c     Main.obj
 0006:000006ac       ??_C@_07GFNBNLAB@?9?9usage?$AA@ 004fe74c     Main.obj
 0006:000006b4       ??_C@_02JNAPBCPB@?9h?$AA@  004fe754     Main.obj
 0006:000006b8       ??_C@_06LMIDBODK@?9?9help?$AA@ 004fe758     Main.obj
 0006:000006c0       ??_7Splash@@6B@            004fe760     Main.obj
 0006:000006d8       ??_C@_0M@BBMKNPCD@FurbyKill3D?$AA@ 004fe778     Main.obj
 0006:000006e4       __real@43b40000            004fe784     Raycaster.obj
 0006:000006e8       __real@43000000            004fe788     Raycaster.obj
 0006:000006ec       ??_C@_0BA@MNFENAOI@Ugly?5map?5index?$CB?$AA@ 004fe78c     Raycaster.obj
 0006:000006fc       __real@42700000            004fe79c     Raycaster.obj
 0006:00000700       __real@3f000000            004fe7a0     Raycaster.obj
 0006:00000704       ??_C@_06MEHKENPD@Fatal?$CB?$AA@ 004fe7a4     Raycaster.obj
 0006:0000070c       ??_C@_0BK@KFFOAFBO@No?5door?5at?5pos?3?5?$CFd?0?5?$CFd?$CB?6?5?$AA@ 004fe7ac     Raycaster.obj
 0006:00000728       __real@3eb33333            004fe7c8     Raycaster.obj
 0006:0000072c       __real@bf800000            004fe7cc     Raycaster.obj
 0006:00000730       __real@43870000            004fe7d0     Raycaster.obj
 0006:00000734       __real@42b40000            004fe7d4     Raycaster.obj
 0006:00000738       ??_C@_0BF@MAEFJMPG@Can?8t?5load?5file?3?5?$CFs?$CB?$AA@ 004fe7d8     Raycaster.obj
 0006:00000750       ??_C@_01KDCPPGHE@r?$AA@    004fe7f0     Raycaster.obj
 0006:00000758       __real@3fe0c152382d7365    004fe7f8     Raycaster.obj
 0006:00000760       ??_C@_0BL@LAOOJLPO@images?2lowQuality?2roof?4bmp?$AA@ 004fe800     Raycaster.obj
 0006:0000077c       ??_C@_0BK@MOBNLHGB@images?2lowQuality?2sky?4bmp?$AA@ 004fe81c     Raycaster.obj
 0006:00000798       ??_C@_0BA@KLCGPNAO@images?2roof?4bmp?$AA@ 004fe838     Raycaster.obj
 0006:000007a8       ??_C@_0P@HNODMDE@images?2sky?4bmp?$AA@ 004fe848     Raycaster.obj
 0006:000007b8       __real@3ff0c152382d7365    004fe858     Raycaster.obj
 0006:000007c0       __real@3efae148            004fe860     Raycaster.obj
 0006:000007c4       __real@42800000            004fe864     Raycaster.obj
 0006:000007c8       __real@40000000            004fe868     Raycaster.obj
 0006:000007cc       __real@3727c5ac            004fe86c     Raycaster.obj
 0006:000007d0       __real@41f00000            004fe870     Raycaster.obj
 0006:000007d4       ??_C@_0BH@EHDDPJLM@2006?5by?5Andre?5Schnabel?$AA@ 004fe874     Splash.obj
 0006:000007ec       ??_C@_0BG@EPEJEJCE@sounds?2introsound?4ogg?$AA@ 004fe88c     Splash.obj
 0006:00000804       ??_C@_0BN@KAGLDBHB@images?2lowQuality?2splash?4bmp?$AA@ 004fe8a4     Splash.obj
 0006:00000824       ??_C@_0BC@BAAGAPGJ@images?2splash?4bmp?$AA@ 004fe8c4     Splash.obj
 0006:00000838       ??_C@_0P@HGEEEDKP@images?2sdl?4jpg?$AA@ 004fe8d8     Splash.obj
 0006:00000848       ??_C@_0L@DCCGFMBN@Error?3?5?$CFs?6?$AA@ 004fe8e8     x_Framework.obj
 0006:00000854       ??_C@_0BC@HBOJNKHB@Framework?5?$CI?$CC?$CFs?$CC?$CJ?6?$AA@ 004fe8f4     x_Framework.obj
 0006:00000868       ??_C@_0CJ@DAKEOHLM@Please?5set?5a?5valid?5bits?5per?5pixe@ 004fe908     x_Framework.obj
 0006:00000894       ??_C@_0CE@DLLODDPC@Framework?3?3LoadImage?3?5Success?3?5?$CF@ 004fe934     x_Framework.obj
 0006:000008b8       ??_C@_0BK@NAIDLLFK@Unable?5to?5load?5image?3?5?$CFs?$CB?$AA@ 004fe958     x_Framework.obj
 0006:000008d4       ??_C@_04HDOCAJNK@?$CFs?$CFs?$AA@ 004fe974     x_Framework.obj
 0006:000008dc       ??_C@_08OGIBOCBJ@D?3?2data?2?$AA@ 004fe97c     x_Framework.obj
 0006:000008e8       __real@45fa0000            004fe988     x_Framework.obj
 0006:000008ec       __real@c5fa0000            004fe98c     x_Framework.obj
 0006:000008f0       __real@bff0000000000000    004fe990     x_Framework.obj
 0006:000008f8       __real@38aec33e            004fe998     x_Framework.obj
 0006:000008fc       ??_C@_0CE@INLFNCKE@Framework?3?3LoadMusic?3?5Success?3?5?$CF@ 004fe99c     x_Framework.obj
 0006:00000920       ??_C@_0BH@JCINABKD@Can?8t?5load?5music?3?5?$CFs?$CB?6?$AA@ 004fe9c0     x_Framework.obj
 0006:00000938       ??_C@_0CE@POCNLKNP@Framework?3?3LoadSound?3?5Success?3?5?$CF@ 004fe9d8     x_Framework.obj
 0006:0000095c       ??_C@_0BH@FIEHLHJJ@Can?8t?5load?5sound?3?5?$CFs?$CB?6?$AA@ 004fe9fc     x_Framework.obj
 0006:00000974       ??_C@_02JDPG@rb?$AA@       004fea14     x_Framework.obj
 0006:00000978       ??_C@_0BH@JLELHKNH@sounds?2OpeningDoor?4ogg?$AA@ 004fea18     x_Framework.obj
 0006:00000990       ??_C@_0BH@BMOCIDIL@sounds?2ClosingDoor?4ogg?$AA@ 004fea30     x_Framework.obj
 0006:000009a8       ??_C@_0BG@LAMBJHNB@sounds?2EnemyShoot?4ogg?$AA@ 004fea48     x_Framework.obj
 0006:000009c0       __real@00000000            004fea60     x_Framework.obj
 0006:000009c4       ??_C@_07KIFEFNKD@FPS?3?5?$CFd?$AA@ 004fea64     x_Framework.obj
 0006:000009cc       __real@447a0000            004fea6c     x_Framework.obj
 0006:000009d0       __real@4f800000            004fea70     x_Framework.obj
 0006:000009d4       __real@497423ff            004fea74     x_Framework.obj
 0006:000009d8       ??_C@_0O@HDCPIONA@CurWeapon?3?5?$CFi?$AA@ 004fea78     x_Framework.obj
 0006:000009e8       ??_C@_08PNCIFLJF@Axis?3?5?$CFi?$AA@ 004fea88     x_Framework.obj
 0006:000009f4       ??_C@_0BA@PECLOCNF@Joypad?5Name?3?5?$CFs?$AA@ 004fea94     x_Framework.obj
 0006:00000a04       ??_C@_0L@GEGBMPLH@AxisTR?3?5?$CFf?$AA@ 004feaa4     x_Framework.obj
 0006:00000a10       ??_C@_0L@GNHGAKEO@AxisRY?3?5?$CFf?$AA@ 004feab0     x_Framework.obj
 0006:00000a1c       ??_C@_0L@KGCKNJOL@AxisRX?3?5?$CFf?$AA@ 004feabc     x_Framework.obj
 0006:00000a28       ??_C@_0L@FKJHONNN@AxisLY?3?5?$CFf?$AA@ 004feac8     x_Framework.obj
 0006:00000a34       ??_C@_0L@JBMLDOHI@AxisLX?3?5?$CFf?$AA@ 004fead4     x_Framework.obj
 0006:00000a40       __real@3a83126f            004feae0     x_Framework.obj
 0006:00000a44       ??_C@_0BH@OMNBOHFE@Framework?5initialized?4?$AA@ 004feae4     x_Framework.obj
 0006:00000a5c       ??_C@_0CF@GPLEDABP@Only?5one?5framework?5instance?5allo@ 004feafc     x_Framework.obj
 0006:00000a84       ??_C@_0BC@BLENEBPJ@Can?8t?5open?5audio?$CB?$AA@ 004feb24     x_Framework.obj
 0006:00000a98       ??_C@_0BE@NDOBIGE@Can?8t?5open?5bigFont?$CB?$AA@ 004feb38     x_Framework.obj
 0006:00000aac       ??_C@_0CF@LGACONBO@D?3?2data?2fonts?2Kill_your_darlings@ 004feb4c     x_Framework.obj
 0006:00000ad4       ??_C@_0BB@CCGBJPFM@Can?8t?5open?5font?$CB?$AA@ 004feb74     x_Framework.obj
 0006:00000ae8       ??_C@_0BH@IIEMPIP@D?3?2data?2fonts?2font?4ttf?$AA@ 004feb88     x_Framework.obj
 0006:00000b00       ??_C@_0CN@FMDAJJOD@?$CFs?5?9?5BUILD?3?5date?$CINov?5?53?52011?$CJ?5ti@ 004feba0     x_Framework.obj
 0006:00000b30       __real@3fe0000000000000    004febd0     x_Framework.obj
 0006:00000b38       __real@3fee3d70a3d70a3d    004febd8     x_Framework.obj
 0006:00000b40       ??_C@_0BG@BIDDHADB@Can?8t?5set?5video?5mode?$CB?$AA@ 004febe0     x_Framework.obj
 0006:00000b58       ??_C@_0CP@CFLMIHND@Can?8t?5initialize?5the?5SDL?5multime@ 004febf8     x_Framework.obj
 0006:00000b88       ??_C@_0BK@LFBFBNEO@Initializing?5framework?4?4?4?$AA@ 004fec28     x_Framework.obj
 0006:00000ba4       ??_C@_0BD@PEJFNPFB@Framework?5is?5down?4?$AA@ 004fec44     x_Framework.obj
 0006:00000bb8       ??_C@_0BL@BDAEMLAO@Shutting?5down?5framework?4?4?4?$AA@ 004fec58     x_Framework.obj
 0006:00000bd4       ??_C@_0CC@KLMDJECP@Loading?5Extra?5Sounds?5resources?4?4@ 004fec74     x_Game.obj
 0006:00000bf8       ??_C@_0BK@BMHLJKBP@sounds?2HeartBeat_xbox?4ogg?$AA@ 004fec98     x_Game.obj
 0006:00000c14       ??_C@_0BD@JOBCCMBM@sounds?2MGshoot?4ogg?$AA@ 004fecb4     x_Game.obj
 0006:00000c28       ??_C@_0BE@DOOHIOBG@sounds?2LVLClear?4ogg?$AA@ 004fecc8     x_Game.obj
 0006:00000c3c       ??_C@_0BG@NKBMIFLJ@sounds?2pickHealth?4ogg?$AA@ 004fecdc     x_Game.obj
 0006:00000c54       ??_C@_0BD@LLIPCCDG@sounds?2pickKey?4ogg?$AA@ 004fecf4     x_Game.obj
 0006:00000c68       ??_C@_0BG@ELHCOEPG@sounds?2PlayerDead?4ogg?$AA@ 004fed08     x_Game.obj
 0006:00000c80       ??_C@_0BF@DLPCEJAL@sounds?2EnemyHurt?4ogg?$AA@ 004fed20     x_Game.obj
 0006:00000c98       ??_C@_0BG@IEBNKCAB@sounds?2PlayerHurt?4ogg?$AA@ 004fed38     x_Game.obj
 0006:00000cb0       ??_C@_0BE@NGDFMMFB@sounds?2pickammo?4ogg?$AA@ 004fed50     x_Game.obj
 0006:00000cc4       ??_C@_0BC@FHFEOKAC@sounds?2scream?4ogg?$AA@ 004fed64     x_Game.obj
 0006:00000cd8       ??_C@_0BA@NLMEFKIK@sounds?2shot?4ogg?$AA@ 004fed78     x_Game.obj
 0006:00000ce8       ??_C@_0BG@BDJMHAPC@sounds?2startround?4ogg?$AA@ 004fed88     x_Game.obj
 0006:00000d00       ??_C@_0BM@LMHNNLEH@Loading?5Sounds?5resources?4?4?4?$AA@ 004feda0     x_Game.obj
 0006:00000d1c       ??_C@_0BB@MPNEPABG@music?2music1?4ogg?$AA@ 004fedbc     x_Game.obj
 0006:00000d30       ??_C@_0BL@HOKKKDDP@Loading?5Music?5resources?4?4?4?$AA@ 004fedd0     x_Game.obj
 0006:00000d4c       ??_C@_0BC@MMGDAKBO@images?2mg_Hud?4bmp?$AA@ 004fedec     x_Game.obj
 0006:00000d60       ??_C@_0BD@ENEJMKM@images?2mg_fire?4bmp?$AA@ 004fee00     x_Game.obj
 0006:00000d74       ??_C@_0O@MBPKEKP@images?2mg?4bmp?$AA@ 004fee14     x_Game.obj
 0006:00000d84       ??_C@_0P@PILPGNPH@images?2key?4bmp?$AA@ 004fee24     x_Game.obj
 0006:00000d94       ??_C@_0BA@BMPIGIFE@images?2fire?4bmp?$AA@ 004fee34     x_Game.obj
 0006:00000da4       ??_C@_0P@NGBNNGFF@images?2gun?4bmp?$AA@ 004fee44     x_Game.obj
 0006:00000db4       ??_C@_0BC@DENNNHNO@images?2gunHud?4bmp?$AA@ 004fee54     x_Game.obj
 0006:00000dc8       ??_C@_0BD@CNFFPGLO@images?2headRed?4bmp?$AA@ 004fee68     x_Game.obj
 0006:00000ddc       ??_C@_0BA@BOPPPDHP@images?2head?4bmp?$AA@ 004fee7c     x_Game.obj
 0006:00000dec       ??_C@_0BF@NHBBDEMK@images?2crosshair?4bmp?$AA@ 004fee8c     x_Game.obj
 0006:00000e04       ??_C@_0BB@FOBPGEIC@images?2hudBg?4bmp?$AA@ 004feea4     x_Game.obj
 0006:00000e18       ??_C@_0BK@DBHMOGKC@images?2lowQuality?2key?4bmp?$AA@ 004feeb8     x_Game.obj
 0006:00000e34       ??_C@_0BL@HDAAOKE@images?2lowQuality?2fire?4bmp?$AA@ 004feed4     x_Game.obj
 0006:00000e50       ??_C@_0BK@BPNOFNAA@images?2lowQuality?2gun?4bmp?$AA@ 004feef0     x_Game.obj
 0006:00000e6c       ??_C@_0BN@IELAOJMG@images?2lowQuality?2gunHud?4bmp?$AA@ 004fef0c     x_Game.obj
 0006:00000e8c       ??_C@_0BO@DOIJADNG@images?2lowQuality?2headRed?4bmp?$AA@ 004fef2c     x_Game.obj
 0006:00000eac       ??_C@_0BL@FDHJFIP@images?2lowQuality?2head?4bmp?$AA@ 004fef4c     x_Game.obj
 0006:00000ec8       ??_C@_0CA@LHOCMACK@images?2lowQuality?2crosshair?4bmp?$AA@ 004fef68     x_Game.obj
 0006:00000ee8       ??_C@_0BM@ODLJFOPI@images?2lowQuality?2hudBg?4bmp?$AA@ 004fef88     x_Game.obj
 0006:00000f04       ??_C@_0BF@LIAMFGHL@Loading?5ui?5images?4?4?4?$AA@ 004fefa4     x_Game.obj
 0006:00000f1c       ??_C@_0BK@CBLCDKIE@sprites?2map1?2sprite?$CFd?4bmp?$AA@ 004fefbc     x_Game.obj
 0006:00000f38       ??_C@_0BD@JPCHNPNN@Loading?5sprites?4?4?4?$AA@ 004fefd8     x_Game.obj
 0006:00000f4c       ??_C@_0BM@IDIKNAIM@textures?2map1?2tex?$CFdDark?4bmp?$AA@ 004fefec     x_Game.obj
 0006:00000f68       ??_C@_0BI@CFINIJCF@textures?2map1?2tex?$CFd?4bmp?$AA@ 004ff008     x_Game.obj
 0006:00000f80       ??_C@_0BE@GJLBHMFB@Loading?5textures?4?4?4?$AA@ 004ff020     x_Game.obj
 0006:00000f94       ??_C@_0BF@DNFECEHC@Loading?5resources?4?4?4?$AA@ 004ff034     x_Game.obj
 0006:00000fac       __real@3c23d70a            004ff04c     x_Game.obj
 0006:00000fb0       ??_C@_02DPKJAMEF@?$CFd?$AA@ 004ff050     x_Game.obj
 0006:00000fb4       ??_C@_0L@PADKNPLL@Game?5Over?$CB?$AA@ 004ff054     x_Game.obj
 0006:00000fc0       ??_C@_0EG@GAMGGKPC@Do?5you?5really?5want?5to?5quit?5this?5@ 004ff060     x_Game.obj
 0006:00001008       ??_C@_0BC@DKODAKBK@D?3?2data?2maps?2map1?$AA@ 004ff0a8     x_Game.obj
 0006:0000101c       ??_C@_0O@MCOLHPCJ@D?3?2data?2maps?2?$AA@ 004ff0bc     x_Game.obj
 0006:0000102c       ??_7Game@@6B@              004ff0cc     x_Game.obj
 0006:00001044       ??_C@_0M@PKCDOOIP@?$CFd?0?5?$CFf?0?5?$CFf?6?$AA@ 004ff0e4     x_Game.obj
 0006:00001050       ??_C@_0BL@GOHCLCDH@sprites?2map?$CFd?2sprite?$CFd?4bmp?$AA@ 004ff0f0     x_Game.obj
 0006:0000106c       ??_C@_0BN@NOGKAJFC@textures?2map?$CFd?2tex?$CFdDark?4bmp?$AA@ 004ff10c     x_Game.obj
 0006:0000108c       ??_C@_0BJ@PIDLKJAB@textures?2map?$CFd?2tex?$CFd?4bmp?$AA@ 004ff12c     x_Game.obj
 0006:000010a8       ??_C@_0BF@OFOPIOHM@music?2music_orig?4ogg?$AA@ 004ff148     x_Game.obj
 0006:000010c0       ??_C@_0BB@FEEFLCAA@music?2music5?4ogg?$AA@ 004ff160     x_Game.obj
 0006:000010d4       ??_C@_0BB@JPBJGBKF@music?2music4?4ogg?$AA@ 004ff174     x_Game.obj
 0006:000010e8       ??_C@_0BB@ICBMFBBN@music?2music3?4ogg?$AA@ 004ff188     x_Game.obj
 0006:000010fc       ??_C@_0BB@EJEAICLI@music?2music2?4ogg?$AA@ 004ff19c     x_Game.obj
 0006:00001110       ??_C@_07CIPBMLAN@sprites?$AA@ 004ff1b0     x_Game.obj
 0006:00001118       ??_C@_0BD@OHOGLPHP@D?3?2data?2maps?2map?$CFd?$AA@ 004ff1b8     x_Game.obj
 0006:0000112c       ??_C@_0BE@NPPPFAIP@Loading?5next?5map?4?4?4?$AA@ 004ff1cc     x_Game.obj
 0006:00001140       ??_C@_0BD@LGEMIKCO@Images?2loading?4bmp?$AA@ 004ff1e0     x_Game.obj
 0006:00001154       ??_C@_0CE@CHGIOAEB@You?5got?5hit?5by?5a?5shot?5from?5a?5Sku@ 004ff1f4     x_Game.obj
 0006:00001178       ??_C@_0CE@KMPNMDOH@You?5got?5hit?5by?5a?5shot?5from?5a?5fur@ 004ff218     x_Game.obj
 0006:0000119c       ??_C@_0BE@MNBPPEK@You?5killed?5a?5skull?$CB?$AA@ 004ff23c     x_Game.obj
 0006:000011b0       ??_C@_0BE@EIPJOFHA@You?5killed?5a?5furby?$CB?$AA@ 004ff250     x_Game.obj
 0006:000011c4       ??_C@_0N@CJIICOFA@Out?5of?5ammo?$CB?$AA@ 004ff264     x_Game.obj
 0006:000011d4       __real@c0c00000            004ff274     x_Game.obj
 0006:000011d8       ??_C@_0CE@KLCHBNIN@You?5need?5a?5key?5to?5unlock?5this?5do@ 004ff278     x_Game.obj
 0006:000011fc       ??_C@_0BO@KMABLKOE@You?5picked?5up?5an?5MG?5Ammopack?$CB?$AA@ 004ff29c     x_Game.obj
 0006:0000121c       ??_C@_0BP@GPMECMOF@You?5picked?5up?5the?5Machine?5Gun?$CB?$AA@ 004ff2bc     x_Game.obj
 0006:0000123c       ??_C@_0BH@IHBGNDL@You?5picked?5up?5the?5key?$CB?$AA@ 004ff2dc     x_Game.obj
 0006:00001254       ??_C@_0BL@KGAKKKDH@You?5picked?5up?5an?5Ammopack?$CB?$AA@ 004ff2f4     x_Game.obj
 0006:00001270       ??_C@_0BJ@JOKKHFF@You?5picked?5up?5a?5Medpack?$CB?$AA@ 004ff310     x_Game.obj
 0006:0000128c       __real@3ba3d70a            004ff32c     x_Game.obj
 0006:00001290       ??_C@_02GMLFBBN@wb?$AA@    004ff330     x_Game.obj
 0006:00001294       ??_C@_0BH@JAIFOHGJ@screenshots?1shot?$CFd?4bmp?$AA@ 004ff334     x_Game.obj
 0006:000012ac       ??_C@_0BG@HKBNBAMB@timeSetEvent?$CI?$CJ?5failed?$AA@ 004ff34c     libsdlx:SDL_systimer.obj
 0006:000012c4       ??_C@_0DA@BGLKEAGI@Internal?5logic?5error?3?5Win32?5uses@ 004ff364     libsdlx:SDL_systimer.obj
 0006:000012f4       ??_C@_0CF@ILLBAFPC@SDL_UpperBlit?3?5passed?5a?5NULL?5sur@ 004ff394     libsdlx:SDL_surface.obj
 0006:0000131c       ??_C@_0CI@DBDIFOAL@Surfaces?5must?5not?5be?5locked?5duri@ 004ff3bc     libsdlx:SDL_surface.obj
 0006:00001344       ??_C@_0CE@BKMMPLH@1?9bpp?5rect?5fill?5not?5yet?5implemen@ 004ff3e4     libsdlx:SDL_surface.obj
 0006:00001368       ??_C@_0CE@KMIMEDLF@4?9bpp?5rect?5fill?5not?5yet?5implemen@ 004ff408     libsdlx:SDL_surface.obj
 0006:0000138c       ??_C@_0CI@HPJOHICK@Fill?5rect?5on?5unsupported?5surface@ 004ff42c     libsdlx:SDL_surface.obj
 0006:000013b4       ??_C@_0BK@EIJMFOLB@Empty?5destination?5palette?$AA@ 004ff454     libsdlx:SDL_surface.obj
 0006:000013d0       ??_C@_0BN@KHJECEAE@Unrecognized?5sound?5file?5type?$AA@ 004ff470     libsdlx:mixer.obj
 0006:000013f0       ??_C@_0O@NALGGDJF@Out?5of?5memory?$AA@ 004ff490     libsdlx:mixer.obj
 0006:00001400       ??_C@_0CA@BBKGJLDG@Audio?5device?5hasn?8t?5been?5opened?$AA@ 004ff4a0     libsdlx:mixer.obj
 0006:00001420       ??_C@_0BN@CKHMNGMH@Mix_LoadWAV_RW?5with?5NULL?5src?$AA@ 004ff4c0     libsdlx:mixer.obj
 0006:00001440       ??_C@_0P@DHEBFDOP@Internal?5error?$AA@ 004ff4e0     libsdlx:mixer.obj
 0006:00001450       ??_C@_0BH@CGICBGFK@Invalid?5channel?5number?$AA@ 004ff4f0     libsdlx:mixer.obj
 0006:00001468       ??_C@_0BL@KOGJEMGN@No?5free?5channels?5available?$AA@ 004ff508     libsdlx:mixer.obj
 0006:00001484       ??_C@_0BL@NNGCHICI@Tried?5to?5play?5a?5NULL?5chunk?$AA@ 004ff524     libsdlx:mixer.obj
 0006:000014a0       ??_C@_0CL@FLABHPNN@Invalid?5bits?5per?5pixel?5?$CIrange?5is@ 004ff540     libsdlx:SDL_video.obj
 0006:000014cc       ??_C@_0BI@KEEJDDFA@Invalid?5width?5or?5height?$AA@ 004ff56c     libsdlx:SDL_video.obj
 0006:000014e4       ??_C@_0CF@DMFBCMNF@No?5video?5mode?5large?5enough?5for?5?$CF@ 004ff584     libsdlx:SDL_video.obj
 0006:0000150c       ??_C@_0BL@MCDAEMGE@No?5video?5mode?5has?5been?5set?$AA@ 004ff5ac     libsdlx:SDL_video.obj
 0006:00001528       ??_C@_0BK@IGCJJGJH@No?5available?5video?5device?$AA@ 004ff5c8     libsdlx:SDL_video.obj
 0006:00001544       ??_C@_0CD@DMBOALMN@OS?5doesn?8t?5support?5threaded?5even@ 004ff5e4     libsdlx:SDL_video.obj
 0006:00001568       ??_C@_0BP@BFHCIFGK@Couldn?8t?5create?5shadow?5surface?$AA@ 004ff608     libsdlx:SDL_video.obj
 0006:00001588       ??_C@_0CC@DOEBGKEA@Video?5mode?5smaller?5than?5requeste@ 004ff628     libsdlx:SDL_video.obj
 0006:000015ac       ??_C@_0CH@GDFJNIDA@Somebody?5forgot?5to?5?$CDdefine?5HAVE_@ 004ff64c     libsdlx:SDL_video.obj
 0006:000015d4       ??_C@_0CB@KCPNOAKL@There?5are?5?$CFd?5joysticks?5available@ 004ff674     libsdlx:SDL_joystick.obj
 0006:000015f8       ??_C@_0CA@FCHBKHPL@Joystick?5hasn?8t?5been?5opened?5yet?$AA@ 004ff698     libsdlx:SDL_joystick.obj
 0006:00001618       ??_C@_0BK@DOKCBDHC@Joystick?5only?5has?5?$CFd?5axes?$AA@ 004ff6b8     libsdlx:SDL_joystick.obj
 0006:00001634       ??_C@_0BK@DEHKAFB@Joystick?5only?5has?5?$CFd?5hats?$AA@ 004ff6d4     libsdlx:SDL_joystick.obj
 0006:00001650       ??_C@_0BN@LOKOHPBB@Joystick?5only?5has?5?$CFd?5buttons?$AA@ 004ff6f0     libsdlx:SDL_joystick.obj
 0006:00001670       ??_C@_0BK@HJKEJEPM@Couldn?8t?5lock?5event?5queue?$AA@ 004ff710     libsdlx:SDL_events.obj
 0006:0000168c       ??_C@_0BI@NDHBOKGO@Couldn?8t?5read?5from?5?8?$CFs?8?$AA@ 004ff72c     libsdlx:music.obj
 0006:000016a4       ??_C@_0BI@CHPIPLED@Unable?5to?5load?5WAV?5file?$AA@ 004ff744     libsdlx:music.obj
 0006:000016bc       ??_C@_0CK@ILPEDNMM@MPEG?5file?5does?5not?5have?5any?5audi@ 004ff75c     libsdlx:music.obj
 0006:000016e8       ??_C@_04JLNKANFB@MPEG?$AA@ 004ff788     libsdlx:music.obj
 0006:000016f0       ??_C@_03CPBCOLID@MP3?$AA@  004ff790     libsdlx:music.obj
 0006:000016f4       ??_C@_03GEEBFHHB@MPG?$AA@  004ff794     libsdlx:music.obj
 0006:000016f8       ??_C@_04JJIBNLPC@OggS?$AA@ 004ff798     libsdlx:music.obj
 0006:00001700       ??_C@_03NHCBCKAP@OGG?$AA@  004ff7a0     libsdlx:music.obj
 0006:00001704       ??_C@_02DKCKIIND@?$CFs?$AA@ 004ff7a4     libsdlx:music.obj
 0006:00001708       ??_C@_04JKIEDINE@MThd?$AA@ 004ff7a8     libsdlx:music.obj
 0006:00001710       ??_C@_04CJIKFCPN@MIDI?$AA@ 004ff7b0     libsdlx:music.obj
 0006:00001718       ??_C@_03FMJLJMEN@MID?$AA@  004ff7b8     libsdlx:music.obj
 0006:0000171c       ??_C@_04HPGCGPG@FORM?$AA@  004ff7bc     libsdlx:music.obj
 0006:00001724       ??_C@_04EPCGJKAP@RIFF?$AA@ 004ff7c4     libsdlx:music.obj
 0006:0000172c       ??_C@_03BFNIAKNN@WAV?$AA@  004ff7cc     libsdlx:music.obj
 0006:00001730       __real@0000000000000000    004ff7d0     libsdlx:music.obj
 0006:00001738       ??_C@_0CI@GANBANLI@Position?5not?5implemented?5for?5mus@ 004ff7d8     libsdlx:music.obj
 0006:00001760       __real@4059000000000000    004ff800     libsdlx:music.obj
 0006:00001768       __real@3c000000            004ff808     libsdlx:music.obj
 0006:00001770       __real@408f400000000000    004ff810     libsdlx:music.obj
 0006:00001778       ??_C@_0CH@NBEALDPN@Hardware?5uses?5more?5channels?5than@ 004ff818     libsdlx:music.obj
 0006:000017a0       ??_C@_0BO@CLBDEAKL@Unknown?5hardware?5audio?5format?$AA@ 004ff840     libsdlx:music.obj
 0006:000017c0       ??_C@_0BO@CPPGNGCK@Can?8t?5play?5unknown?5music?5type?$AA@ 004ff860     libsdlx:music.obj
 0006:000017e0       ??_C@_0BJ@BAGBAMIL@music?5parameter?5was?5NULL?$AA@ 004ff880     libsdlx:music.obj
 0006:000017fc       ??_C@_0CL@PKHEEMIB@You?5can?8t?5pass?5a?5FILE?5pointer?5to@ 004ff89c     libsdlx:SDL_rwops.obj
 0006:00001828       ??_C@_0BB@MAHHKGJO@Couldn?8t?5open?5?$CFs?$AA@ 004ff8c8     libsdlx:SDL_rwops.obj
 0006:0000183c       ??_C@_0BM@KMAIFDNF@XBOX?5SDL?5video?5driver?5V0?409?$AA@ 004ff8dc     libsdlx:SDL_xboxvideo.obj
 0006:00001858       ??_C@_04JAHABPP@XBOX?$AA@  004ff8f8     libsdlx:SDL_xboxvideo.obj
 0006:000018b0       ??_C@_0BN@HDLPDGGM@Couldn?8t?5allocate?5modes?5list?$AA@ 004ff950     libsdlx:SDL_xboxvideo.obj
 0006:000018d0       ??_C@_0CF@BGOJMJCO@Couldn?8t?5find?5requested?5mode?5in?5@ 004ff970     libsdlx:SDL_xboxvideo.obj
 0006:000018f8       ??_C@_0CC@JMLHGDED@Couldn?8t?5create?5Direct3D?5Texture@ 004ff998     libsdlx:SDL_xboxvideo.obj
 0006:0000191c       ??_C@_0DG@IEFDBHLE@Couldn?8t?5allocate?5new?5pixel?5form@ 004ff9bc     libsdlx:SDL_xboxvideo.obj
 0006:00001958       __real@3fe8000000000000    004ff9f8     libsdlx:SDL_xboxvideo.obj
 0006:00001960       ??_C@_0BD@BKDCBBBA@No?5modes?5available?$AA@ 004ffa00     libsdlx:SDL_xboxvideo.obj
 0006:00001974       ??_C@_04HOKNPDPJ@undo?$AA@ 004ffa14     libsdlx:SDL_keyboard.obj
 0006:0000197c       ??_C@_04IBPOGLCH@euro?$AA@ 004ffa1c     libsdlx:SDL_keyboard.obj
 0006:00001984       ??_C@_05PLIADJJL@power?$AA@ 004ffa24     libsdlx:SDL_keyboard.obj
 0006:0000198c       ??_C@_04EEIGNHLG@menu?$AA@ 004ffa2c     libsdlx:SDL_keyboard.obj
 0006:00001994       ??_C@_05ELPHFHOI@break?$AA@ 004ffa34     libsdlx:SDL_keyboard.obj
 0006:0000199c       ??_C@_07DEILFKBN@sys?5req?$AA@ 004ffa3c     libsdlx:SDL_keyboard.obj
 0006:000019a4       ??_C@_0N@FLOIPKFN@print?5screen?$AA@ 004ffa44     libsdlx:SDL_keyboard.obj
 0006:000019b4       ??_C@_04PCJFHION@help?$AA@ 004ffa54     libsdlx:SDL_keyboard.obj
 0006:000019bc       ??_C@_07NJIHOJDH@compose?$AA@ 004ffa5c     libsdlx:SDL_keyboard.obj
 0006:000019c4       ??_C@_06MMJFIHBB@alt?5gr?$AA@ 004ffa64     libsdlx:SDL_keyboard.obj
 0006:000019cc       ??_C@_0M@NAELLGPG@right?5super?$AA@ 004ffa6c     libsdlx:SDL_keyboard.obj
 0006:000019d8       ??_C@_0L@LFAIHJPD@left?5super?$AA@ 004ffa78     libsdlx:SDL_keyboard.obj
 0006:000019e4       ??_C@_09IKBBMBAJ@left?5meta?$AA@ 004ffa84     libsdlx:SDL_keyboard.obj
 0006:000019f0       ??_C@_0L@HJAHACFB@right?5meta?$AA@ 004ffa90     libsdlx:SDL_keyboard.obj
 0006:000019fc       ??_C@_08LLKDAOC@left?5alt?$AA@ 004ffa9c     libsdlx:SDL_keyboard.obj
 0006:00001a08       ??_C@_09KEAICAPA@right?5alt?$AA@ 004ffaa8     libsdlx:SDL_keyboard.obj
 0006:00001a14       ??_C@_09GMKHENGN@left?5ctrl?$AA@ 004ffab4     libsdlx:SDL_keyboard.obj
 0006:00001a20       ??_C@_0L@JPLBIODF@right?5ctrl?$AA@ 004ffac0     libsdlx:SDL_keyboard.obj
 0006:00001a2c       ??_C@_0L@FEHFCLAK@left?5shift?$AA@ 004ffacc     libsdlx:SDL_keyboard.obj
 0006:00001a38       ??_C@_0M@DBDGOEAP@right?5shift?$AA@ 004ffad8     libsdlx:SDL_keyboard.obj
 0006:00001a44       ??_C@_0M@FAEPKNCC@scroll?5lock?$AA@ 004ffae4     libsdlx:SDL_keyboard.obj
 0006:00001a50       ??_C@_09OINOFJAB@caps?5lock?$AA@ 004ffaf0     libsdlx:SDL_keyboard.obj
 0006:00001a5c       ??_C@_07KGJJMLBL@numlock?$AA@ 004ffafc     libsdlx:SDL_keyboard.obj
 0006:00001a64       ??_C@_03EHGOMFCN@f15?$AA@  004ffb04     libsdlx:SDL_keyboard.obj
 0006:00001a68       ??_C@_03FOHFPEGM@f14?$AA@  004ffb08     libsdlx:SDL_keyboard.obj
 0006:00001a6c       ??_C@_03BBDEGCKL@f13?$AA@  004ffb0c     libsdlx:SDL_keyboard.obj
 0006:00001a70       ??_C@_03ICPFDOK@f12?$AA@   004ffb10     libsdlx:SDL_keyboard.obj
 0006:00001a74       ??_C@_03CDACAACJ@f11?$AA@  004ffb14     libsdlx:SDL_keyboard.obj
 0006:00001a78       ??_C@_03DKBJDBGI@f10?$AA@  004ffb18     libsdlx:SDL_keyboard.obj
 0006:00001a7c       ??_C@_02ECGABMMF@f9?$AA@   004ffb1c     libsdlx:SDL_keyboard.obj
 0006:00001a80       ??_C@_02FLHLCNIE@f8?$AA@   004ffb20     libsdlx:SDL_keyboard.obj
 0006:00001a84       ??_C@_02NMODDBEL@f7?$AA@   004ffb24     libsdlx:SDL_keyboard.obj
 0006:00001a88       ??_C@_02MFPIAAAK@f6?$AA@   004ffb28     libsdlx:SDL_keyboard.obj
 0006:00001a8c       ??_C@_02OONFFDMJ@f5?$AA@   004ffb2c     libsdlx:SDL_keyboard.obj
 0006:00001a90       ??_C@_02PHMOGCII@f4?$AA@   004ffb30     libsdlx:SDL_keyboard.obj
 0006:00001a94       ??_C@_02LIIPPEEP@f3?$AA@   004ffb34     libsdlx:SDL_keyboard.obj
 0006:00001a98       ??_C@_02KBJEMFAO@f2?$AA@   004ffb38     libsdlx:SDL_keyboard.obj
 0006:00001a9c       ??_C@_02IKLJJGMN@f1?$AA@   004ffb3c     libsdlx:SDL_keyboard.obj
 0006:00001aa0       ??_C@_09BPEGAE@page?5down?$AA@ 004ffb40     libsdlx:SDL_keyboard.obj
 0006:00001aac       ??_C@_07ICFIENPL@page?5up?$AA@ 004ffb4c     libsdlx:SDL_keyboard.obj
 0006:00001ab4       ??_C@_03JBJLGPFL@end?$AA@  004ffb54     libsdlx:SDL_keyboard.obj
 0006:00001ab8       ??_C@_04KLFPBEKK@home?$AA@ 004ffb58     libsdlx:SDL_keyboard.obj
 0006:00001ac0       ??_C@_06OAOPNKHP@insert?$AA@ 004ffb60     libsdlx:SDL_keyboard.obj
 0006:00001ac8       ??_C@_04JMOKAGMG@down?$AA@ 004ffb68     libsdlx:SDL_keyboard.obj
 0006:00001ad0       ??_C@_04GOOOJOPP@left?$AA@ 004ffb70     libsdlx:SDL_keyboard.obj
 0006:00001ad8       ??_C@_05DHJDAOHK@right?$AA@ 004ffb78     libsdlx:SDL_keyboard.obj
 0006:00001ae0       ??_C@_02HNLLPFKA@up?$AA@   004ffb80     libsdlx:SDL_keyboard.obj
 0006:00001ae4       ??_C@_06IMBEHKAP@equals?$AA@ 004ffb84     libsdlx:SDL_keyboard.obj
 0006:00001aec       ??_C@_05IHEOCMON@enter?$AA@ 004ffb8c     libsdlx:SDL_keyboard.obj
 0006:00001af4       ??_C@_03PJLKCCFI@?$FL?$CL?$FN?$AA@ 004ffb94     libsdlx:SDL_keyboard.obj
 0006:00001af8       ??_C@_03PNDHFOOK@?$FL?9?$FN?$AA@ 004ffb98     libsdlx:SDL_keyboard.obj
 0006:00001afc       ??_C@_03PIHIEIGP@?$FL?$CK?$FN?$AA@ 004ffb9c     libsdlx:SDL_keyboard.obj
 0006:00001b00       ??_C@_03POLDIKIE@?$FL?1?$FN?$AA@ 004ffba0     libsdlx:SDL_keyboard.obj
 0006:00001b04       ??_C@_03PPHBOALD@?$FL?4?$FN?$AA@ 004ffba4     libsdlx:SDL_keyboard.obj
 0006:00001b08       ??_C@_03OGBIFFEG@?$FL9?$FN?$AA@ 004ffba8     libsdlx:SDL_keyboard.obj
 0006:00001b0c       ??_C@_03OHNKDPHB@?$FL8?$FN?$AA@ 004ffbac     libsdlx:SDL_keyboard.obj
 0006:00001b10       ??_C@_03OMIGHIEM@?$FL7?$FN?$AA@ 004ffbb0     libsdlx:SDL_keyboard.obj
 0006:00001b14       ??_C@_03ONEEBCHL@?$FL6?$FN?$AA@ 004ffbb4     libsdlx:SDL_keyboard.obj
 0006:00001b18       ??_C@_03OPACKMCC@?$FL5?$FN?$AA@ 004ffbb8     libsdlx:SDL_keyboard.obj
 0006:00001b1c       ??_C@_03OOMAMGBF@?$FL4?$FN?$AA@ 004ffbbc     libsdlx:SDL_keyboard.obj
 0006:00001b20       ??_C@_03OLIPNAJA@?$FL3?$FN?$AA@ 004ffbc0     libsdlx:SDL_keyboard.obj
 0006:00001b24       ??_C@_03OKENLKKH@?$FL2?$FN?$AA@ 004ffbc4     libsdlx:SDL_keyboard.obj
 0006:00001b28       ??_C@_03OIALAEPO@?$FL1?$FN?$AA@ 004ffbc8     libsdlx:SDL_keyboard.obj
 0006:00001b2c       ??_C@_03OJMJGOMJ@?$FL0?$FN?$AA@ 004ffbcc     libsdlx:SDL_keyboard.obj
 0006:00001b30       ??_C@_08MFDFJLGD@world?595?$AA@ 004ffbd0     libsdlx:SDL_keyboard.obj
 0006:00001b3c       ??_C@_08NMCOKKCC@world?594?$AA@ 004ffbdc     libsdlx:SDL_keyboard.obj
 0006:00001b48       ??_C@_08JDGPDMOF@world?593?$AA@ 004ffbe8     libsdlx:SDL_keyboard.obj
 0006:00001b54       ??_C@_08IKHEANKE@world?592?$AA@ 004ffbf4     libsdlx:SDL_keyboard.obj
 0006:00001b60       ??_C@_08KBFJFOGH@world?591?$AA@ 004ffc00     libsdlx:SDL_keyboard.obj
 0006:00001b6c       ??_C@_08LIECGPCG@world?590?$AA@ 004ffc0c     libsdlx:SDL_keyboard.obj
 0006:00001b78       ??_C@_08GIECLOFI@world?589?$AA@ 004ffc18     libsdlx:SDL_keyboard.obj
 0006:00001b84       ??_C@_08HBFJIPBJ@world?588?$AA@ 004ffc24     libsdlx:SDL_keyboard.obj
 0006:00001b90       ??_C@_08PGMBJDNG@world?587?$AA@ 004ffc30     libsdlx:SDL_keyboard.obj
 0006:00001b9c       ??_C@_08OPNKKCJH@world?586?$AA@ 004ffc3c     libsdlx:SDL_keyboard.obj
 0006:00001ba8       ??_C@_08MEPHPBFE@world?585?$AA@ 004ffc48     libsdlx:SDL_keyboard.obj
 0006:00001bb4       ??_C@_08NNOMMABF@world?584?$AA@ 004ffc54     libsdlx:SDL_keyboard.obj
 0006:00001bc0       ??_C@_08JCKNFGNC@world?583?$AA@ 004ffc60     libsdlx:SDL_keyboard.obj
 0006:00001bcc       ??_C@_08ILLGGHJD@world?582?$AA@ 004ffc6c     libsdlx:SDL_keyboard.obj
 0006:00001bd8       ??_C@_08KAJLDEFA@world?581?$AA@ 004ffc78     libsdlx:SDL_keyboard.obj
 0006:00001be4       ??_C@_08LJIAAFBB@world?580?$AA@ 004ffc84     libsdlx:SDL_keyboard.obj
 0006:00001bf0       ??_C@_08GDBOPJGF@world?579?$AA@ 004ffc90     libsdlx:SDL_keyboard.obj
 0006:00001bfc       ??_C@_08HKAFMICE@world?578?$AA@ 004ffc9c     libsdlx:SDL_keyboard.obj
 0006:00001c08       ??_C@_08PNJNNEOL@world?577?$AA@ 004ffca8     libsdlx:SDL_keyboard.obj
 0006:00001c14       ??_C@_08OEIGOFKK@world?576?$AA@ 004ffcb4     libsdlx:SDL_keyboard.obj
 0006:00001c20       ??_C@_08MPKLLGGJ@world?575?$AA@ 004ffcc0     libsdlx:SDL_keyboard.obj
 0006:00001c2c       ??_C@_08NGLAIHCI@world?574?$AA@ 004ffccc     libsdlx:SDL_keyboard.obj
 0006:00001c38       ??_C@_08JJPBBBOP@world?573?$AA@ 004ffcd8     libsdlx:SDL_keyboard.obj
 0006:00001c44       ??_C@_08IAOKCAKO@world?572?$AA@ 004ffce4     libsdlx:SDL_keyboard.obj
 0006:00001c50       ??_C@_08KLMHHDGN@world?571?$AA@ 004ffcf0     libsdlx:SDL_keyboard.obj
 0006:00001c5c       ??_C@_08LCNMECCM@world?570?$AA@ 004ffcfc     libsdlx:SDL_keyboard.obj
 0006:00001c68       ??_C@_08GCNMJDFC@world?569?$AA@ 004ffd08     libsdlx:SDL_keyboard.obj
 0006:00001c74       ??_C@_08HLMHKCBD@world?568?$AA@ 004ffd14     libsdlx:SDL_keyboard.obj
 0006:00001c80       ??_C@_08PMFPLONM@world?567?$AA@ 004ffd20     libsdlx:SDL_keyboard.obj
 0006:00001c8c       ??_C@_08OFEEIPJN@world?566?$AA@ 004ffd2c     libsdlx:SDL_keyboard.obj
 0006:00001c98       ??_C@_08MOGJNMFO@world?565?$AA@ 004ffd38     libsdlx:SDL_keyboard.obj
 0006:00001ca4       ??_C@_08NHHCONBP@world?564?$AA@ 004ffd44     libsdlx:SDL_keyboard.obj
 0006:00001cb0       ??_C@_08JIDDHLNI@world?563?$AA@ 004ffd50     libsdlx:SDL_keyboard.obj
 0006:00001cbc       ??_C@_08IBCIEKJJ@world?562?$AA@ 004ffd5c     libsdlx:SDL_keyboard.obj
 0006:00001cc8       ??_C@_08KKAFBJFK@world?561?$AA@ 004ffd68     libsdlx:SDL_keyboard.obj
 0006:00001cd4       ??_C@_08LDBOCIBL@world?560?$AA@ 004ffd74     libsdlx:SDL_keyboard.obj
 0006:00001ce0       ??_C@_08GAJKCNAL@world?559?$AA@ 004ffd80     libsdlx:SDL_keyboard.obj
 0006:00001cec       ??_C@_08HJIBBMEK@world?558?$AA@ 004ffd8c     libsdlx:SDL_keyboard.obj
 0006:00001cf8       ??_C@_08POBJAAIF@world?557?$AA@ 004ffd98     libsdlx:SDL_keyboard.obj
 0006:00001d04       ??_C@_08OHACDBME@world?556?$AA@ 004ffda4     libsdlx:SDL_keyboard.obj
 0006:00001d10       ??_C@_08MMCPGCAH@world?555?$AA@ 004ffdb0     libsdlx:SDL_keyboard.obj
 0006:00001d1c       ??_C@_08NFDEFDEG@world?554?$AA@ 004ffdbc     libsdlx:SDL_keyboard.obj
 0006:00001d28       ??_C@_08JKHFMFIB@world?553?$AA@ 004ffdc8     libsdlx:SDL_keyboard.obj
 0006:00001d34       ??_C@_08IDGOPEMA@world?552?$AA@ 004ffdd4     libsdlx:SDL_keyboard.obj
 0006:00001d40       ??_C@_08KIEDKHAD@world?551?$AA@ 004ffde0     libsdlx:SDL_keyboard.obj
 0006:00001d4c       ??_C@_08LBFIJGEC@world?550?$AA@ 004ffdec     libsdlx:SDL_keyboard.obj
 0006:00001d58       ??_C@_08GBFIEHDM@world?549?$AA@ 004ffdf8     libsdlx:SDL_keyboard.obj
 0006:00001d64       ??_C@_08HIEDHGHN@world?548?$AA@ 004ffe04     libsdlx:SDL_keyboard.obj
 0006:00001d70       ??_C@_08PPNLGKLC@world?547?$AA@ 004ffe10     libsdlx:SDL_keyboard.obj
 0006:00001d7c       ??_C@_08OGMAFLPD@world?546?$AA@ 004ffe1c     libsdlx:SDL_keyboard.obj
 0006:00001d88       ??_C@_08MNONAIDA@world?545?$AA@ 004ffe28     libsdlx:SDL_keyboard.obj
 0006:00001d94       ??_C@_08NEPGDJHB@world?544?$AA@ 004ffe34     libsdlx:SDL_keyboard.obj
 0006:00001da0       ??_C@_08JLLHKPLG@world?543?$AA@ 004ffe40     libsdlx:SDL_keyboard.obj
 0006:00001dac       ??_C@_08ICKMJOPH@world?542?$AA@ 004ffe4c     libsdlx:SDL_keyboard.obj
 0006:00001db8       ??_C@_08KJIBMNDE@world?541?$AA@ 004ffe58     libsdlx:SDL_keyboard.obj
 0006:00001dc4       ??_C@_08LAJKPMHF@world?540?$AA@ 004ffe64     libsdlx:SDL_keyboard.obj
 0006:00001dd0       ??_C@_08GEBHFBLJ@world?539?$AA@ 004ffe70     libsdlx:SDL_keyboard.obj
 0006:00001ddc       ??_C@_08HNAMGAPI@world?538?$AA@ 004ffe7c     libsdlx:SDL_keyboard.obj
 0006:00001de8       ??_C@_08PKJEHMDH@world?537?$AA@ 004ffe88     libsdlx:SDL_keyboard.obj
 0006:00001df4       ??_C@_08ODIPENHG@world?536?$AA@ 004ffe94     libsdlx:SDL_keyboard.obj
 0006:00001e00       ??_C@_08MIKCBOLF@world?535?$AA@ 004ffea0     libsdlx:SDL_keyboard.obj
 0006:00001e0c       ??_C@_08NBLJCPPE@world?534?$AA@ 004ffeac     libsdlx:SDL_keyboard.obj
 0006:00001e18       ??_C@_08JOPILJDD@world?533?$AA@ 004ffeb8     libsdlx:SDL_keyboard.obj
 0006:00001e24       ??_C@_08IHODIIHC@world?532?$AA@ 004ffec4     libsdlx:SDL_keyboard.obj
 0006:00001e30       ??_C@_08KMMONLLB@world?531?$AA@ 004ffed0     libsdlx:SDL_keyboard.obj
 0006:00001e3c       ??_C@_08LFNFOKPA@world?530?$AA@ 004ffedc     libsdlx:SDL_keyboard.obj
 0006:00001e48       ??_C@_08GFNFDLIO@world?529?$AA@ 004ffee8     libsdlx:SDL_keyboard.obj
 0006:00001e54       ??_C@_08HMMOAKMP@world?528?$AA@ 004ffef4     libsdlx:SDL_keyboard.obj
 0006:00001e60       ??_C@_08PLFGBGAA@world?527?$AA@ 004fff00     libsdlx:SDL_keyboard.obj
 0006:00001e6c       ??_C@_08OCENCHEB@world?526?$AA@ 004fff0c     libsdlx:SDL_keyboard.obj
 0006:00001e78       ??_C@_08MJGAHEIC@world?525?$AA@ 004fff18     libsdlx:SDL_keyboard.obj
 0006:00001e84       ??_C@_08NAHLEFMD@world?524?$AA@ 004fff24     libsdlx:SDL_keyboard.obj
 0006:00001e90       ??_C@_08JPDKNDAE@world?523?$AA@ 004fff30     libsdlx:SDL_keyboard.obj
 0006:00001e9c       ??_C@_08IGCBOCEF@world?522?$AA@ 004fff3c     libsdlx:SDL_keyboard.obj
 0006:00001ea8       ??_C@_08KNAMLBIG@world?521?$AA@ 004fff48     libsdlx:SDL_keyboard.obj
 0006:00001eb4       ??_C@_08LEBHIAMH@world?520?$AA@ 004fff54     libsdlx:SDL_keyboard.obj
 0006:00001ec0       ??_C@_08GHJDIFNH@world?519?$AA@ 004fff60     libsdlx:SDL_keyboard.obj
 0006:00001ecc       ??_C@_08HOIILEJG@world?518?$AA@ 004fff6c     libsdlx:SDL_keyboard.obj
 0006:00001ed8       ??_C@_08PJBAKIFJ@world?517?$AA@ 004fff78     libsdlx:SDL_keyboard.obj
 0006:00001ee4       ??_C@_08OAALJJBI@world?516?$AA@ 004fff84     libsdlx:SDL_keyboard.obj
 0006:00001ef0       ??_C@_08MLCGMKNL@world?515?$AA@ 004fff90     libsdlx:SDL_keyboard.obj
 0006:00001efc       ??_C@_08NCDNPLJK@world?514?$AA@ 004fff9c     libsdlx:SDL_keyboard.obj
 0006:00001f08       ??_C@_08JNHMGNFN@world?513?$AA@ 004fffa8     libsdlx:SDL_keyboard.obj
 0006:00001f14       ??_C@_08IEGHFMBM@world?512?$AA@ 004fffb4     libsdlx:SDL_keyboard.obj
 0006:00001f20       ??_C@_08KPEKAPNP@world?511?$AA@ 004fffc0     libsdlx:SDL_keyboard.obj
 0006:00001f2c       ??_C@_08LGFBDOJO@world?510?$AA@ 004fffcc     libsdlx:SDL_keyboard.obj
 0006:00001f38       ??_C@_07NJBDBJJL@world?59?$AA@ 004fffd8     libsdlx:SDL_keyboard.obj
 0006:00001f40       ??_C@_07MAAICINK@world?58?$AA@ 004fffe0     libsdlx:SDL_keyboard.obj
 0006:00001f48       ??_C@_07EHJADEBF@world?57?$AA@ 004fffe8     libsdlx:SDL_keyboard.obj
 0006:00001f50       ??_C@_07FOILAFFE@world?56?$AA@ 004ffff0     libsdlx:SDL_keyboard.obj
 0006:00001f58       ??_C@_07HFKGFGJH@world?55?$AA@ 004ffff8     libsdlx:SDL_keyboard.obj
 0006:00001f60       ??_C@_07GMLNGHNG@world?54?$AA@ 00500000     libsdlx:SDL_keyboard.obj
 0006:00001f68       ??_C@_07CDPMPBBB@world?53?$AA@ 00500008     libsdlx:SDL_keyboard.obj
 0006:00001f70       ??_C@_07DKOHMAFA@world?52?$AA@ 00500010     libsdlx:SDL_keyboard.obj
 0006:00001f78       ??_C@_07BBMKJDJD@world?51?$AA@ 00500018     libsdlx:SDL_keyboard.obj
 0006:00001f80       ??_C@_07INBKCNC@world?50?$AA@ 00500020     libsdlx:SDL_keyboard.obj
 0006:00001f88       ??_C@_06FOBLBEIN@delete?$AA@ 00500028     libsdlx:SDL_keyboard.obj
 0006:00001f90       ??_C@_01GLPGHMHM@z?$AA@    00500030     libsdlx:SDL_keyboard.obj
 0006:00001f94       ??_C@_01EANLCPLP@y?$AA@    00500034     libsdlx:SDL_keyboard.obj
 0006:00001f98       ??_C@_01FJMABOPO@x?$AA@    00500038     libsdlx:SDL_keyboard.obj
 0006:00001f9c       ??_C@_01NOFIACDB@w?$AA@    0050003c     libsdlx:SDL_keyboard.obj
 0006:00001fa0       ??_C@_01MHEDDDHA@v?$AA@    00500040     libsdlx:SDL_keyboard.obj
 0006:00001fa4       ??_C@_01OMGOGALD@u?$AA@    00500044     libsdlx:SDL_keyboard.obj
 0006:00001fa8       ??_C@_01PFHFFBPC@t?$AA@    00500048     libsdlx:SDL_keyboard.obj
 0006:00001fac       ??_C@_01LKDEMHDF@s?$AA@    0050004c     libsdlx:SDL_keyboard.obj
 0006:00001fb0       ??_C@_01IIACKFLH@q?$AA@    00500050     libsdlx:SDL_keyboard.obj
 0006:00001fb4       ??_C@_01JBBJJEPG@p?$AA@    00500054     libsdlx:SDL_keyboard.obj
 0006:00001fb8       ??_C@_01FMEDJKGI@o?$AA@    00500058     libsdlx:SDL_keyboard.obj
 0006:00001fbc       ??_C@_01EFFIKLCJ@n?$AA@    0050005c     libsdlx:SDL_keyboard.obj
 0006:00001fc0       ??_C@_01GOHFPIOK@m?$AA@    00500060     libsdlx:SDL_keyboard.obj
 0006:00001fc4       ??_C@_01HHGOMJKL@l?$AA@    00500064     libsdlx:SDL_keyboard.obj
 0006:00001fc8       ??_C@_01DICPFPGM@k?$AA@    00500068     libsdlx:SDL_keyboard.obj
 0006:00001fcc       ??_C@_01CBDEGOCN@j?$AA@    0050006c     libsdlx:SDL_keyboard.obj
 0006:00001fd0       ??_C@_01KBJDNOO@i?$AA@     00500070     libsdlx:SDL_keyboard.obj
 0006:00001fd4       ??_C@_01BDACAMKP@h?$AA@    00500074     libsdlx:SDL_keyboard.obj
 0006:00001fd8       ??_C@_01JEJKBAGA@g?$AA@    00500078     libsdlx:SDL_keyboard.obj
 0006:00001fdc       ??_C@_01INIBCBCB@f?$AA@    0050007c     libsdlx:SDL_keyboard.obj
 0006:00001fe0       ??_C@_01KGKMHCOC@e?$AA@    00500080     libsdlx:SDL_keyboard.obj
 0006:00001fe4       ??_C@_01LPLHEDKD@d?$AA@    00500084     libsdlx:SDL_keyboard.obj
 0006:00001fe8       ??_C@_01PAPGNFGE@c?$AA@    00500088     libsdlx:SDL_keyboard.obj
 0006:00001fec       ??_C@_01OJONOECF@b?$AA@    0050008c     libsdlx:SDL_keyboard.obj
 0006:00001ff0       ??_C@_01MCMALHOG@a?$AA@    00500090     libsdlx:SDL_keyboard.obj
 0006:00001ff4       ??_C@_01NLNLIGKH@?$GA?$AA@ 00500094     libsdlx:SDL_keyboard.obj
 0006:00001ff8       ??_C@_01IDAFKMJL@_?$AA@    00500098     libsdlx:SDL_keyboard.obj
 0006:00001ffc       ??_C@_01JKBOJNNK@?$FO?$AA@ 0050009c     libsdlx:SDL_keyboard.obj
 0006:00002000       ??_C@_01LBDDMOBJ@?$FN?$AA@ 005000a0     libsdlx:SDL_keyboard.obj
 0006:00002004       ??_C@_01KICIPPFI@?2?$AA@   005000a4     libsdlx:SDL_keyboard.obj
 0006:00002008       ??_C@_01OHGJGJJP@?$FL?$AA@ 005000a8     libsdlx:SDL_keyboard.obj
 0006:0000200c       ??_C@_01EOFPKCAF@?$EA?$AA@ 005000ac     libsdlx:SDL_keyboard.obj
 0006:00002010       ??_C@_01OGPIMHDM@?$DP?$AA@ 005000b0     libsdlx:SDL_keyboard.obj
 0006:00002014       ??_C@_01PPODPGHN@?$DO?$AA@ 005000b4     libsdlx:SDL_keyboard.obj
 0006:00002018       ??_C@_01NEMOKFLO@?$DN?$AA@ 005000b8     libsdlx:SDL_keyboard.obj
 0006:0000201c       ??_C@_01MNNFJEPP@?$DM?$AA@ 005000bc     libsdlx:SDL_keyboard.obj
 0006:00002020       ??_C@_01ICJEACDI@?$DL?$AA@ 005000c0     libsdlx:SDL_keyboard.obj
 0006:00002024       ??_C@_01JLIPDDHJ@?3?$AA@   005000c4     libsdlx:SDL_keyboard.obj
 0006:00002028       ??_C@_01LAKCGALK@9?$AA@    005000c8     libsdlx:SDL_keyboard.obj
 0006:0000202c       ??_C@_01KJLJFBPL@8?$AA@    005000cc     libsdlx:SDL_keyboard.obj
 0006:00002030       ??_C@_01COCBENDE@7?$AA@    005000d0     libsdlx:SDL_keyboard.obj
 0006:00002034       ??_C@_01DHDKHMHF@6?$AA@    005000d4     libsdlx:SDL_keyboard.obj
 0006:00002038       ??_C@_01BMBHCPLG@5?$AA@    005000d8     libsdlx:SDL_keyboard.obj
 0006:0000203c       ??_C@_01FAMBOPH@4?$AA@     005000dc     libsdlx:SDL_keyboard.obj
 0006:00002040       ??_C@_01EKENIIDA@3?$AA@    005000e0     libsdlx:SDL_keyboard.obj
 0006:00002044       ??_C@_01FDFGLJHB@2?$AA@    005000e4     libsdlx:SDL_keyboard.obj
 0006:00002048       ??_C@_01HIHLOKLC@1?$AA@    005000e8     libsdlx:SDL_keyboard.obj
 0006:0000204c       ??_C@_01GBGANLPD@0?$AA@    005000ec     libsdlx:SDL_keyboard.obj
 0006:00002050       ??_C@_01KMDKNFGN@?1?$AA@   005000f0     libsdlx:SDL_keyboard.obj
 0006:00002054       ??_C@_01LFCBOECM@?4?$AA@   005000f4     libsdlx:SDL_keyboard.obj
 0006:00002058       ??_C@_01JOAMLHOP@?9?$AA@   005000f8     libsdlx:SDL_keyboard.obj
 0006:0000205c       ??_C@_01IHBHIGKO@?0?$AA@   005000fc     libsdlx:SDL_keyboard.obj
 0006:00002060       ??_C@_01MIFGBAGJ@?$CL?$AA@ 00500100     libsdlx:SDL_keyboard.obj
 0006:00002064       ??_C@_01NBENCBCI@?$CK?$AA@ 00500104     libsdlx:SDL_keyboard.obj
 0006:00002068       ??_C@_01PKGAHCOL@?$CJ?$AA@ 00500108     libsdlx:SDL_keyboard.obj
 0006:0000206c       ??_C@_01ODHLEDKK@?$CI?$AA@ 0050010c     libsdlx:SDL_keyboard.obj
 0006:00002070       ??_C@_01GEODFPGF@?8?$AA@   00500110     libsdlx:SDL_keyboard.obj
 0006:00002074       ??_C@_01HNPIGOCE@?$CG?$AA@ 00500114     libsdlx:SDL_keyboard.obj
 0006:00002078       ??_C@_01EPMOAMKG@$?$AA@    00500118     libsdlx:SDL_keyboard.obj
 0006:0000207c       ??_C@_01IPJKGB@?$CD?$AA@   0050011c     libsdlx:SDL_keyboard.obj
 0006:00002080       ??_C@_01BJJEKLCA@?$CC?$AA@ 00500120     libsdlx:SDL_keyboard.obj
 0006:00002084       ??_C@_01DCLJPIOD@?$CB?$AA@ 00500124     libsdlx:SDL_keyboard.obj
 0006:00002088       ??_C@_05OLNILLAB@space?$AA@ 00500128     libsdlx:SDL_keyboard.obj
 0006:00002090       ??_C@_06CHNIFGOF@escape?$AA@ 00500130     libsdlx:SDL_keyboard.obj
 0006:00002098       ??_C@_05PDJBBECF@pause?$AA@ 00500138     libsdlx:SDL_keyboard.obj
 0006:000020a0       ??_C@_06LNOFJDNM@return?$AA@ 00500140     libsdlx:SDL_keyboard.obj
 0006:000020a8       ??_C@_05MEHLAELG@clear?$AA@ 00500148     libsdlx:SDL_keyboard.obj
 0006:000020b0       ??_C@_03CEDILPBK@tab?$AA@  00500150     libsdlx:SDL_keyboard.obj
 0006:000020b4       ??_C@_09PAEPIMDJ@backspace?$AA@ 00500154     libsdlx:SDL_keyboard.obj
 0006:000020c0       ??_C@_0CK@FOGGMOIE@Cursor?5hot?5spot?5doesn?8t?5lie?5with@ 00500160     libsdlx:SDL_cursor.obj
 0006:000020ec       ??_C@_06JEIHMPKD@dsound?$AA@ 0050018c     libsdlx:SDL.obj
 0006:000020f4       ??_C@_0BH@MBEMJCJD@Error?5reading?5from?5BMP?$AA@ 00500194     libsdlx:SDL_bmp.obj
 0006:0000210c       ??_C@_0CD@JAGEONDI@Compressed?5BMP?5files?5not?5support@ 005001ac     libsdlx:SDL_bmp.obj
 0006:0000212f       ??_C@_00CNPNBAHC@?$AA@     005001cf     libsdlx:SDL_bmp.obj
 0006:00002130       ??_C@_0BP@KFCLDKFK@File?5is?5not?5a?5Windows?5BMP?5file?$AA@ 005001d0     libsdlx:SDL_bmp.obj
 0006:00002150       ??_C@_02DGHHEOAL@BM?$AA@   005001f0     libsdlx:SDL_bmp.obj
 0006:00002154       ??_C@_0CB@LHGICCF@Couldn?8t?5convert?5image?5to?524?5bpp@ 005001f4     libsdlx:SDL_bmp.obj
 0006:00002178       ??_C@_0BP@EDKJCFAN@?$CFd?5bpp?5BMP?5files?5not?5supported?$AA@ 00500218     libsdlx:SDL_bmp.obj
 0006:00002198       ??_C@_0BK@ONHBBOII@Timer?5already?5initialized?$AA@ 00500238     libsdlx:SDL_timer.obj
 0006:000021b4       ??_C@_0CJ@GAAINEFF@Multiple?5timers?5require?5threaded@ 00500254     libsdlx:SDL_timer.obj
 0006:000021e0       ??_C@_0CN@GGFNPEOM@You?5must?5call?5SDL_Init?$CISDL_INIT_@ 00500280     libsdlx:SDL_timer.obj
 0006:00002210       ??_C@_0CO@LFBHPCDD@This?5platform?5doesn?8t?5support?5mu@ 005002b0     libsdlx:SDL_timer.obj
 0006:00002240       ??_C@_02NJPGOMH@?$CFf?$AA@ 005002e0     libsdlx:SDL_error.obj
 0006:00002244       ??_C@_02BBAHNLBA@?$CFp?$AA@ 005002e4     libsdlx:SDL_error.obj
 0006:00002248       ??_C@_0BC@FCOLKOIA@SDL_SetError?3?5?$CFs?6?$AA@ 005002e8     libsdlx:SDL_error.obj
 0006:0000225c       ??_C@_0BC@GIFKALJN@Unknown?5SDL?5error?$AA@ 005002fc     libsdlx:SDL_error.obj
 0006:00002270       ??_C@_0BM@ILIHIMKK@Error?5seeking?5in?5datastream?$AA@ 00500310     libsdlx:SDL_error.obj
 0006:0000228c       ??_C@_0BM@HKBAIOID@Error?5writing?5to?5datastream?$AA@ 0050032c     libsdlx:SDL_error.obj
 0006:000022a8       ??_C@_0BO@HOPHLHIA@Error?5reading?5from?5datastream?$AA@ 00500348     libsdlx:SDL_error.obj
 0006:000022c8       __real@3ff0000000000000    00500368     libsdlx:SDL_audiocvt.obj
 0006:000022d0       ??_C@_0CD@DJIMOKAG@No?5buffer?5allocated?5for?5conversi@ 00500370     libsdlx:SDL_audiocvt.obj
 0006:000022f8       __real@4000000000000000    00500398     libsdlx:SDL_audiocvt.obj
 0006:00002300       ??_C@_0CF@NFKCBAOA@Unknown?5set?5of?5MS_ADPCM?5coeffici@ 005003a0     libsdlx:SDL_wave.obj
 0006:00002328       ??_C@_0CO@DHPDNJHB@IMA?5ADPCM?5decoder?5can?5only?5handl@ 005003c8     libsdlx:SDL_wave.obj
 0006:00002358       ??_C@_0CC@BJEGLMJD@Unrecognized?5file?5type?5?$CInot?5WAVE@ 005003f8     libsdlx:SDL_wave.obj
 0006:0000237c       ??_C@_0BP@ILCMBFOC@Unknown?5?$CFd?9bit?5PCM?5data?5format?$AA@ 0050041c     libsdlx:SDL_wave.obj
 0006:0000239c       ??_C@_0CB@EHGDPNNH@Unknown?5WAVE?5data?5format?3?50x?$CF?44x@ 0050043c     libsdlx:SDL_wave.obj
 0006:000023c0       ??_C@_0CB@EABBOIIL@Complex?5WAVE?5files?5not?5supported@ 00500460     libsdlx:SDL_wave.obj
 0006:000023e4       ??_C@_0CK@HBKILKIJ@OGG?5bitstream?5is?5not?5valid?5Vorbi@ 00500484     libsdlx:load_ogg.obj
 0006:00002410       ??_C@_0CB@GGCCGBEJ@Unrecognized?5file?5type?5?$CInot?5VOC?$CJ@ 005004b0     libsdlx:load_voc.obj
 0006:00002434       ??_C@_0BF@MIJFKAID@Creative?5Voice?5File?$BK?$AA@ 005004d4     libsdlx:load_voc.obj
 0006:0000244c       ??_C@_0CH@OBJICBMK@VOC?5decoder?5only?5interprets?58?9bi@ 005004ec     libsdlx:load_voc.obj
 0006:00002474       ??_C@_0BN@NLNACAOA@VOC?5sample?5rate?5codes?5differ?$AA@ 00500514     libsdlx:load_voc.obj
 0006:00002494       ??_C@_0BI@KBHGFGBG@VOC?5sample?5rate?5is?5zero?$AA@ 00500534     libsdlx:load_voc.obj
 0006:000024ac       ??_C@_0CA@NKICNKFK@VOC?5silence?5sample?5rate?5is?5zero?$AA@ 0050054c     libsdlx:load_voc.obj
 0006:000024cc       ??_C@_0BL@PHKKIKC@VOC?5with?5unknown?5data?5size?$AA@ 0050056c     libsdlx:load_voc.obj
 0006:000024e8       ??_C@_0BJ@DLGDMMOD@VOC?5Sample?5rate?5is?5zero?$DP?$AA@ 00500588     libsdlx:load_voc.obj
 0006:00002508       __real@412e848000000000    005005a8     libsdlx:load_voc.obj
 0006:00002510       __real@41f0000000000000    005005b0     libsdlx:load_voc.obj
 0006:00002518       ??_C@_0BH@BMNEAMFF@VOC?5data?5had?5no?5sound?$CB?$AA@ 005005b8     libsdlx:load_voc.obj
 0006:00002530       ??_C@_0CL@KOHPOEKG@Unrecognized?5file?5type?5?$CInot?5AIFF@ 005005d0     libsdlx:load_aiff.obj
 0006:0000255c       ??_C@_0BK@OKIAGPIN@Unable?5to?5read?5audio?5data?$AA@ 005005fc     libsdlx:load_aiff.obj
 0006:00002578       ??_C@_0BM@OAFIPOPF@Unsupported?5AIFF?5samplesize?$AA@ 00500618     libsdlx:load_aiff.obj
 0006:00002594       ??_C@_0BJ@DJCFKPED@Bad?58SVX?5?$CIno?5BODY?5chunk?$CJ?$AA@ 00500634     libsdlx:load_aiff.obj
 0006:000025b0       ??_C@_0BJ@JNFFPCJO@Bad?58SVX?5?$CIno?5VHDR?5chunk?$CJ?$AA@ 00500650     libsdlx:load_aiff.obj
 0006:000025cc       ??_C@_0BJ@KOEDFFDG@Bad?5AIFF?5?$CIno?5COMM?5chunk?$CJ?$AA@ 0050066c     libsdlx:load_aiff.obj
 0006:000025e8       ??_C@_0BJ@EBCDODJO@Bad?5AIFF?5?$CIno?5SSND?5chunk?$CJ?$AA@ 00500688     libsdlx:load_aiff.obj
 0006:00002604       ??_C@_0BK@NAGIBPMI@Bad?5AIFF?5sample?5frequency?$AA@ 005006a4     libsdlx:load_aiff.obj
 0006:00002620       ??_C@_0BK@FMHDHGOG@No?5available?5audio?5device?$AA@ 005006c0     libsdlx:SDL_audio.obj
 0006:0000263c       ??_C@_0CL@LEOAEFFM@1?5?$CImono?$CJ?5and?52?5?$CIstereo?$CJ?5channels@ 005006dc     libsdlx:SDL_audio.obj
 0006:00002668       ??_C@_0BN@DPLMHEIO@Couldn?8t?5create?5audio?5thread?$AA@ 00500708     libsdlx:SDL_audio.obj
 0006:00002688       ??_C@_0BL@JMFAHGBA@Couldn?8t?5create?5mixer?5lock?$AA@ 00500728     libsdlx:SDL_audio.obj
 0006:000026a4       ??_C@_0CH@KOHFKNH@SDL_OpenAudio?$CI?$CJ?5passed?5a?5NULL?5ca@ 00500744     libsdlx:SDL_audio.obj
 0006:000026cc       ??_C@_0BP@FIICIEOD@Audio?5device?5is?5already?5opened?$AA@ 0050076c     libsdlx:SDL_audio.obj
 0006:000028f0       ??_C@_0CF@KCBIJDPI@SDL_MixAudio?$CI?$CJ?3?5unknown?5audio?5fo@ 00500990     libsdlx:SDL_mixer.obj
 0006:00002918       __real@3f70101010101010    005009b8     libsdlx:effects_internal.obj
 0006:00002920       ??_C@_0BG@MHBJJFKC@Couldn?8t?5create?5mutex?$AA@ 005009c0     libsdlx:SDL_sysmutex.obj
 0006:00002938       ??_C@_0BH@GBCFLFJB@Couldn?8t?5wait?5on?5mutex?$AA@ 005009d8     libsdlx:SDL_sysmutex.obj
 0006:00002950       ??_C@_0BE@JKAFKGBP@Passed?5a?5NULL?5mutex?$AA@ 005009f0     libsdlx:SDL_sysmutex.obj
 0006:00002964       ??_C@_0BH@LEACBMNM@Couldn?8t?5release?5mutex?$AA@ 00500a04     libsdlx:SDL_sysmutex.obj
 0006:0000297c       ??_C@_0BK@OHGGAKDK@XBOX?5Gamepad?5Plugin?5V0?402?$AA@ 00500a1c     libsdlx:SDL_sysjoystick.obj
 0006:00002998       ??_C@_0BH@FLCDHPCF@Xbox?5SDL?5Gamepad?5V0?402?$AA@ 00500a38     libsdlx:SDL_sysjoystick.obj
 0006:000029b0       __real@3fa86bca            00500a50     libsdlx:SDL_sysjoystick.obj
 0006:000029b4       __real@3e75c28f            00500a54     libsdlx:SDL_sysjoystick.obj
 0006:000029b8       __real@38000080            00500a58     libsdlx:SDL_sysjoystick.obj
 0006:000029bc       ??_C@_0CG@NEOFPKAN@Not?5enough?5resources?5to?5create?5t@ 00500a5c     libsdlx:SDL_systhread.obj
 0006:000029e4       ??_C@_0BP@DOEMAMAO@Blit?5combination?5not?5supported?$AA@ 00500a84     libsdlx:SDL_blit.obj
 0006:00002a04       ??_C@_0BE@PPOIKPGE@Couldn?8t?5read?5chunk?$AA@ 00500aa4     libsdlx:wavestream.obj
 0006:00002a18       ??_C@_0BI@DMCIOPED@Unknown?5PCM?5data?5format?$AA@ 00500ab8     libsdlx:wavestream.obj
 0006:00002a30       ??_C@_0BJ@NEJBPNCK@Unknown?5WAVE?5data?5format?$AA@ 00500ad0     libsdlx:wavestream.obj
 0006:00002a4c       ??_C@_0CC@KOOGPPBC@Unrecognized?5file?5type?5?$CInot?5AIFF@ 00500aec     libsdlx:wavestream.obj
 0006:00002a70       ??_C@_0CC@ELLCMNFL@Unknown?5samplesize?5in?5data?5forma@ 00500b10     libsdlx:wavestream.obj
 0006:00002a94       ??_C@_0BO@BHDOOBEG@Bad?5AIFF?5file?5?$CIno?5COMM?5chunk?$CJ?$AA@ 00500b34     libsdlx:wavestream.obj
 0006:00002ab4       ??_C@_0BO@PIFOFHOO@Bad?5AIFF?5file?5?$CIno?5SSND?5chunk?$CJ?$AA@ 00500b54     libsdlx:wavestream.obj
 0006:00002ad4       ??_C@_0BE@NIPMGLHM@Unknown?5WAVE?5format?$AA@ 00500b74     libsdlx:wavestream.obj
 0006:00002ae8       ??_C@_0BN@OLCDHPIJ@WAV?5music?5output?5not?5started?$AA@ 00500b88     libsdlx:wavestream.obj
 0006:00002b08       ??_C@_0BD@HNLBOLPG@Invalid?5error?5code?$AA@ 00500ba8     libsdlx:mmerror.obj
 0006:00002b1c       ??_C@_0BJ@DIOPONAM@Could?5not?5start?5playback?$AA@ 00500bbc     libsdlx:mmerror.obj
 0006:00002b38       ??_C@_0O@NIPGCINC@Unknown?5error?$AA@ 00500bd8     libsdlx:mmerror.obj
 0006:00002b48       ??_C@_0BK@NIIBCLBM@Unsupported?5output?5format?$AA@ 00500be8     libsdlx:mmerror.obj
 0006:00002b64       ??_C@_0BK@OECGBGPM@Invalid?5device?5identifier?$AA@ 00500c04     libsdlx:mmerror.obj
 0006:00002b80       ??_C@_0CC@JHGLJHLN@The?5resource?5is?5already?5allocate@ 00500c20     libsdlx:mmerror.obj
 0006:00002ba4       ??_C@_0BG@PLKPCMKE@Invalid?5device?5handle?$AA@ 00500c44     libsdlx:mmerror.obj
 0006:00002bbc       ??_C@_0CF@BPOMCNGG@Could?5not?5initialize?5playback?5th@ 00500c5c     libsdlx:mmerror.obj
 0006:00002be4       ??_C@_0BJ@PIIMONLC@Could?5not?5register?5event?$AA@ 00500c84     libsdlx:mmerror.obj
 0006:00002c00       ??_C@_0BM@LEJCPIBN@Could?5not?5register?5callback?$AA@ 00500ca0     libsdlx:mmerror.obj
 0006:00002c1c       ??_C@_0BO@KDIEGNKH@Could?5not?5set?5playback?5format?$AA@ 00500cbc     libsdlx:mmerror.obj
 0006:00002c3c       ??_C@_0CC@CIAOPNOO@Could?5not?5create?5playback?5buffer@ 00500cdc     libsdlx:mmerror.obj
 0006:00002c60       ??_C@_0CA@OKAGICFC@Could?5not?5set?5playback?5priority?$AA@ 00500d00     libsdlx:mmerror.obj
 0006:00002c80       ??_C@_0CB@OCELGLKI@Could?5not?5create?5playback?5thread@ 00500d20     libsdlx:mmerror.obj
 0006:00002ca4       ??_C@_0CA@ONDLDGGD@Could?5not?5create?5playback?5timer?$AA@ 00500d44     libsdlx:mmerror.obj
 0006:00002cc4       ??_C@_0CF@JMBDOBKM@Could?5not?5create?5playback?5semaph@ 00500d64     libsdlx:mmerror.obj
 0006:00002cec       ??_C@_0CA@DPDOJBNI@Could?5not?5set?5mixing?5parameters?$AA@ 00500d8c     libsdlx:mmerror.obj
 0006:00002d0c       ??_C@_0CD@GDCMINGJ@Sound?5device?5initialization?5fail@ 00500dac     libsdlx:mmerror.obj
 0006:00002d30       ??_C@_0CF@NIPOPPIM@Hardware?5does?5not?5support?5mono?5s@ 00500dd0     libsdlx:mmerror.obj
 0006:00002d58       ??_C@_0CH@DFDIFLNC@Hardware?5does?5not?5support?5stereo@ 00500df8     libsdlx:mmerror.obj
 0006:00002d80       ??_C@_0CG@HKJDNAPL@Hardware?5does?5not?5support?58?5bit?5@ 00500e20     libsdlx:mmerror.obj
 0006:00002da8       ??_C@_0CH@HDOFLMHB@Hardware?5does?5not?5support?516?5bit@ 00500e48     libsdlx:mmerror.obj
 0006:00002dd0       ??_C@_0BI@DODPLKED@Unsupported?5sample?5rate?$AA@ 00500e70     libsdlx:mmerror.obj
 0006:00002de8       ??_C@_0BK@HPHILFLN@Could?5not?5set?5sample?5rate?$AA@ 00500e88     libsdlx:mmerror.obj
 0006:00002e04       ??_C@_0CC@KLOAFOCL@Could?5not?5set?5mono?1stereo?5settin@ 00500ea4     libsdlx:mmerror.obj
 0006:00002e28       ??_C@_0BK@INDCJJOI@Could?5not?5set?5sample?5size?$AA@ 00500ec8     libsdlx:mmerror.obj
 0006:00002e44       ??_C@_0BM@EOGAKKIM@Could?5not?5set?5fragment?5size?$AA@ 00500ee4     libsdlx:mmerror.obj
 0006:00002e60       ??_C@_0CH@HICMLKKN@Could?5not?5set?5transmission?5buffe@ 00500f00     libsdlx:mmerror.obj
 0006:00002e88       ??_C@_0CA@JGGKKCBB@Unable?5to?5get?5audio?5description?$AA@ 00500f28     libsdlx:mmerror.obj
 0006:00002ea8       ??_C@_0BO@FEDOBEIJ@Unable?5to?5select?5audio?5output?$AA@ 00500f48     libsdlx:mmerror.obj
 0006:00002ec8       ??_C@_0CO@HFOFICGC@Could?5not?5select?5requested?5numbe@ 00500f68     libsdlx:mmerror.obj
 0006:00002ef8       ??_C@_0CH@EDDNNEED@Could?5not?5select?5requested?5sampl@ 00500f98     libsdlx:mmerror.obj
 0006:00002f20       ??_C@_0CM@GLFNBBEL@Unable?5to?5select?516bit?9linear?5sa@ 00500fc0     libsdlx:mmerror.obj
 0006:00002f4c       ??_C@_0CB@FOKKNKIH@Could?5not?5start?5Ultrasound?5timer@ 00500fec     libsdlx:mmerror.obj
 0006:00002f70       ??_C@_0CD@DLEBEIAI@Ultrasound?5card?5could?5not?5be?5res@ 00501010     libsdlx:mmerror.obj
 0006:00002f94       ??_C@_0DF@JBLDNOI@Ultrasound?5driver?5only?5works?5in?5@ 00501034     libsdlx:mmerror.obj
 0006:00002fcc       ??_C@_0DC@KKLOFCLG@Configuration?5?$CIstart?5step?$CJ?5of?5au@ 0050106c     libsdlx:mmerror.obj
 0006:00003000       ??_C@_0DE@ILIPNADA@Configuration?5?$CIcontrol?5step?$CJ?5of?5@ 005010a0     libsdlx:mmerror.obj
 0006:00003034       ??_C@_0DB@FAGJHKEA@Configuration?5?$CIinit?5step?$CJ?5of?5aud@ 005010d4     libsdlx:mmerror.obj
 0006:00003068       ??_C@_0CK@OMFLKOAE@Cannot?5find?5suitable?5AudioFile?5a@ 00501108     libsdlx:mmerror.obj
 0006:00003094       ??_C@_0DB@OIMPOMJB@Unable?5to?5set?5non?9blocking?5mode?5@ 00501134     libsdlx:mmerror.obj
 0006:000030c8       ??_C@_0DK@CBEOMNIJ@This?5driver?5supports?5uLaw?5output@ 00501168     libsdlx:mmerror.obj
 0006:00003104       ??_C@_0CI@NBFNGCAA@This?5driver?5supports?5stereo?5outp@ 005011a4     libsdlx:mmerror.obj
 0006:0000312c       ??_C@_0CP@FBKFDMCP@This?5driver?5supports?516?5bit?5line@ 005011cc     libsdlx:mmerror.obj
 0006:0000315c       ??_C@_0CO@FNJPKAML@This?5driver?5supports?58?5bit?5linea@ 005011fc     libsdlx:mmerror.obj
 0006:0000318c       ??_C@_0BM@KIEDJCLP@Could?5not?5open?5sound?5device?$AA@ 0050122c     libsdlx:mmerror.obj
 0006:000031a8       ??_C@_0BH@KOOFABDE@Software?5mixer?5failure?$AA@ 00501248     libsdlx:mmerror.obj
 0006:000031c0       ??_C@_0BL@LNINCHLO@Device?5number?5out?5of?5range?$AA@ 00501260     libsdlx:mmerror.obj
 0006:000031dc       ??_C@_0BK@EHGDEKEB@Sound?5device?5not?5detected?$AA@ 0050127c     libsdlx:mmerror.obj
 0006:000031f8       ??_C@_0BN@BNLMEAFM@Compressed?5sample?5is?5invalid?$AA@ 00501298     libsdlx:mmerror.obj
 0006:00003218       ??_C@_0CH@MOKEEOCB@Synthsounds?5not?5supported?5in?5MED@ 005012b8     libsdlx:mmerror.obj
 0006:00003240       ??_C@_0CE@ICDGHJE@Module?5sample?5format?5not?5recogni@ 005012e0     libsdlx:mmerror.obj
 0006:00003264       ??_C@_0BN@PANNPJGH@Module?5format?5not?5recognized?$AA@ 00501304     libsdlx:mmerror.obj
 0006:00003284       ??_C@_0BL@CMDGHKOM@Failure?5loading?5sampleinfo?$AA@ 00501324     libsdlx:mmerror.obj
 0006:000032a0       ??_C@_0BO@IKFEIMFK@Failure?5loading?5module?5header?$AA@ 00501340     libsdlx:mmerror.obj
 0006:000032c0       ??_C@_0BN@LCFGBEHC@Failure?5loading?5module?5track?$AA@ 00501360     libsdlx:mmerror.obj
 0006:000032e0       ??_C@_0BP@BIKAKAGI@Failure?5loading?5module?5pattern?$AA@ 00501380     libsdlx:mmerror.obj
 0006:00003300       ??_C@_0BN@CADMHKHN@Sample?5format?5not?5recognized?$AA@ 005013a0     libsdlx:mmerror.obj
 0006:00003320       ??_C@_0CF@IOACFFKL@Out?5of?5sample?5handles?5to?5load?5sa@ 005013c0     libsdlx:mmerror.obj
 0006:00003348       ??_C@_0BN@FOGNLFE@Out?5of?5memory?5to?5load?5sample?$AA@ 005013e8     libsdlx:mmerror.obj
 0006:00003368       ??_C@_0BH@GPOJBHBK@Dynamic?5linking?5failed?$AA@ 00501408     libsdlx:mmerror.obj
 0006:00003380       ??_C@_0BO@JHKJCBJM@Could?5not?5open?5requested?5file?$AA@ 00501420     libsdlx:mmerror.obj
 0006:000033a0       ??_C@_08INEPGKHH@No?5error?$AA@ 00501440     libsdlx:mmerror.obj
 0006:000033ac       ??_C@_0BP@LBFPCOHI@Not?5an?5Ogg?5Vorbis?5audio?5stream?$AA@ 0050144c     libsdlx:music_ogg.obj
 0006:000033cc       ??_C@_0BL@NIPMELEF@?$CFs?3?5line?5?$CFd?3?5syntax?5error?6?$AA@ 0050146c     libsdlx:timidity.obj
 0006:000033e8       ??_C@_0DA@NEDCDEKG@?$CFs?3?5line?5?$CFd?3?5Program?5must?5be?5bet@ 00501488     libsdlx:timidity.obj
 0006:00003418       ??_C@_0CP@LEEOADGD@?$CFs?3?5line?5?$CFd?3?5strip?5must?5be?5env?0?5@ 005014b8     libsdlx:timidity.obj
 0006:00003448       ??_C@_0CH@LAFNBAOM@?$CFs?3?5line?5?$CFd?3?5keep?5must?5be?5env?5or@ 005014e8     libsdlx:timidity.obj
 0006:00003470       ??_C@_0EL@CBEDNCDI@?$CFs?3?5line?5?$CFd?3?5panning?5must?5be?5lef@ 00501510     libsdlx:timidity.obj
 0006:000034bc       ??_C@_0CN@KHMFIKJI@?$CFs?3?5line?5?$CFd?3?5note?5must?5be?5betwee@ 0050155c     libsdlx:timidity.obj
 0006:000034ec       ??_C@_0DF@MNIJGOOO@?$CFs?3?5line?5?$CFd?3?5amplification?5must?5@ 0050158c     libsdlx:timidity.obj
 0006:00003524       ??_C@_0CC@BJOJEDAF@?$CFs?3?5line?5?$CFd?3?5bad?5patch?5option?5?$CFs@ 005015c4     libsdlx:timidity.obj
 0006:00003548       ??_C@_0ED@GMOGIBBE@?$CFs?3?5line?5?$CFd?3?5Must?5specify?5tone?5b@ 005015e8     libsdlx:timidity.obj
 0006:0000358c       ??_C@_0DC@NKAKPJMF@?$CFs?3?5line?5?$CFd?3?5Tone?5bank?5must?5be?5b@ 0050162c     libsdlx:timidity.obj
 0006:000035c0       ??_C@_0CD@NKONOEIG@?$CFs?3?5line?5?$CFd?3?5No?5bank?5number?5give@ 00501660     libsdlx:timidity.obj
 0006:000035e4       ??_C@_0DB@ILAAFNLO@?$CFs?3?5line?5?$CFd?3?5Drum?5set?5must?5be?5be@ 00501684     libsdlx:timidity.obj
 0006:00003618       ??_C@_0CH@IGFADIDO@?$CFs?3?5line?5?$CFd?3?5No?5drum?5set?5number?5@ 005016b8     libsdlx:timidity.obj
 0006:00003640       ??_C@_0DC@IBKCNBME@?$CFs?3?5line?5?$CFd?3?5Must?5specify?5exactl@ 005016e0     libsdlx:timidity.obj
 0006:00003674       ??_C@_0CB@HMNDPEDF@?$CFs?3?5line?5?$CFd?3?5No?5file?5name?5given?6@ 00501714     libsdlx:timidity.obj
 0006:00003698       ??_C@_0CB@CJLBFLDG@?$CFs?3?5line?5?$CFd?3?5No?5directory?5given?6@ 00501738     libsdlx:timidity.obj
 0006:000036bc       ??_C@_0BE@FDMHBOMK@Can?8t?5read?5from?5?$CFs?6?$AA@ 0050175c     libsdlx:timidity.obj
 0006:000036d0       ??_C@_04DIFLAKIP@tail?$AA@ 00501770     libsdlx:timidity.obj
 0006:000036d8       ??_C@_05GGNGIGHC@strip?$AA@ 00501778     libsdlx:timidity.obj
 0006:000036e0       ??_C@_04GKOOIABA@loop?$AA@ 00501780     libsdlx:timidity.obj
 0006:000036e8       ??_C@_03OJGPBPII@env?$AA@  00501788     libsdlx:timidity.obj
 0006:000036ec       ??_C@_04LKOEDJLC@keep?$AA@ 0050178c     libsdlx:timidity.obj
 0006:000036f4       ??_C@_06BBLOAEEI@center?$AA@ 00501794     libsdlx:timidity.obj
 0006:000036fc       ??_C@_03HOPGHEB@pan?$AA@   0050179c     libsdlx:timidity.obj
 0006:00003700       ??_C@_04DHOIHJPF@note?$AA@ 005017a0     libsdlx:timidity.obj
 0006:00003708       ??_C@_03DCBBJBAA@amp?$AA@  005017a8     libsdlx:timidity.obj
 0006:0000370c       ??_C@_04JNPFOIOP@bank?$AA@ 005017ac     libsdlx:timidity.obj
 0006:00003714       ??_C@_07PDADNKBA@drumset?$AA@ 005017b4     libsdlx:timidity.obj
 0006:0000371c       ??_C@_07DLHCIBDH@default?$AA@ 005017bc     libsdlx:timidity.obj
 0006:00003724       ??_C@_06OEKOLKIL@source?$AA@ 005017c4     libsdlx:timidity.obj
 0006:0000372c       ??_C@_03DAPAKLGM@dir?$AA@  005017cc     libsdlx:timidity.obj
 0006:00003730       ??_C@_05BFHLNIPJ@?5?7?$AN?6?$KA?$AA@ 005017d0     libsdlx:timidity.obj
 0006:00003738       ??_C@_0CM@EIBLBLAJ@Probable?5source?5loop?5in?5configur@ 005017d8     libsdlx:timidity.obj
 0006:00003764       ??_C@_0BC@ONJICBGP@Couldn?8t?5open?5?$CFs?6?$AA@ 00501804     libsdlx:timidity.obj
 0006:00003778       ??_C@_0BJ@BCDADOAG@Unsupported?5audio?5format?$AA@ 00501818     libsdlx:timidity.obj
 0006:00003794       ??_C@_0BA@PNPMHMNN@D?3?2timidity?4cfg?$AA@ 00501834     libsdlx:timidity.obj
 0006:000037a8       __real@40b0000000000000    00501848     libsdlx:playmidi.obj
 0006:000037b0       __real@3ea0000000000000    00501850     libsdlx:playmidi.obj
 0006:000037b8       __real@3e40000000000000    00501858     libsdlx:playmidi.obj
 0006:000037c0       __real@3eb0000000000000    00501860     libsdlx:playmidi.obj
 0006:000037c8       ??_C@_0DA@GKJOPEIC@Strange?3?5percussion?5instrument?5w@ 00501868     libsdlx:playmidi.obj
 0006:000037f8       ??_C@_0BM@CKBCFGOL@All?5notes?5off?5on?5channel?5?$CFd?$AA@ 00501898     libsdlx:playmidi.obj
 0006:00003814       ??_C@_0BH@IGBCALHB@Notes?5lost?5totally?3?5?$CFd?$AA@ 005018b4     libsdlx:playmidi.obj
 0006:0000382c       ??_C@_0O@BAJGCFFJ@Notes?5cut?3?5?$CFd?$AA@ 005018cc     libsdlx:playmidi.obj
 0006:0000383c       ??_C@_0BK@FHJLBKEB@Playing?5time?3?5?$HO?$CFd?5seconds?$AA@ 005018dc     libsdlx:playmidi.obj
 0006:00003858       __real@3f00000000000000    005018f8     libsdlx:mplayer.obj
 0006:00003868       __real@c060600000000000    00501908     libsdlx:vorbisfile.obj
 0006:00003870       __real@47000000            00501910     libsdlx:vorbisfile.obj
 0006:00003874       ??_C@_0BB@DOCACMIM@XBOX?5DirectSound?$AA@ 00501914     libsdlx:SDL_xboxaudio.obj
 0006:00003888       ??_C@_0CD@NGJIFEPO@Invalid?5call?5for?5the?5current?5sta@ 00501928     libsdlx:SDL_xboxaudio.obj
 0006:000038ac       ??_C@_0BG@GAGDGGKF@No?5audio?5device?5found?$AA@ 0050194c     libsdlx:SDL_xboxaudio.obj
 0006:000038c4       ??_C@_06DJHOIPC@?$CFs?3?5?$CFs?$AA@ 00501964     libsdlx:SDL_xboxaudio.obj
 0006:000038cc       ??_C@_0CE@IOEIACHK@?$CFs?3?5Unknown?5DirectSound?5error?3?50@ 0050196c     libsdlx:SDL_xboxaudio.obj
 0006:000038f0       ??_C@_0CD@OGCOBAMK@Control?5requested?5is?5not?5availab@ 00501990     libsdlx:SDL_xboxaudio.obj
 0006:00003914       ??_C@_0BH@KGLDLPJN@Function?5not?5supported?$AA@ 005019b4     libsdlx:SDL_xboxaudio.obj
 0006:0000392c       ??_C@_0DM@NABEIHHL@Unsupported?5interface?6?9?9?5Is?5Dire@ 005019cc     libsdlx:SDL_xboxaudio.obj
 0006:00003968       ??_C@_0BP@NBENMCLC@DirectSound?5GetCurrentPosition?$AA@ 00501a08     libsdlx:SDL_xboxaudio.obj
 0006:00003988       ??_C@_0BB@DKNLGBEB@DirectSound?5Lock?$AA@ 00501a28     libsdlx:SDL_xboxaudio.obj
 0006:0000399c       ??_C@_0CM@NEEALHAF@Sound?5buffer?5size?5must?5be?5betwee@ 00501a3c     libsdlx:SDL_xboxaudio.obj
 0006:000039c8       ??_C@_0BO@CMKKFKKH@DirectSound?5CreateSoundBuffer?$AA@ 00501a68     libsdlx:SDL_xboxaudio.obj
 0006:000039e8       ??_C@_0BK@OJANNCMP@Couldn?8t?5create?5semaphore?$AA@ 00501a88     libsdlx:SDL_syssem.obj
 0006:00003a04       ??_C@_0BN@CBILABAM@WaitForSingleObject?$CI?$CJ?5failed?$AA@ 00501aa4     libsdlx:SDL_syssem.obj
 0006:00003a24       ??_C@_0BC@MPKHDLJP@Passed?5a?5NULL?5sem?$AA@ 00501ac4     libsdlx:SDL_syssem.obj
 0006:00003a38       ??_C@_0BK@PIIIPHLC@ReleaseSemaphore?$CI?$CJ?5failed?$AA@ 00501ad8     libsdlx:SDL_syssem.obj
 0006:00005c14       ??_C@_0M@IBOGMPKP@D?3?2TIMIDITY?$AA@ 00503cb4     libsdlx:common.obj
 0006:00005c20       ??_C@_0CB@JFPCGJG@Attempted?5to?5open?5nameless?5file?4@ 00503cc0     libsdlx:common.obj
 0006:00005c44       ??_C@_0BC@EAJEGPLC@Trying?5to?5open?5?$CFs?$AA@ 00503ce4     libsdlx:common.obj
 0006:00005c58       ??_C@_0N@KIACOEPK@?$CFs?3?5skip?3?5?$CFs?$AA@ 00503cf8     libsdlx:common.obj
 0006:00005c68       ??_C@_0CB@DEJDLLLL@Sorry?4?5Couldn?8t?5malloc?5?$CFd?5bytes?4@ 00503d08     libsdlx:common.obj
 0006:00005c8c       ??_C@_0DO@OCKFGKON@Strange?0?5I?5feel?5like?5allocating?5@ 00503d2c     libsdlx:common.obj
 0006:00005ccc       ??_C@_04COFFCEPO@?4pat?$AA@ 00503d6c     libsdlx:instrum.obj
 0006:00005cd8       __real@40f0000000000000    00503d78     libsdlx:instrum.obj
 0006:00005ce0       __real@4043000000000000    00503d80     libsdlx:instrum.obj
 0006:00005ce8       ??_C@_0BG@DIIGKNBE@?$CFs?3?5not?5an?5instrument?$AA@ 00503d88     libsdlx:instrum.obj
 0006:00005d00       ??_C@_0BI@OILNFCMC@Error?5reading?5sample?5?$CFd?$AA@ 00503da0     libsdlx:instrum.obj
 0006:00005d18       ??_C@_0BC@JIAFGIHJ@?5?9?5Stripping?5tail?$AA@ 00503db8     libsdlx:instrum.obj
 0006:00005d2c       ??_C@_0BD@OKGGLODM@?5?$CK?5volume?5comp?3?5?$CFf?$AA@ 00503dcc     libsdlx:instrum.obj
 0006:00005d40       __real@40e0000000000000    00503de0     libsdlx:instrum.obj
 0006:00005d48       __real@3f847ae147ae147b    00503de8     libsdlx:instrum.obj
 0006:00005d50       ??_C@_0BD@LGNDADMN@Reverse?5loop?5in?5?$CFs?$AA@ 00503df0     libsdlx:instrum.obj
 0006:00005d64       ??_C@_0CA@KOEFDNMI@?5?9?5Weirdness?0?5removing?5envelope?$AA@ 00503e04     libsdlx:instrum.obj
 0006:00005d84       ??_C@_0CB@POKJEJGB@?5?9?5No?5sustain?0?5removing?5envelope@ 00503e24     libsdlx:instrum.obj
 0006:00005da8       ??_C@_06DFEEAPHD@?$DP?$DP?$DP?$DP?$DP?$DP?$AA@ 00503e48     libsdlx:instrum.obj
 0006:00005db0       ??_C@_0CK@FNKFIDDD@?5?9?5No?5loop?0?5removing?5sustain?5and@ 00503e50     libsdlx:instrum.obj
 0006:00005ddc       ??_C@_0BF@IIOEBKMO@?5?9?5Removing?5envelope?$AA@ 00503e7c     libsdlx:instrum.obj
 0006:00005df4       ??_C@_0CA@NBILAOFH@?5?9?5Removing?5loop?5and?1or?5sustain?$AA@ 00503e94     libsdlx:instrum.obj
 0006:00005e14       ??_C@_0O@FCLHMDPG@?5?$CK?5no?5vibrato?$AA@ 00503eb4     libsdlx:instrum.obj
 0006:00005e24       ??_C@_0CH@FCGLKHAO@?5?$CK?5vibrato?3?5sweep?5?$CFd?0?5ctl?5?$CFd?0?5de@ 00503ec4     libsdlx:instrum.obj
 0006:00005e4c       ??_C@_0O@HIBELJKP@?5?$CK?5no?5tremolo?$AA@ 00503eec     libsdlx:instrum.obj
 0006:00005e5c       ??_C@_0CJ@PDNKAPAL@?5?$CK?5tremolo?3?5sweep?5?$CFd?0?5phase?5?$CFd?0?5@ 00503efc     libsdlx:instrum.obj
 0006:00005e88       ??_C@_0CI@FGGOGFHC@Can?8t?5handle?5instruments?5with?5?$CFd@ 00503f28     libsdlx:instrum.obj
 0006:00005eb0       ??_C@_0CJ@PIALIFO@Can?8t?5handle?5patches?5with?5?$CFd?5ins@ 00503f50     libsdlx:instrum.obj
 0006:00005edc       ??_C@_0BG@NCCHNCNE@GF1PATCH100?$AAID?$CD000002?$AA@ 00503f7c     libsdlx:instrum.obj
 0006:00005ef4       ??_C@_0BG@PLBALFB@GF1PATCH110?$AAID?$CD000002?$AA@ 00503f94     libsdlx:instrum.obj
 0006:00005f0c       ??_C@_0BG@ELOGKPND@Loading?5instrument?5?$CFs?$AA@ 00503fac     libsdlx:instrum.obj
 0006:00005f24       ??_C@_0CA@IHKCPFMJ@Instrument?5?$GA?$CFs?8?5can?8t?5be?5found?4?$AA@ 00503fc4     libsdlx:instrum.obj
 0006:00005f44       ??_C@_0DA@INMOCIKL@Couldn?8t?5load?5instrument?5?$CFs?5?$CI?$CFs?5@ 00503fe4     libsdlx:instrum.obj
 0006:00005f74       ??_C@_0CM@NCDGCMFI@No?5instrument?5mapped?5to?5?$CFs?5?$CFd?0?5p@ 00504014     libsdlx:instrum.obj
 0006:00005fa0       ??_C@_08EBDCNLFD@drum?5set?$AA@ 00504040     libsdlx:instrum.obj
 0006:00005fac       ??_C@_0CF@DODHMCBM@?5?9?5this?5instrument?5will?5not?5be?5h@ 0050404c     libsdlx:instrum.obj
 0006:00005fd4       ??_C@_0DF@JDCEHDA@Huh?4?5Tried?5to?5load?5instruments?5i@ 00504074     libsdlx:instrum.obj
 0006:0000600c       ??_C@_09NPGGMIOO@tone?5bank?$AA@ 005040ac     libsdlx:instrum.obj
 0006:00006018       __real@3ee0000000000000    005040b8     libsdlx:mix.obj
 0006:00006020       __real@3f7921fb54442d18    005040c0     libsdlx:mix.obj
 0006:00006028       ??_C@_0M@HJOPKGLL@Cue?5point?3?5?$AA@ 005040c8     libsdlx:readmidi.obj
 0006:00006034       ??_C@_08BPDCEFHB@Marker?3?5?$AA@ 005040d4     libsdlx:readmidi.obj
 0006:00006040       ??_C@_07NKDMMHDD@Lyric?3?5?$AA@ 005040e0     libsdlx:readmidi.obj
 0006:00006048       ??_C@_0N@GFAIPBFA@Instrument?3?5?$AA@ 005040e8     libsdlx:readmidi.obj
 0006:00006058       ??_C@_0N@LEAAGLDL@Track?5name?3?5?$AA@ 005040f8     libsdlx:readmidi.obj
 0006:00006068       ??_C@_0M@LOHPCBOC@Copyright?3?5?$AA@ 00504108     libsdlx:readmidi.obj
 0006:00006074       ??_C@_06HMLHKLON@Text?3?5?$AA@ 00504114     libsdlx:readmidi.obj
 0006:0000607c       ??_C@_0N@IBFGIEFB@Text?5event?3?5?$AA@ 0050411c     libsdlx:readmidi.obj
 0006:0000608c       ??_C@_0CI@NAAKLKBB@Samples?5per?5delta?9t?3?5?$CFd?5?$CIcorrect@ 0050412c     libsdlx:readmidi.obj
 0006:000060b8       __real@3fb0c6f7a0b5ed8d    00504158     libsdlx:readmidi.obj
 0006:000060c0       ??_C@_0BI@BPDAJJAL@?$CFs?3?5read_midi_event?3?5?$CFs?$AA@ 00504160     libsdlx:readmidi.obj
 0006:000060d8       ??_C@_0DA@BFHJHHHK@?$CK?$CK?$CK?5Can?8t?5happen?3?5status?50x?$CF02X?0@ 00504178     libsdlx:readmidi.obj
 0006:00006108       ??_C@_0BB@KGOEMMDD@?$CIControl?5?$CFd?3?5?$CFd?$CJ?$AA@ 005041a8     libsdlx:readmidi.obj
 0006:0000611c       ??_C@_0CK@DDDPDAOH@?$CIData?5entry?5?$CIMSB?$CJ?5for?5RPN?5?$CF02x?0?$CF@ 005041bc     libsdlx:readmidi.obj
 0006:00006148       ??_C@_0CL@DCIHBHKL@?$CIData?5entry?5?$CIMSB?$CJ?5for?5NRPN?5?$CF02x?0@ 005041e8     libsdlx:readmidi.obj
 0006:00006174       ??_C@_0CF@MGMGOMNN@?$CIStrange?3?5tone?5bank?5change?50x20?$CF@ 00504214     libsdlx:readmidi.obj
 0006:0000619c       ??_C@_0CF@KBGCPEEJ@?$CIMeta?5event?5type?50x?$CF02x?0?5length?5@ 0050423c     libsdlx:readmidi.obj
 0006:000061c4       ??_C@_0BN@JFHNLKCD@?$CFs?3?5Can?8t?5read?5track?5header?4?$AA@ 00504264     libsdlx:readmidi.obj
 0006:000061e4       ??_C@_0BH@BAEHAKFO@?$CFs?3?5Corrupt?5MIDI?5file?4?$AA@ 00504284     libsdlx:readmidi.obj
 0006:000061fc       ??_C@_04MKNACLN@MTrk?$AA@  0050429c     libsdlx:readmidi.obj
 0006:00006204       ??_C@_0BJ@KICOIPGM@Drum?5set?5?$CFd?5is?5undefined?$AA@ 005042a4     libsdlx:readmidi.obj
 0006:00006220       ??_C@_0BK@LGEJKFIC@Tone?5bank?5?$CFd?5is?5undefined?$AA@ 005042c0     libsdlx:readmidi.obj
 0006:0000623c       ??_C@_0BO@MKPNBAEK@?$CF6d?3?5ch?5?$CF2d?3?5event?5?$CFd?5?$CI?$CFd?0?$CFd?$CJ?$AA@ 005042dc     libsdlx:readmidi.obj
 0006:0000625c       ??_C@_0BF@MKJGPPB@?$CFs?3?5Not?5a?5MIDI?5file?$CB?$AA@ 005042fc     libsdlx:readmidi.obj
 0006:00006274       ??_C@_0CA@CLBMCCOH@?$CFs?3?5Unknown?5MIDI?5file?5format?5?$CFd?$AA@ 00504314     libsdlx:readmidi.obj
 0006:00006294       ??_C@_0CG@HICBOLDD@Format?3?5?$CFd?5?5Tracks?3?5?$CFd?5?5Division@ 00504334     libsdlx:readmidi.obj
 0006:000062bc       ??_C@_0CE@PCMFONNA@?$CFs?3?5MIDI?5file?5header?5size?5?$CFld?5by@ 0050435c     libsdlx:readmidi.obj
 0006:000062e0       ??_C@_07KLKPCJMH@nosound?$AA@ 00504380     libsdlx:drv_nos.obj
 0006:000062e8       ??_C@_0BE@OIGEFBNE@Nosound?5Driver?5v3?40?$AA@ 00504388     libsdlx:drv_nos.obj
 0006:000062fc       ??_C@_08EHJBDKKN@No?5Sound?$AA@ 0050439c     libsdlx:drv_nos.obj
 0006:00006308       ??_C@_0CM@KFBAKACE@MikMod?5Simple?5DirectMedia?5Layer?5@ 005043a8     libsdlx:drv_sdl.obj
 0006:00006334       ??_C@_03CMFMKFLK@SDL?$AA@  005043d4     libsdlx:drv_sdl.obj
 0006:00006338       ??_C@_0BD@BGLCADKL@XM?5?$CIFastTracker?52?$CJ?$AA@ 005043d8     libsdlx:load_xm.obj
 0006:0000634c       ??_C@_02CHMGGIKN@XM?$AA@   005043ec     libsdlx:load_xm.obj
 0006:00006350       ??_C@_0BC@EGDGEIGH@Extended?5Module?3?5?$AA@ 005043f0     libsdlx:load_xm.obj
 0006:00006364       ??_C@_0BH@MOBMEIJH@?$CFs?5?$CIXM?5format?5?$CFd?4?$CF02d?$CJ?$AA@ 00504404     libsdlx:load_xm.obj
 0006:0000637c       ??_C@_0BA@IBMHBLK@Unknown?5tracker?$AA@ 0050441c     libsdlx:load_xm.obj
 0006:0000638c       ??_C@_0BH@GALPIPM@S3M?5?$CIScream?5Tracker?53?$CJ?$AA@ 0050442c     libsdlx:load_s3m.obj
 0006:000063a4       ??_C@_03GEPJOKCO@S3M?$AA@  00504444     libsdlx:load_s3m.obj
 0006:000063a8       ??_C@_0CE@MLLKOPNB@Impulse?5Tracker?52?414p4?5?$CIS3M?5form@ 00504448     libsdlx:load_s3m.obj
 0006:000063cc       ??_C@_0CE@FALLOAML@Impulse?5Tracker?52?414p3?5?$CIS3M?5form@ 0050446c     libsdlx:load_s3m.obj
 0006:000063f0       ??_C@_0CC@LPNIFBJD@Unknown?5tracker?5x?4xx?5?$CIS3M?5format@ 00504490     libsdlx:load_s3m.obj
 0006:00006414       ??_C@_0CC@ICEDIKFC@Impulse?5Tracker?5x?4xx?5?$CIS3M?5format@ 005044b4     libsdlx:load_s3m.obj
 0006:00006438       ??_C@_0CA@EJGJDBHC@Imago?5Orpheus?5x?4xx?5?$CIS3M?5format?$CJ?$AA@ 005044d8     libsdlx:load_s3m.obj
 0006:00006458       ??_C@_0BD@PBEPCOAA@Screamtracker?5x?4xx?$AA@ 005044f8     libsdlx:load_s3m.obj
 0006:0000646c       ??_C@_04OFCAIBLM@SCRM?$AA@ 0050450c     libsdlx:load_s3m.obj
 0006:00006474       ??_C@_04DBGBLOGD@SCRS?$AA@ 00504514     libsdlx:load_s3m.obj
 0006:0000647c       ??_C@_0BF@HCKFPAFB@MOD?5?$CI31?5instruments?$CJ?$AA@ 0050451c     libsdlx:load_mod.obj
 0006:00006494       ??_C@_0BA@FBKOIKLJ@Standard?5module?$AA@ 00504534     libsdlx:load_mod.obj
 0006:000064a4       ??_C@_02BMJIHHPP@CN?$AA@   00504544     libsdlx:load_mod.obj
 0006:000064a8       ??_C@_02EKMCNAHJ@CH?$AA@   00504548     libsdlx:load_mod.obj
 0006:000064ac       ??_C@_03EHGJGJMD@CHN?$AA@  0050454c     libsdlx:load_mod.obj
 0006:000064b0       ??_C@_04NONNFGIL@CD81?$AA@ 00504550     libsdlx:load_mod.obj
 0006:000064b8       ??_C@_04CNLMOAGO@OKTA?$AA@ 00504558     libsdlx:load_mod.obj
 0006:000064c0       ??_C@_03GHDPKECO@EXO?$AA@  00504560     libsdlx:load_mod.obj
 0006:000064c4       ??_C@_03MHJDMLPG@FLT?$AA@  00504564     libsdlx:load_mod.obj
 0006:000064c8       ??_C@_04HBGACLID@M?$CBK?$CB?$AA@ 00504568     libsdlx:load_mod.obj
 0006:000064d0       ??_C@_04KOJLCHBK@M?4K?4?$AA@ 00504570     libsdlx:load_mod.obj
 0006:000064d8       ??_C@_0BF@FJBJIDNN@IT?5?$CIImpulse?5Tracker?$CJ?$AA@ 00504578     libsdlx:load_it.obj
 0006:000064f0       ??_C@_02KBCCAIPC@IT?$AA@   00504590     libsdlx:load_it.obj
 0006:000064f4       ??_C@_0CB@CFOBPDKI@Compressed?5ImpulseTracker?52?414p4@ 00504594     libsdlx:load_it.obj
 0006:00006518       ??_C@_0BG@BAFFGDGH@ImpulseTracker?52?414p4?$AA@ 005045b8     libsdlx:load_it.obj
 0006:00006530       ??_C@_0CB@GKKAGFGP@Compressed?5ImpulseTracker?52?414p3@ 005045d0     libsdlx:load_it.obj
 0006:00006554       ??_C@_0BG@FPBEPFKA@ImpulseTracker?52?414p3?$AA@ 005045f4     libsdlx:load_it.obj
 0006:0000656c       ??_C@_0BP@OGIIOAGF@Compressed?5ImpulseTracker?5?5?4?5?5?$AA@ 0050460c     libsdlx:load_it.obj
 0006:0000658c       ??_C@_0BE@FMMMOCE@ImpulseTracker?5?5?4?5?5?$AA@ 0050462c     libsdlx:load_it.obj
 0006:000065a0       ??_C@_04CMCLKNMC@IMPM?$AA@ 00504640     libsdlx:load_it.obj
 0006:000065a8       ??_C@_05HDEPNLCJ@F0F00?$AA@ 00504648     libsdlx:load_it.obj
 0006:000065b0       ??_C@_0P@PPFCKJAD@?2Device?2Cdrom0?$AA@ 00504650     libsdlx:SDL_syscdrom.obj
 0006:000065c0       ??_C@_03IAENJFNE@R?3?2?$AA@ 00504660     libsdlx:SDL_syscdrom.obj
 0006:000065c4       ??_C@_06EFKACOKC@vorbis?$AA@ 00504664     libsdlx:info.obj
 0006:000065cc       __real@c61c3c00            0050466c     libsdlx:block.obj
 0006:000065d0       __real@443f115b            00504670     libsdlx:analysis.obj
 0006:000065d4       __real@3540a8c1            00504674     libsdlx:analysis.obj
 0006:000065d8       __real@402a333340000000    00504678     libsdlx:analysis.obj
 0006:000065e0       __real@4001eb8520000000    00504680     libsdlx:analysis.obj
 0006:000065e8       __real@3fd0000000000000    00504688     libsdlx:analysis.obj
 0006:00006618       __real@3fc5555555555555    005046b8     libsdlx:resample.obj
 0006:00006620       __real@3f30000000000000    005046c0     libsdlx:resample.obj
 0006:00006628       ??_C@_0CF@HHGCJMDA@?5?$CK?5pre?9resampling?5for?5note?5?$CFd?5?$CI?$CF@ 005046c8     libsdlx:resample.obj
 0006:00006650       __real@3e45798ee2308c3a    005046f0     libsdlx:filter.obj
 0006:00006658       __real@40800000            005046f8     libsdlx:filter.obj
 0006:00006660       __real@3ff8061efdf208c6    00504700     libsdlx:filter.obj
 0006:00006668       __real@3fd999999999999a    00504708     libsdlx:filter.obj
 0006:00006670       __real@40263ec501fd3041    00504710     libsdlx:filter.obj
 0006:00006678       __real@400921fb54442d18    00504718     libsdlx:filter.obj
 0006:00006680       ??_C@_0BF@KAEDJAH@Saturation?5?$CF2?43f?5?$CF?$CF?4?$AA@ 00504720     libsdlx:filter.obj
 0006:00006698       __real@c0e0000000000000    00504738     libsdlx:filter.obj
 0006:000066a0       __real@40dfffc000000000    00504740     libsdlx:filter.obj
 0006:000066a8       __real@c7000000            00504748     libsdlx:filter.obj
 0006:000066ac       __real@46fffe00            0050474c     libsdlx:filter.obj
 0006:000066b0       ??_C@_0BK@BHIIIJOI@Antialiasing?3?5cutoff?$DN?$CFf?$CF?$CF?$AA@ 00504750     libsdlx:filter.obj
 0006:000066cc       ??_C@_0BM@CODFPOPI@Antialiasing?3?5Fsample?$DN?$CFiKHz?$AA@ 0050476c     libsdlx:filter.obj
 0006:000066e8       ??_C@_0O@HCDBDLJL@SDL?5interface?$AA@ 00504788     libsdlx:sdl_c.obj
 0006:000066f8       ??_C@_09JPBKECCE@SDL?5audio?$AA@ 00504798     libsdlx:sdl_a.obj
 0006:00006704       __real@c3480000            005047a4     libsdlx:psy.obj
 0006:00006708       __real@c479c000            005047a8     libsdlx:psy.obj
 0006:00006710       __real@3fff000000000000    005047b0     libsdlx:psy.obj
 0006:00006718       __real@4000800000000000    005047b8     libsdlx:psy.obj
 0006:00006720       __real@3fc0000000000000    005047c0     libsdlx:psy.obj
 0006:00006728       __real@3ff7154760000000    005047c8     libsdlx:psy.obj
 0006:00006730       __real@3fe62e42a0000000    005047d0     libsdlx:psy.obj
 0006:00006738       __real@4017dcf680000000    005047d8     libsdlx:psy.obj
 0006:00006740       __real@41200000            005047e0     libsdlx:psy.obj
 0006:00006748       __real@403e000000000000    005047e8     libsdlx:psy.obj
 0006:00006750       __real@4024000000000000    005047f0     libsdlx:psy.obj
 0006:00006758       __real@4479c000            005047f8     libsdlx:psy.obj
 0006:0000675c       __real@41800000            005047fc     libsdlx:psy.obj
 0006:00006760       __real@38d1b717            00504800     libsdlx:psy.obj
 0006:00006764       __real@3a41fc8f            00504804     libsdlx:psy.obj
 0006:00006768       __real@329ee9ee            00504808     libsdlx:psy.obj
 0006:0000676c       __real@3e800000            0050480c     libsdlx:psy.obj
 0006:00006770       __real@41000000            00504810     libsdlx:psy.obj
 0006:00006778       __real@3fb99999a0000000    00504818     libsdlx:psy.obj
 0006:00006780       __real@40c00000            00504820     libsdlx:psy.obj
 0006:00006788       __real@c000000000000000    00504828     libsdlx:psy.obj
 0006:00006790       __real@3fffff9720000000    00504830     libsdlx:psy.obj
 0006:00006798       __real@bfe0000000000000    00504838     libsdlx:mdct.obj
 0006:000067a0       __real@40490fdb            00504840     libsdlx:mdct.obj
 0006:000067a4       __real@3f3504f3            00504844     libsdlx:mdct.obj
 0006:000067a8       __real@3f6c835e            00504848     libsdlx:mdct.obj
 0006:000067ac       __real@3ec3ef15            0050484c     libsdlx:mdct.obj
 0006:000067b0       __real@4020000000000000    00504850     libsdlx:envelope.obj
 0006:000067b8       __real@447fe000            00504858     libsdlx:floor1.obj
 0006:000067bc       __real@40ea0ea1            0050485c     libsdlx:floor1.obj
 0006:000067c0       __real@40445f3071e2c65e    00504860     libsdlx:lsp.obj
 0006:000067c8       __real@42000000            00504868     libsdlx:lsp.obj
 0006:000067cc       __real@c1000000            0050486c     libsdlx:lsp.obj
 0006:000067d0       __real@3eb0c6f7a0b5ed8d    00504870     libsdlx:lsp.obj
 0006:000067d8       ??_C@_0BO@MIIMJIOA@Couldn?8t?5init?5FreeType?5engine?$AA@ 00504878     sdl_ttf:SDL_ttf.obj
 0006:000067f8       __real@47800000            00504898     sdl_ttf:SDL_ttf.obj
 0006:000067fc       ??_C@_0BI@JOAHBNFP@Library?5not?5initialized?$AA@ 0050489c     sdl_ttf:SDL_ttf.obj
 0006:00006814       ??_C@_0BE@JINCNLDL@Text?5has?5zero?5width?$AA@ 005048b4     sdl_ttf:SDL_ttf.obj
 0006:00006828       __real@3e53f7cf            005048c8     sdl_ttf:SDL_ttf.obj
 0006:0000682c       ??_C@_0BH@NADNEDOK@Couldn?8t?5set?5font?5size?$AA@ 005048cc     sdl_ttf:SDL_ttf.obj
 0006:00006844       ??_C@_0BI@KKFAJENM@Couldn?8t?5load?5font?5file?$AA@ 005048e4     sdl_ttf:SDL_ttf.obj
 0006:0000685c       ??_C@_0BF@PABIHPNH@Can?8t?5seek?5in?5stream?$AA@ 005048fc     sdl_ttf:SDL_ttf.obj
 0006:000068c8       __debug_mem_dummy          00504968     sdl_ttf:ftbase.obj
 0006:00006944       ??_C@_0L@FMACMAMO@name_index?$AA@ 005049e4     sdl_ttf:ftbase.obj
 0006:00006950       ??_C@_0L@GOIAOLDD@glyph_name?$AA@ 005049f0     sdl_ttf:ftbase.obj
 0006:0000695c       ??_C@_0BA@BKPLIBHH@postscript_name?$AA@ 005049fc     sdl_ttf:ftbase.obj
 0006:0000696c       ??_C@_08PFCFIPOB@get_sfnt?$AA@ 00504a0c     sdl_ttf:ftbase.obj
 0006:00006978       ??_C@_09GDDBCHOL@load_sfnt?$AA@ 00504a18     sdl_ttf:ftbase.obj
 0006:00006984       ??_C@_05MJDCDNNA@type1?$AA@ 00504a24     sdl_ttf:ftbase.obj
 0006:0000698c       ??_C@_08OKLLNAKL@truetype?$AA@ 00504a2c     sdl_ttf:ftbase.obj
 0006:00006998       ??_C@_03IINFADLN@cff?$AA@  00504a38     sdl_ttf:ftbase.obj
 0006:00006a68       _winfnt_driver_class       00504b08     sdl_ttf:winfnt.obj
 0006:00006ac8       ??_C@_08NAMFKPDH@winfonts?$AA@ 00504b68     sdl_ttf:winfnt.obj
 0006:00006ad4       ??_C@_06PPMHIBHB@Italic?$AA@ 00504b74     sdl_ttf:winfnt.obj
 0006:00006adc       ??_C@_04DIPHHIHJ@Bold?$AA@ 00504b7c     sdl_ttf:winfnt.obj
 0006:00006ae4       ??_C@_0M@DFCIIFPB@Bold?5Italic?$AA@ 00504b84     sdl_ttf:winfnt.obj
 0006:00006af0       ??_C@_07FFHPBFOK@Regular?$AA@ 00504b90     sdl_ttf:winfnt.obj
 0006:00006b94       _pfr_cmap_class_rec        00504c34     sdl_ttf:pfr.obj
 0006:00006ba8       _pfr_service_rec           00504c48     sdl_ttf:pfr.obj
 0006:00006bb8       _pfr_driver_class          00504c58     sdl_ttf:pfr.obj
 0006:00006c18       ??_C@_03OENHCMJJ@pfr?$AA@  00504cb8     sdl_ttf:pfr.obj
 0006:00006e80       _t42_driver_class          00504f20     sdl_ttf:type42.obj
 0006:00006ee0       ??_C@_06GNKBHGHD@type42?$AA@ 00504f80     sdl_ttf:type42.obj
 0006:00006ee8       ??_C@_05FJOKMJFH@sfnts?$AA@ 00504f88     sdl_ttf:type42.obj
 0006:00006ef0       ??_C@_0M@EKIFGBLL@CharStrings?$AA@ 00504f90     sdl_ttf:type42.obj
 0006:00006efc       ??_C@_08EJAHIGCJ@Encoding?$AA@ 00504f9c     sdl_ttf:type42.obj
 0006:00006f08       ??_C@_0L@LNCCOCBB@FontMatrix?$AA@ 00504fa8     sdl_ttf:type42.obj
 0006:00006f14       ??_C@_08EBMMLPNI@FontBBox?$AA@ 00504fb4     sdl_ttf:type42.obj
 0006:00006f20       ??_C@_0M@GLGMDIGG@StrokeWidth?$AA@ 00504fc0     sdl_ttf:type42.obj
 0006:00006f2c       ??_C@_08GBFACKAL@FontType?$AA@ 00504fcc     sdl_ttf:type42.obj
 0006:00006f38       ??_C@_09PNDIDGHG@PaintType?$AA@ 00504fd8     sdl_ttf:type42.obj
 0006:00006f44       ??_C@_08MKFDOKHL@FontName?$AA@ 00504fe4     sdl_ttf:type42.obj
 0006:00006f50       ??_C@_0BD@KBICJDLM@UnderlineThickness?$AA@ 00504ff0     sdl_ttf:type42.obj
 0006:00006f64       ??_C@_0BC@CCIMILPE@UnderlinePosition?$AA@ 00505004     sdl_ttf:type42.obj
 0006:00006f78       ??_C@_0N@OPLNPOL@isFixedPitch?$AA@ 00505018     sdl_ttf:type42.obj
 0006:00006f88       ??_C@_0M@ILCDBHGP@ItalicAngle?$AA@ 00505028     sdl_ttf:type42.obj
 0006:00006f94       ??_C@_06ODJMJFLN@Weight?$AA@ 00505034     sdl_ttf:type42.obj
 0006:00006f9c       ??_C@_0L@KKMPOENF@FamilyName?$AA@ 0050503c     sdl_ttf:type42.obj
 0006:00006fa8       ??_C@_08FPDCFGEH@FullName?$AA@ 00505048     sdl_ttf:type42.obj
 0006:00006fb4       ??_C@_06JHGCIHDH@Notice?$AA@ 00505054     sdl_ttf:type42.obj
 0006:00006fbc       ??_C@_07CPCPJPKL@version?$AA@ 0050505c     sdl_ttf:type42.obj
 0006:00006fc4       ??_C@_0BC@IJJLOJBO@?$CF?$CBPS?9TrueTypeFont?$AA@ 00505064     sdl_ttf:type42.obj
 0006:00006fd8       ??_C@_0BC@OHHLKLPP@ISOLatin1Encoding?$AA@ 00505078     sdl_ttf:type42.obj
 0006:00006fec       ??_C@_0P@LHOFAKJ@ExpertEncoding?$AA@ 0050508c     sdl_ttf:type42.obj
 0006:00006ffc       ??_C@_0BB@MLEHKAJM@StandardEncoding?$AA@ 0050509c     sdl_ttf:type42.obj
 0006:00007010       ??_C@_07JBKHDJHE@?4notdef?$AA@ 005050b0     sdl_ttf:type42.obj
 0006:00007018       ??_C@_05MDIJLHEA@known?$AA@ 005050b8     sdl_ttf:type42.obj
 0006:00007020       ??_C@_0O@CJLBGMNG@FontDirectory?$AA@ 005050c0     sdl_ttf:type42.obj
 0006:00007030       ??_C@_05MNCLAAKB@psaux?$AA@ 005050d0     sdl_ttf:type42.obj
 0006:00007038       ??_C@_07POODEHEH@psnames?$AA@ 005050d8     sdl_ttf:type42.obj
 0006:00007550       _t1_driver_class           005055f0     sdl_ttf:type1.obj
 0006:000075b0       ??_C@_0L@PFFALDOO@shareddict?$AA@ 00505650     sdl_ttf:type1.obj
 0006:000075bc       ??_C@_0N@JPPBHHHF@WeightVector?$AA@ 0050565c     sdl_ttf:type1.obj
 0006:000075cc       ??_C@_0P@LEAACMFJ@BlendAxisTypes?$AA@ 0050566c     sdl_ttf:type1.obj
 0006:000075dc       ??_C@_0P@FPDIEJKK@BlendDesignMap?$AA@ 0050567c     sdl_ttf:type1.obj
 0006:000075ec       ??_C@_0BF@BEKHBPMN@BlendDesignPositions?$AA@ 0050568c     sdl_ttf:type1.obj
 0006:00007604       ??_C@_05DHFNOCDJ@Subrs?$AA@ 005056a4     sdl_ttf:type1.obj
 0006:0000760c       ??_C@_09GOBAKHA@StemSnapV?$AA@ 005056ac     sdl_ttf:type1.obj
 0006:00007618       ??_C@_09NCKADFKP@StemSnapH?$AA@ 005056b8     sdl_ttf:type1.obj
 0006:00007624       ??_C@_0L@NKGPCONN@MinFeature?$AA@ 005056c4     sdl_ttf:type1.obj
 0006:00007630       ??_C@_05OBPKJLMP@StdVW?$AA@ 005056d0     sdl_ttf:type1.obj
 0006:00007638       ??_C@_05PHECBFLF@StdHW?$AA@ 005056d8     sdl_ttf:type1.obj
 0006:00007640       ??_C@_0BB@FMLCJJDP@FamilyOtherBlues?$AA@ 005056e0     sdl_ttf:type1.obj
 0006:00007654       ??_C@_0M@OIPOLIDA@FamilyBlues?$AA@ 005056f4     sdl_ttf:type1.obj
 0006:00007660       ??_C@_0L@CCJAIIMC@OtherBlues?$AA@ 00505700     sdl_ttf:type1.obj
 0006:0000766c       ??_C@_0L@DKDIMLOI@BlueValues?$AA@ 0050570c     sdl_ttf:type1.obj
 0006:00007678       ??_C@_08IPFLJFPM@BlueFuzz?$AA@ 00505718     sdl_ttf:type1.obj
 0006:00007684       ??_C@_09GDCMDLCO@BlueShift?$AA@ 00505724     sdl_ttf:type1.obj
 0006:00007690       ??_C@_09IPAGIEBG@BlueScale?$AA@ 00505730     sdl_ttf:type1.obj
 0006:0000769c       ??_C@_08NLHBPEGP@password?$AA@ 0050573c     sdl_ttf:type1.obj
 0006:000076a8       ??_C@_0O@PJDGHDCK@LanguageGroup?$AA@ 00505748     sdl_ttf:type1.obj
 0006:000076b8       ??_C@_05CIIKKFON@lenIV?$AA@ 00505758     sdl_ttf:type1.obj
 0006:000076c0       ??_C@_08OMJGNOHD@UniqueID?$AA@ 00505760     sdl_ttf:type1.obj
 0006:000076cc       ??_C@_0L@LLIKMEDC@?$CF?$CBFontType?$AA@ 0050576c     sdl_ttf:type1.obj
 0006:000076d8       ??_C@_0BB@BPLMIMCI@?$CF?$CBPS?9AdobeFont?91?$AA@ 00505778     sdl_ttf:type1.obj
 0006:000076ec       ??_C@_03KMONJGDG@put?$AA@  0050578c     sdl_ttf:type1.obj
 0006:000076f0       ??_C@_03BHPKJDPK@dup?$AA@  00505790     sdl_ttf:type1.obj
 0006:000076f4       ??_C@_08MNGCAOLP@pshinter?$AA@ 00505794     sdl_ttf:type1.obj
 0006:00007700       ??_C@_0N@CECBHPPJ@set_mm_blend?$AA@ 005057a0     sdl_ttf:type1.obj
 0006:00007710       ??_C@_0O@LNFKNNO@set_mm_design?$AA@ 005057b0     sdl_ttf:type1.obj
 0006:00007720       ??_C@_06HLNLNIGB@get_mm?$AA@ 005057c0     sdl_ttf:type1.obj
 0006:00007728       ??_C@_05BPGNDIAE@Black?$AA@ 005057c8     sdl_ttf:type1.obj
 0006:00007730       _tt_driver_class           005057d0     sdl_ttf:truetype.obj
 0006:00007790       ??_C@_04JAPIGAPK@sfnt?$AA@ 00505830     sdl_ttf:truetype.obj
 0006:000077b0       _ft_grays_raster           00505850     sdl_ttf:smooth.obj
 0006:000077c8       _ft_smooth_renderer_class  00505868     sdl_ttf:smooth.obj
 0006:00007804       _ft_smooth_lcd_renderer_class 005058a4     sdl_ttf:smooth.obj
 0006:00007840       _ft_smooth_lcdv_renderer_class 005058e0     sdl_ttf:smooth.obj
 0006:0000787c       ??_C@_0M@IHBDFEAO@smooth?9lcdv?$AA@ 0050591c     sdl_ttf:smooth.obj
 0006:00007888       ??_C@_0L@KCJBAIJI@smooth?9lcd?$AA@ 00505928     sdl_ttf:smooth.obj
 0006:00007894       ??_C@_06INICNAFJ@smooth?$AA@ 00505934     sdl_ttf:smooth.obj
 0006:000079d0       _tt_cmap0_class_rec        00505a70     sdl_ttf:sfnt.obj
 0006:000079ec       _tt_cmap2_class_rec        00505a8c     sdl_ttf:sfnt.obj
 0006:00007a08       _tt_cmap4_class_rec        00505aa8     sdl_ttf:sfnt.obj
 0006:00007a24       _tt_cmap6_class_rec        00505ac4     sdl_ttf:sfnt.obj
 0006:00007a40       _tt_cmap8_class_rec        00505ae0     sdl_ttf:sfnt.obj
 0006:00007a5c       _tt_cmap10_class_rec       00505afc     sdl_ttf:sfnt.obj
 0006:00007a78       _tt_cmap12_class_rec       00505b18     sdl_ttf:sfnt.obj
 0006:00007bb8       _sfnt_module_class         00505c58     sdl_ttf:sfnt.obj
 0006:00007bdc       _sbit_metrics_fields       00505c7c     sdl_ttf:sfnt.obj
 0006:00007c04       _ft_standard_raster        00505ca4     sdl_ttf:raster.obj
 0006:00007c1c       _ft_raster1_renderer_class 00505cbc     sdl_ttf:raster.obj
 0006:00007c58       _ft_raster5_renderer_class 00505cf8     sdl_ttf:raster.obj
 0006:00007c94       ??_C@_07CBDBLBPD@raster5?$AA@ 00505d34     sdl_ttf:raster.obj
 0006:00007c9c       ??_C@_07EFFNHEPH@raster1?$AA@ 00505d3c     sdl_ttf:raster.obj
 0006:00007cb0       _pshinter_module_class     00505d50     sdl_ttf:pshinter.obj
 0006:0000e7c4       _psnames_module_class      0050c864     sdl_ttf:psmodule.obj
 0006:0000e7e8       ??_C@_0L@NCLKPHNF@zukatakana?$AA@ 0050c888     sdl_ttf:psmodule.obj
 0006:0000e7f4       ??_C@_0L@JOPCAIJO@zuhiragana?$AA@ 0050c894     sdl_ttf:psmodule.obj
 0006:0000e800       ??_C@_07FGCBMHHG@zstroke?$AA@ 0050c8a0     sdl_ttf:psmodule.obj
 0006:0000e808       ??_C@_0P@GJALAPNP@zretroflexhook?$AA@ 0050c8a8     sdl_ttf:psmodule.obj
 0006:0000e818       ??_C@_06PBKPNLCN@zparen?$AA@ 0050c8b8     sdl_ttf:psmodule.obj
 0006:0000e820       ??_C@_0L@OCDGOGPE@zokatakana?$AA@ 0050c8c0     sdl_ttf:psmodule.obj
 0006:0000e82c       ??_C@_0L@KOHOBJLP@zohiragana?$AA@ 0050c8cc     sdl_ttf:psmodule.obj
 0006:0000e838       ??_C@_0L@DCEMOOAJ@zmonospace?$AA@ 0050c8d8     sdl_ttf:psmodule.obj
 0006:0000e844       ??_C@_0L@OJOKDLFF@zlinebelow?$AA@ 0050c8e4     sdl_ttf:psmodule.obj
 0006:0000e850       ??_C@_0M@CPIJCCEI@zinorhebrew?$AA@ 0050c8f0     sdl_ttf:psmodule.obj
 0006:0000e85c       ??_C@_0L@OPCIJGLD@zikatakana?$AA@ 0050c8fc     sdl_ttf:psmodule.obj
 0006:0000e868       ??_C@_0L@KDGAGJPI@zihiragana?$AA@ 0050c908     sdl_ttf:psmodule.obj
 0006:0000e874       ??_C@_0BE@EHHINAHL@zhedieresiscyrillic?$AA@ 0050c914     sdl_ttf:psmodule.obj
 0006:0000e888       ??_C@_0BF@NMAFEIEC@zhedescendercyrillic?$AA@ 0050c928     sdl_ttf:psmodule.obj
 0006:0000e8a0       ??_C@_0M@DBJHFKDK@zhecyrillic?$AA@ 0050c940     sdl_ttf:psmodule.obj
 0006:0000e8ac       ??_C@_0BB@NLMJIKGJ@zhebrevecyrillic?$AA@ 0050c94c     sdl_ttf:psmodule.obj
 0006:0000e8c0       ??_C@_0M@FCPMMOBB@zhearmenian?$AA@ 0050c960     sdl_ttf:psmodule.obj
 0006:0000e8cc       ??_C@_0L@IIIJOCCC@zhbopomofo?$AA@ 0050c96c     sdl_ttf:psmodule.obj
 0006:0000e8d8       ??_C@_04KJFJGNNH@zeta?$AA@ 0050c978     sdl_ttf:psmodule.obj
 0006:0000e8e0       ??_C@_0P@PKNEAIH@zerowidthspace?$AA@ 0050c980     sdl_ttf:psmodule.obj
 0006:0000e8f0       ??_C@_0BD@NLMGKICF@zerowidthnonjoiner?$AA@ 0050c990     sdl_ttf:psmodule.obj
 0006:0000e904       ??_C@_0BA@KMAGFKPI@zerowidthjoiner?$AA@ 0050c9a4     sdl_ttf:psmodule.obj
 0006:0000e914       ??_C@_08GJMPJIFC@zerothai?$AA@ 0050c9b4     sdl_ttf:psmodule.obj
 0006:0000e920       ??_C@_0M@GDLBOKBP@zeropersian?$AA@ 0050c9c0     sdl_ttf:psmodule.obj
 0006:0000e92c       ??_C@_0O@LECEFBFD@zeromonospace?$AA@ 0050c9cc     sdl_ttf:psmodule.obj
 0006:0000e93c       ??_C@_0P@KKLCNLMK@zerohackarabic?$AA@ 0050c9dc     sdl_ttf:psmodule.obj
 0006:0000e94c       ??_C@_0N@HKLCPHNM@zerogurmukhi?$AA@ 0050c9ec     sdl_ttf:psmodule.obj
 0006:0000e95c       ??_C@_0N@JBOAIDGO@zerogujarati?$AA@ 0050c9fc     sdl_ttf:psmodule.obj
 0006:0000e96c       ??_C@_08CKPFOIPA@zerodeva?$AA@ 0050ca0c     sdl_ttf:psmodule.obj
 0006:0000e978       ??_C@_0M@DOHGACJA@zerobengali?$AA@ 0050ca18     sdl_ttf:psmodule.obj
 0006:0000e984       ??_C@_0L@DPCFJADB@zeroarabic?$AA@ 0050ca24     sdl_ttf:psmodule.obj
 0006:0000e990       ??_C@_0L@PFBEHGDN@zekatakana?$AA@ 0050ca30     sdl_ttf:psmodule.obj
 0006:0000e99c       ??_C@_0L@LJFMIJHG@zehiragana?$AA@ 0050ca3c     sdl_ttf:psmodule.obj
 0006:0000e9a8       ??_C@_0BD@GNIEEEGE@zedieresiscyrillic?$AA@ 0050ca48     sdl_ttf:psmodule.obj
 0006:0000e9bc       ??_C@_0BE@FBCHLJCD@zedescendercyrillic?$AA@ 0050ca5c     sdl_ttf:psmodule.obj
 0006:0000e9d0       ??_C@_0L@BJCCDJCG@zecyrillic?$AA@ 0050ca70     sdl_ttf:psmodule.obj
 0006:0000e9dc       ??_C@_09KLJGGJKE@zdotbelow?$AA@ 0050ca7c     sdl_ttf:psmodule.obj
 0006:0000e9e8       ??_C@_0L@IDOIFLKA@zdotaccent?$AA@ 0050ca88     sdl_ttf:psmodule.obj
 0006:0000e9f4       ??_C@_04DGCDKADH@zdot?$AA@ 0050ca94     sdl_ttf:psmodule.obj
 0006:0000e9fc       ??_C@_05PIMKLFFN@zcurl?$AA@ 0050ca9c     sdl_ttf:psmodule.obj
 0006:0000ea04       ??_C@_0M@OKOABAOG@zcircumflex?$AA@ 0050caa4     sdl_ttf:psmodule.obj
 0006:0000ea10       ??_C@_07MBCOODMA@zcircle?$AA@ 0050cab0     sdl_ttf:psmodule.obj
 0006:0000ea18       ??_C@_09DPFCGABK@zbopomofo?$AA@ 0050cab8     sdl_ttf:psmodule.obj
 0006:0000ea24       ??_C@_0M@IDGAEHC@zayinhebrew?$AA@ 0050cac4     sdl_ttf:psmodule.obj
 0006:0000ea30       ??_C@_0BC@NDCHGGEP@zayindageshhebrew?$AA@ 0050cad0     sdl_ttf:psmodule.obj
 0006:0000ea44       ??_C@_0M@IENIBNBK@zayindagesh?$AA@ 0050cae4     sdl_ttf:psmodule.obj
 0006:0000ea50       ??_C@_05OKJJHHJG@zayin?$AA@ 0050caf0     sdl_ttf:psmodule.obj
 0006:0000ea58       ??_C@_0M@DOOOANEA@zarqahebrew?$AA@ 0050caf8     sdl_ttf:psmodule.obj
 0006:0000ea64       ??_C@_0BB@FNMGFGLJ@zaqefqatanhebrew?$AA@ 0050cb04     sdl_ttf:psmodule.obj
 0006:0000ea78       ??_C@_0BB@BDKKEDKC@zaqefgadolhebrew?$AA@ 0050cb18     sdl_ttf:psmodule.obj
 0006:0000ea8c       ??_C@_0L@PMPPNGEH@zakatakana?$AA@ 0050cb2c     sdl_ttf:psmodule.obj
 0006:0000ea98       ??_C@_0BA@KNMOLCLD@zainfinalarabic?$AA@ 0050cb38     sdl_ttf:psmodule.obj
 0006:0000eaa8       ??_C@_0L@NEPBOMHJ@zainarabic?$AA@ 0050cb48     sdl_ttf:psmodule.obj
 0006:0000eab4       ??_C@_0BA@NDNNLLIF@zahmedialarabic?$AA@ 0050cb54     sdl_ttf:psmodule.obj
 0006:0000eac4       ??_C@_0L@LALHCJAM@zahiragana?$AA@ 0050cb64     sdl_ttf:psmodule.obj
 0006:0000ead0       ??_C@_0BB@OBKGBGPJ@zahinitialarabic?$AA@ 0050cb70     sdl_ttf:psmodule.obj
 0006:0000eae4       ??_C@_0P@LEFJALGO@zahfinalarabic?$AA@ 0050cb84     sdl_ttf:psmodule.obj
 0006:0000eaf4       ??_C@_09OCIIOOBE@zaharabic?$AA@ 0050cb94     sdl_ttf:psmodule.obj
 0006:0000eb00       ??_C@_0L@IKBBNAPO@zagurmukhi?$AA@ 0050cba0     sdl_ttf:psmodule.obj
 0006:0000eb0c       ??_C@_06KFPDOLKD@zadeva?$AA@ 0050cbac     sdl_ttf:psmodule.obj
 0006:0000eb14       ??_C@_06CACCHBEG@zacute?$AA@ 0050cbb4     sdl_ttf:psmodule.obj
 0006:0000eb1c       ??_C@_0L@HDKCANHH@zaarmenian?$AA@ 0050cbbc     sdl_ttf:psmodule.obj
 0006:0000eb28       ??_C@_07NPEKHLJC@yyadeva?$AA@ 0050cbc8     sdl_ttf:psmodule.obj
 0006:0000eb30       ??_C@_0L@HEJHGKOP@yyabengali?$AA@ 0050cbd0     sdl_ttf:psmodule.obj
 0006:0000eb3c       ??_C@_0M@OKENFCNK@yuyeokorean?$AA@ 0050cbdc     sdl_ttf:psmodule.obj
 0006:0000eb48       ??_C@_0L@IIOOEBNI@yuyekorean?$AA@ 0050cbe8     sdl_ttf:psmodule.obj
 0006:0000eb54       ??_C@_0BJ@LICCJFGC@yusmallkatakanahalfwidth?$AA@ 0050cbf4     sdl_ttf:psmodule.obj
 0006:0000eb70       ??_C@_0BA@JDJOHMPP@yusmallkatakana?$AA@ 0050cc10     sdl_ttf:psmodule.obj
 0006:0000eb80       ??_C@_0BA@NPNGIDLE@yusmallhiragana?$AA@ 0050cc20     sdl_ttf:psmodule.obj
 0006:0000eb90       ??_C@_0BK@GGBANMJG@yuslittleiotifiedcyrillic?$AA@ 0050cc30     sdl_ttf:psmodule.obj
 0006:0000ebac       ??_C@_0BC@HMGDNAEJ@yuslittlecyrillic?$AA@ 0050cc4c     sdl_ttf:psmodule.obj
 0006:0000ebc0       ??_C@_0BH@PKHMNPJO@yusbigiotifiedcyrillic?$AA@ 0050cc60     sdl_ttf:psmodule.obj
 0006:0000ebd8       ??_C@_0P@ELCCALOM@yusbigcyrillic?$AA@ 0050cc78     sdl_ttf:psmodule.obj
 0006:0000ebe8       ??_C@_08OMNEPHBL@yukorean?$AA@ 0050cc88     sdl_ttf:psmodule.obj
 0006:0000ebf4       ??_C@_0BE@PBPDINFP@yukatakanahalfwidth?$AA@ 0050cc94     sdl_ttf:psmodule.obj
 0006:0000ec08       ??_C@_0L@ELFIJBNE@yukatakana?$AA@ 0050cca8     sdl_ttf:psmodule.obj
 0006:0000ec14       ??_C@_09COCLPCOB@yuikorean?$AA@ 0050ccb4     sdl_ttf:psmodule.obj
 0006:0000ec20       ??_C@_0L@HBAGOJP@yuhiragana?$AA@ 0050ccc0     sdl_ttf:psmodule.obj
 0006:0000ec2c       ??_C@_07HNGMFGJA@yturned?$AA@ 0050cccc     sdl_ttf:psmodule.obj
 0006:0000ec34       ??_C@_06DJFGFLDH@ytilde?$AA@ 0050ccd4     sdl_ttf:psmodule.obj
 0006:0000ec3c       ??_C@_09BEFIILLC@ysuperior?$AA@ 0050ccdc     sdl_ttf:psmodule.obj
 0006:0000ec48       ??_C@_05MPNJBCDJ@yring?$AA@ 0050cce8     sdl_ttf:psmodule.obj
 0006:0000ec50       ??_C@_02EGJHGOEG@yr?$AA@   0050ccf0     sdl_ttf:psmodule.obj
 0006:0000ec54       ??_C@_0BG@NBBGJCJF@ypogegrammenigreekcmb?$AA@ 0050ccf4     sdl_ttf:psmodule.obj
 0006:0000ec6c       ??_C@_0O@BAJOKKBD@ypogegrammeni?$AA@ 0050cd0c     sdl_ttf:psmodule.obj
 0006:0000ec7c       ??_C@_06MAEHMBLA@yparen?$AA@ 0050cd1c     sdl_ttf:psmodule.obj
 0006:0000ec84       ??_C@_0L@GDMNFDMG@yoyingthai?$AA@ 0050cd24     sdl_ttf:psmodule.obj
 0006:0000ec90       ??_C@_09GGPEKNMH@yoyakthai?$AA@ 0050cd30     sdl_ttf:psmodule.obj
 0006:0000ec9c       ??_C@_0L@DMCIFOAD@yoyakorean?$AA@ 0050cd3c     sdl_ttf:psmodule.obj
 0006:0000eca8       ??_C@_0M@GKDIIDFB@yoyaekorean?$AA@ 0050cd48     sdl_ttf:psmodule.obj
 0006:0000ecb4       ??_C@_08GBEOICL@yotgreek?$AA@ 0050cd54     sdl_ttf:psmodule.obj
 0006:0000ecc0       ??_C@_0BJ@MMHPBKOO@yosmallkatakanahalfwidth?$AA@ 0050cd60     sdl_ttf:psmodule.obj
 0006:0000ecdc       ??_C@_0BA@LAPDJOKG@yosmallkatakana?$AA@ 0050cd7c     sdl_ttf:psmodule.obj
 0006:0000ecec       ??_C@_0BA@PMLLGBON@yosmallhiragana?$AA@ 0050cd8c     sdl_ttf:psmodule.obj
 0006:0000ecfc       ??_C@_08BKPNKPI@yokorean?$AA@ 0050cd9c     sdl_ttf:psmodule.obj
 0006:0000ed08       ??_C@_0BE@JPKEKNCB@yokatakanahalfwidth?$AA@ 0050cda8     sdl_ttf:psmodule.obj
 0006:0000ed1c       ??_C@_0L@HLNEIAPF@yokatakana?$AA@ 0050cdbc     sdl_ttf:psmodule.obj
 0006:0000ed28       ??_C@_09BHMFDKAO@yoikorean?$AA@ 0050cdc8     sdl_ttf:psmodule.obj
 0006:0000ed34       ??_C@_0L@DHJMHPLO@yohiragana?$AA@ 0050cdd4     sdl_ttf:psmodule.obj
 0006:0000ed40       ??_C@_0BC@HLNHKKLE@yodyodpatahhebrew?$AA@ 0050cde0     sdl_ttf:psmodule.obj
 0006:0000ed54       ??_C@_0N@EGMAKBBP@yodyodhebrew?$AA@ 0050cdf4     sdl_ttf:psmodule.obj
 0006:0000ed64       ??_C@_09CNJEOPEE@yodhebrew?$AA@ 0050ce04     sdl_ttf:psmodule.obj
 0006:0000ed70       ??_C@_0BA@IHOECBLE@yoddageshhebrew?$AA@ 0050ce10     sdl_ttf:psmodule.obj
 0006:0000ed80       ??_C@_09KBHKPGCM@yoddagesh?$AA@ 0050ce20     sdl_ttf:psmodule.obj
 0006:0000ed8c       ??_C@_03IKJGONEL@yod?$AA@  0050ce2c     sdl_ttf:psmodule.obj
 0006:0000ed90       ??_C@_0L@KLKOIIAI@ymonospace?$AA@ 0050ce30     sdl_ttf:psmodule.obj
 0006:0000ed9c       ??_C@_0N@KFFEMMGG@yiwnarmenian?$AA@ 0050ce3c     sdl_ttf:psmodule.obj
 0006:0000edac       ??_C@_07BKLPMEKD@yinyang?$AA@ 0050ce4c     sdl_ttf:psmodule.obj
 0006:0000edb4       ??_C@_08MHMANDHP@yikorean?$AA@ 0050ce54     sdl_ttf:psmodule.obj
 0006:0000edc0       ??_C@_0L@JKPMLPKJ@yicyrillic?$AA@ 0050ce60     sdl_ttf:psmodule.obj
 0006:0000edcc       ??_C@_0L@PJJHCLIC@yiarmenian?$AA@ 0050ce6c     sdl_ttf:psmodule.obj
 0006:0000edd8       ??_C@_0L@NLGOBGBL@yhookabove?$AA@ 0050ce78     sdl_ttf:psmodule.obj
 0006:0000ede4       ??_C@_05GNJFOHPN@yhook?$AA@ 0050ce84     sdl_ttf:psmodule.obj
 0006:0000edec       ??_C@_06EGOMCCFC@ygrave?$AA@ 0050ce8c     sdl_ttf:psmodule.obj
 0006:0000edf4       ??_C@_0M@JFNBAECO@yetivhebrew?$AA@ 0050ce94     sdl_ttf:psmodule.obj
 0006:0000ee00       ??_C@_0BD@ECFAPFDF@yesieungsioskorean?$AA@ 0050cea0     sdl_ttf:psmodule.obj
 0006:0000ee14       ??_C@_0BG@CECOIJOO@yesieungpansioskorean?$AA@ 0050ceb4     sdl_ttf:psmodule.obj
 0006:0000ee2c       ??_C@_0P@NAEHOHEO@yesieungkorean?$AA@ 0050cecc     sdl_ttf:psmodule.obj
 0006:0000ee3c       ??_C@_0BF@EHOBNJDC@yerudieresiscyrillic?$AA@ 0050cedc     sdl_ttf:psmodule.obj
 0006:0000ee54       ??_C@_0N@FALOKCPH@yericyrillic?$AA@ 0050cef4     sdl_ttf:psmodule.obj
 0006:0000ee64       ??_C@_0BH@LOJLNGCP@yerahbenyomolefthebrew?$AA@ 0050cf04     sdl_ttf:psmodule.obj
 0006:0000ee7c       ??_C@_0BD@HIPDCEBB@yerahbenyomohebrew?$AA@ 0050cf1c     sdl_ttf:psmodule.obj
 0006:0000ee90       ??_C@_0BC@CHIKJGEJ@yeorinhieuhkorean?$AA@ 0050cf30     sdl_ttf:psmodule.obj
 0006:0000eea4       ??_C@_09EEIELJBH@yeokorean?$AA@ 0050cf44     sdl_ttf:psmodule.obj
 0006:0000eeb0       ??_C@_0N@MFAAMDFK@yenmonospace?$AA@ 0050cf50     sdl_ttf:psmodule.obj
 0006:0000eec0       ??_C@_08JAGPMGDA@yekorean?$AA@ 0050cf60     sdl_ttf:psmodule.obj
 0006:0000eecc       ??_C@_0BI@JMMLOANM@yehthreedotsbelowarabic?$AA@ 0050cf6c     sdl_ttf:psmodule.obj
 0006:0000eee4       ??_C@_0BD@IMJDJMJP@yehnoonfinalarabic?$AA@ 0050cf84     sdl_ttf:psmodule.obj
 0006:0000eef8       ??_C@_0BG@HLCMEHLE@yehmeemisolatedarabic?$AA@ 0050cf98     sdl_ttf:psmodule.obj
 0006:0000ef10       ??_C@_0BF@LPAOCKEG@yehmeeminitialarabic?$AA@ 0050cfb0     sdl_ttf:psmodule.obj
 0006:0000ef28       ??_C@_0BA@HAGJGKBE@yehmedialarabic?$AA@ 0050cfc8     sdl_ttf:psmodule.obj
 0006:0000ef38       ??_C@_0BB@GGANABPK@yehinitialarabic?$AA@ 0050cfd8     sdl_ttf:psmodule.obj
 0006:0000ef4c       ??_C@_0BK@HKFIEACO@yehhamzaabovemedialarabic?$AA@ 0050cfec     sdl_ttf:psmodule.obj
 0006:0000ef68       ??_C@_0BL@KAALOJGC@yehhamzaaboveinitialarabic?$AA@ 0050d008     sdl_ttf:psmodule.obj
 0006:0000ef84       ??_C@_0BJ@INAMPDIC@yehhamzaabovefinalarabic?$AA@ 0050d024     sdl_ttf:psmodule.obj
 0006:0000efa0       ??_C@_0BE@OCIIPMMO@yehhamzaabovearabic?$AA@ 0050d040     sdl_ttf:psmodule.obj
 0006:0000efb4       ??_C@_0P@LMIIOOAM@yehfinalarabic?$AA@ 0050d054     sdl_ttf:psmodule.obj
 0006:0000efc4       ??_C@_0BF@JFLBAJC@yehbarreefinalarabic?$AA@ 0050d064     sdl_ttf:psmodule.obj
 0006:0000efdc       ??_C@_0BA@IPLBLKOO@yehbarreearabic?$AA@ 0050d07c     sdl_ttf:psmodule.obj
 0006:0000efec       ??_C@_09FEFDAEBL@yeharabic?$AA@ 0050d08c     sdl_ttf:psmodule.obj
 0006:0000eff8       ??_C@_09EAKBNCKH@ydotbelow?$AA@ 0050d098     sdl_ttf:psmodule.obj
 0006:0000f004       ??_C@_0L@BKAKDNKB@ydotaccent?$AA@ 0050d0a4     sdl_ttf:psmodule.obj
 0006:0000f010       ??_C@_0M@JNHOMCBG@ycircumflex?$AA@ 0050d0b0     sdl_ttf:psmodule.obj
 0006:0000f01c       ??_C@_07EPKBOECD@ycircle?$AA@ 0050d0bc     sdl_ttf:psmodule.obj
 0006:0000f024       ??_C@_0M@PFCIFMJJ@yatcyrillic?$AA@ 0050d0c4     sdl_ttf:psmodule.obj
 0006:0000f030       ??_C@_0BJ@KOEPHEAA@yasmallkatakanahalfwidth?$AA@ 0050d0d0     sdl_ttf:psmodule.obj
 0006:0000f04c       ??_C@_0BA@FNIAIGND@yasmallkatakana?$AA@ 0050d0ec     sdl_ttf:psmodule.obj
 0006:0000f05c       ??_C@_0BA@BBMIHJJI@yasmallhiragana?$AA@ 0050d0fc     sdl_ttf:psmodule.obj
 0006:0000f06c       ??_C@_0N@JIBKDJPC@yamakkanthai?$AA@ 0050d10c     sdl_ttf:psmodule.obj
 0006:0000f07c       ??_C@_08BECFMIMK@yakorean?$AA@ 0050d11c     sdl_ttf:psmodule.obj
 0006:0000f088       ??_C@_0BE@LNJLLLH@yakatakanahalfwidth?$AA@ 0050d128     sdl_ttf:psmodule.obj
 0006:0000f09c       ??_C@_0L@GFBNLAEG@yakatakana?$AA@ 0050d13c     sdl_ttf:psmodule.obj
 0006:0000f0a8       ??_C@_0L@CJFFEPAN@yahiragana?$AA@ 0050d148     sdl_ttf:psmodule.obj
 0006:0000f0b4       ??_C@_0L@BDPDLGPP@yagurmukhi?$AA@ 0050d154     sdl_ttf:psmodule.obj
 0006:0000f0c0       ??_C@_0L@PIKBMCEN@yagujarati?$AA@ 0050d160     sdl_ttf:psmodule.obj
 0006:0000f0cc       ??_C@_09IIKIPEND@yaekorean?$AA@ 0050d16c     sdl_ttf:psmodule.obj
 0006:0000f0d8       ??_C@_06JEBLPBDO@yadeva?$AA@ 0050d178     sdl_ttf:psmodule.obj
 0006:0000f0e0       ??_C@_09HJPFNPAD@yabengali?$AA@ 0050d180     sdl_ttf:psmodule.obj
 0006:0000f0ec       ??_C@_0M@HKFLAOCL@yaadosquare?$AA@ 0050d18c     sdl_ttf:psmodule.obj
 0006:0000f0f8       ??_C@_09PLJKOAIM@xsuperior?$AA@ 0050d198     sdl_ttf:psmodule.obj
 0006:0000f104       ??_C@_06GGDAMKAE@xparen?$AA@ 0050d1a4     sdl_ttf:psmodule.obj
 0006:0000f10c       ??_C@_0L@GKCAFHMI@xmonospace?$AA@ 0050d1ac     sdl_ttf:psmodule.obj
 0006:0000f118       ??_C@_02OOGDMPOL@xi?$AA@   0050d1b8     sdl_ttf:psmodule.obj
 0006:0000f11c       ??_C@_0M@IAKNJGDJ@xeharmenian?$AA@ 0050d1bc     sdl_ttf:psmodule.obj
 0006:0000f128       ??_C@_0L@NLIEOCGB@xdotaccent?$AA@ 0050d1c8     sdl_ttf:psmodule.obj
 0006:0000f134       ??_C@_09MDOINLIA@xdieresis?$AA@ 0050d1d4     sdl_ttf:psmodule.obj
 0006:0000f140       ??_C@_07IDALOELN@xcircle?$AA@ 0050d1e0     sdl_ttf:psmodule.obj
 0006:0000f148       ??_C@_09DLKHLACH@xbopomofo?$AA@ 0050d1e8     sdl_ttf:psmodule.obj
 0006:0000f154       ??_C@_09OPDNEDJC@xabovecmb?$AA@ 0050d1f4     sdl_ttf:psmodule.obj
 0006:0000f160       ??_C@_04NNCPHLCI@wynn?$AA@ 0050d200     sdl_ttf:psmodule.obj
 0006:0000f168       ??_C@_07GIOGEEKC@wturned?$AA@ 0050d208     sdl_ttf:psmodule.obj
 0006:0000f170       ??_C@_09KJBLLAB@wsuperior?$AA@ 0050d210     sdl_ttf:psmodule.obj
 0006:0000f17c       ??_C@_05PFNDHDEJ@wring?$AA@ 0050d21c     sdl_ttf:psmodule.obj
 0006:0000f184       ??_C@_06JAHILKON@wparen?$AA@ 0050d224     sdl_ttf:psmodule.obj
 0006:0000f18c       ??_C@_0L@PJELNNF@wowaenthai?$AA@ 0050d22c     sdl_ttf:psmodule.obj
 0006:0000f198       ??_C@_0N@NFNBCHIL@wonmonospace?$AA@ 0050d238     sdl_ttf:psmodule.obj
 0006:0000f1a8       ??_C@_03JAKGHCPC@won?$AA@  0050d248     sdl_ttf:psmodule.obj
 0006:0000f1ac       ??_C@_0BE@IGFMOGEG@wokatakanahalfwidth?$AA@ 0050d24c     sdl_ttf:psmodule.obj
 0006:0000f1c0       ??_C@_0L@CJKCKLPD@wokatakana?$AA@ 0050d260     sdl_ttf:psmodule.obj
 0006:0000f1cc       ??_C@_0L@GFOKFELI@wohiragana?$AA@ 0050d26c     sdl_ttf:psmodule.obj
 0006:0000f1d8       ??_C@_0L@PJNIKDAO@wmonospace?$AA@ 0050d278     sdl_ttf:psmodule.obj
 0006:0000f1e4       ??_C@_08PACAION@wikorean?$AA@ 0050d284     sdl_ttf:psmodule.obj
 0006:0000f1f0       ??_C@_0L@CELMNLLE@wikatakana?$AA@ 0050d290     sdl_ttf:psmodule.obj
 0006:0000f1fc       ??_C@_0L@GIPECEPP@wihiragana?$AA@ 0050d29c     sdl_ttf:psmodule.obj
 0006:0000f208       ??_C@_0BI@IJMPAODC@whiteuppointingtriangle?$AA@ 0050d2a8     sdl_ttf:psmodule.obj
 0006:0000f220       ??_C@_0BN@FFJLBMFH@whiteuppointingsmalltriangle?$AA@ 0050d2c0     sdl_ttf:psmodule.obj
 0006:0000f240       ??_C@_0BP@PFGMINHC@whitetortoiseshellbracketright?$AA@ 0050d2e0     sdl_ttf:psmodule.obj
 0006:0000f260       ??_C@_0BO@EGJCDBED@whitetortoiseshellbracketleft?$AA@ 0050d300     sdl_ttf:psmodule.obj
 0006:0000f280       ??_C@_0P@KJCGHAJJ@whitetelephone?$AA@ 0050d320     sdl_ttf:psmodule.obj
 0006:0000f290       ??_C@_09GONCOMCC@whitestar?$AA@ 0050d330     sdl_ttf:psmodule.obj
 0006:0000f29c       ??_C@_0M@MGPAPNPN@whitesquare?$AA@ 0050d33c     sdl_ttf:psmodule.obj
 0006:0000f2a8       ??_C@_0BB@HFCJDHMG@whitesmilingface?$AA@ 0050d348     sdl_ttf:psmodule.obj
 0006:0000f2bc       ??_C@_0BB@MHDMEBML@whitesmallsquare?$AA@ 0050d35c     sdl_ttf:psmodule.obj
 0006:0000f2d0       ??_C@_0BL@NCEEFMDH@whiterightpointingtriangle?$AA@ 0050d370     sdl_ttf:psmodule.obj
 0006:0000f2ec       ??_C@_0CA@EIFACEPA@whiterightpointingsmalltriangle?$AA@ 0050d38c     sdl_ttf:psmodule.obj
 0006:0000f30c       ??_C@_0BM@NFOOAPBC@whitelenticularbracketright?$AA@ 0050d3ac     sdl_ttf:psmodule.obj
 0006:0000f328       ??_C@_0BL@KLJFOCDG@whitelenticularbracketleft?$AA@ 0050d3c8     sdl_ttf:psmodule.obj
 0006:0000f344       ??_C@_0BK@LHPAHKGL@whiteleftpointingtriangle?$AA@ 0050d3e4     sdl_ttf:psmodule.obj
 0006:0000f360       ??_C@_0BP@OKDHDPPG@whiteleftpointingsmalltriangle?$AA@ 0050d400     sdl_ttf:psmodule.obj
 0006:0000f380       ??_C@_0BK@DNJBPBOG@whitedownpointingtriangle?$AA@ 0050d420     sdl_ttf:psmodule.obj
 0006:0000f39c       ??_C@_0BP@BBGAKLDJ@whitedownpointingsmalltriangle?$AA@ 0050d43c     sdl_ttf:psmodule.obj
 0006:0000f3bc       ??_C@_0CI@KKFDMFBD@whitediamondcontainingblacksmall@ 0050d45c     sdl_ttf:psmodule.obj
 0006:0000f3e4       ??_C@_0N@BDIFPHEL@whitediamond?$AA@ 0050d484     sdl_ttf:psmodule.obj
 0006:0000f3f4       ??_C@_0CA@NEINMHBN@whitecornerbracketrightvertical?$AA@ 0050d494     sdl_ttf:psmodule.obj
 0006:0000f414       ??_C@_0BI@DPKMMIJE@whitecornerbracketright?$AA@ 0050d4b4     sdl_ttf:psmodule.obj
 0006:0000f42c       ??_C@_0BP@CMABMNDK@whitecornerbracketleftvertical?$AA@ 0050d4cc     sdl_ttf:psmodule.obj
 0006:0000f44c       ??_C@_0BH@DMBFFNLC@whitecornerbracketleft?$AA@ 0050d4ec     sdl_ttf:psmodule.obj
 0006:0000f464       ??_C@_0BD@DNBNKDKC@whitecircleinverse?$AA@ 0050d504     sdl_ttf:psmodule.obj
 0006:0000f478       ??_C@_0M@EADKHLCE@whitecircle?$AA@ 0050d518     sdl_ttf:psmodule.obj
 0006:0000f484       ??_C@_0M@EJOCJDFK@whitebullet?$AA@ 0050d524     sdl_ttf:psmodule.obj
 0006:0000f490       ??_C@_06BGNDFJAP@wgrave?$AA@ 0050d530     sdl_ttf:psmodule.obj
 0006:0000f498       ??_C@_09FKENIJKE@weokorean?$AA@ 0050d538     sdl_ttf:psmodule.obj
 0006:0000f4a4       ??_C@_08FIKNBNKC@wekorean?$AA@ 0050d544     sdl_ttf:psmodule.obj
 0006:0000f4b0       ??_C@_0L@DOIADLDK@wekatakana?$AA@ 0050d550     sdl_ttf:psmodule.obj
 0006:0000f4bc       ??_C@_0M@DPBGEMLJ@weierstrass?$AA@ 0050d55c     sdl_ttf:psmodule.obj
 0006:0000f4c8       ??_C@_0L@HCMIMEHB@wehiragana?$AA@ 0050d568     sdl_ttf:psmodule.obj
 0006:0000f4d4       ??_C@_09FOGIOCBE@wdotbelow?$AA@ 0050d574     sdl_ttf:psmodule.obj
 0006:0000f4e0       ??_C@_0L@EIHMBGKH@wdotaccent?$AA@ 0050d580     sdl_ttf:psmodule.obj
 0006:0000f4ec       ??_C@_09DCODIAAN@wdieresis?$AA@ 0050d58c     sdl_ttf:psmodule.obj
 0006:0000f4f8       ??_C@_0M@HEEPBBAI@wcircumflex?$AA@ 0050d598     sdl_ttf:psmodule.obj
 0006:0000f504       ??_C@_07FKCLPGBB@wcircle?$AA@ 0050d5a4     sdl_ttf:psmodule.obj
 0006:0000f50c       ??_C@_08PPFDCKFM@wbsquare?$AA@ 0050d5ac     sdl_ttf:psmodule.obj
 0006:0000f518       ??_C@_0BJ@NEKIMPAI@wawhamzaabovefinalarabic?$AA@ 0050d5b8     sdl_ttf:psmodule.obj
 0006:0000f534       ??_C@_0BE@MKMEECDL@wawhamzaabovearabic?$AA@ 0050d5d4     sdl_ttf:psmodule.obj
 0006:0000f548       ??_C@_0P@NLCAAKIN@wawfinalarabic?$AA@ 0050d5e8     sdl_ttf:psmodule.obj
 0006:0000f558       ??_C@_09LCONEGCD@wawarabic?$AA@ 0050d5f8     sdl_ttf:psmodule.obj
 0006:0000f564       ??_C@_0BH@DHCKNEIL@wavyunderscorevertical?$AA@ 0050d604     sdl_ttf:psmodule.obj
 0006:0000f57c       ??_C@_08FCEPOINN@wavedash?$AA@ 0050d61c     sdl_ttf:psmodule.obj
 0006:0000f588       ??_C@_0M@POCNNFOI@wattosquare?$AA@ 0050d628     sdl_ttf:psmodule.obj
 0006:0000f594       ??_C@_0BA@HNACHAHI@wasmallkatakana?$AA@ 0050d634     sdl_ttf:psmodule.obj
 0006:0000f5a4       ??_C@_0BA@DBEKIPDD@wasmallhiragana?$AA@ 0050d644     sdl_ttf:psmodule.obj
 0006:0000f5b4       ??_C@_08NMOHBDFI@wakorean?$AA@ 0050d654     sdl_ttf:psmodule.obj
 0006:0000f5c0       ??_C@_0BE@BCCBPANA@wakatakanahalfwidth?$AA@ 0050d660     sdl_ttf:psmodule.obj
 0006:0000f5d4       ??_C@_0L@DHGLJLEA@wakatakana?$AA@ 0050d674     sdl_ttf:psmodule.obj
 0006:0000f5e0       ??_C@_0L@HLCDGEAL@wahiragana?$AA@ 0050d680     sdl_ttf:psmodule.obj
 0006:0000f5ec       ??_C@_09JGGBMEGA@waekorean?$AA@ 0050d68c     sdl_ttf:psmodule.obj
 0006:0000f5f8       ??_C@_06EBPFBAIG@wacute?$AA@ 0050d698     sdl_ttf:psmodule.obj
 0006:0000f600       ??_C@_0L@NIKAGFBC@vukatakana?$AA@ 0050d6a0     sdl_ttf:psmodule.obj
 0006:0000f60c       ??_C@_0L@JEOIJKFJ@vuhiragana?$AA@ 0050d6ac     sdl_ttf:psmodule.obj
 0006:0000f618       ??_C@_07KEEMEEDM@vturned?$AA@ 0050d6b8     sdl_ttf:psmodule.obj
 0006:0000f620       ??_C@_06MPBOCLNO@vtilde?$AA@ 0050d6c0     sdl_ttf:psmodule.obj
 0006:0000f628       ??_C@_06DGAPLBFJ@vparen?$AA@ 0050d6c8     sdl_ttf:psmodule.obj
 0006:0000f630       ??_C@_0L@OICMHEDD@vokatakana?$AA@ 0050d6d0     sdl_ttf:psmodule.obj
 0006:0000f63c       ??_C@_0BI@CKLKHJF@voicedmarkkanahalfwidth?$AA@ 0050d6dc     sdl_ttf:psmodule.obj
 0006:0000f654       ??_C@_0P@CJIKLBM@voicedmarkkana?$AA@ 0050d6f4     sdl_ttf:psmodule.obj
 0006:0000f664       ??_C@_0BI@DFFFPLKG@voicediterationkatakana?$AA@ 0050d704     sdl_ttf:psmodule.obj
 0006:0000f67c       ??_C@_0BI@HJBNAEON@voicediterationhiragana?$AA@ 0050d71c     sdl_ttf:psmodule.obj
 0006:0000f694       ??_C@_0L@GHHBKPAD@voarmenian?$AA@ 0050d734     sdl_ttf:psmodule.obj
 0006:0000f6a0       ??_C@_0L@DIFGHMMO@vmonospace?$AA@ 0050d740     sdl_ttf:psmodule.obj
 0006:0000f6ac       ??_C@_0BA@LGLMNFGG@visargagujarati?$AA@ 0050d74c     sdl_ttf:psmodule.obj
 0006:0000f6bc       ??_C@_0M@BNLOLOIE@visargadeva?$AA@ 0050d75c     sdl_ttf:psmodule.obj
 0006:0000f6c8       ??_C@_0P@GAGBKAOB@visargabengali?$AA@ 0050d768     sdl_ttf:psmodule.obj
 0006:0000f6d8       ??_C@_0P@DFKIFAJA@viramagujarati?$AA@ 0050d778     sdl_ttf:psmodule.obj
 0006:0000f6e8       ??_C@_0L@IBANLAN@viramadeva?$AA@ 0050d788     sdl_ttf:psmodule.obj
 0006:0000f6f4       ??_C@_0O@KHGBJBPG@viramabengali?$AA@ 0050d794     sdl_ttf:psmodule.obj
 0006:0000f704       ??_C@_0L@OFDCAEHE@vikatakana?$AA@ 0050d7a4     sdl_ttf:psmodule.obj
 0006:0000f710       ??_C@_05JMMDFFCI@vhook?$AA@ 0050d7b0     sdl_ttf:psmodule.obj
 0006:0000f718       ??_C@_0M@LPDJJPEC@vewarmenian?$AA@ 0050d7b8     sdl_ttf:psmodule.obj
 0006:0000f724       ??_C@_0BA@BGOJGICO@verticallinemod?$AA@ 0050d7c4     sdl_ttf:psmodule.obj
 0006:0000f734       ??_C@_0BD@EMEADLAJ@verticallinelowmod?$AA@ 0050d7d4     sdl_ttf:psmodule.obj
 0006:0000f748       ??_C@_0BF@MLFJAFOE@verticallinebelowcmb?$AA@ 0050d7e8     sdl_ttf:psmodule.obj
 0006:0000f760       ??_C@_0BF@PHAALNBE@verticallineabovecmb?$AA@ 0050d800     sdl_ttf:psmodule.obj
 0006:0000f778       ??_C@_0M@BOIOMODC@verticalbar?$AA@ 0050d818     sdl_ttf:psmodule.obj
 0006:0000f784       ??_C@_05EPEFEIAD@venus?$AA@ 0050d824     sdl_ttf:psmodule.obj
 0006:0000f78c       ??_C@_0L@PPAOOEPK@vekatakana?$AA@ 0050d82c     sdl_ttf:psmodule.obj
 0006:0000f798       ??_C@_0BA@POIDANCO@vehmedialarabic?$AA@ 0050d838     sdl_ttf:psmodule.obj
 0006:0000f7a8       ??_C@_0BB@KAIPDCCP@vehinitialarabic?$AA@ 0050d848     sdl_ttf:psmodule.obj
 0006:0000f7bc       ??_C@_0P@OIAACNJB@vehfinalarabic?$AA@ 0050d85c     sdl_ttf:psmodule.obj
 0006:0000f7cc       ??_C@_09KFFIFPJG@veharabic?$AA@ 0050d86c     sdl_ttf:psmodule.obj
 0006:0000f7d8       ??_C@_0L@BDDIKLOB@vecyrillic?$AA@ 0050d878     sdl_ttf:psmodule.obj
 0006:0000f7e4       ??_C@_09LBKKIJCK@vdotbelow?$AA@ 0050d884     sdl_ttf:psmodule.obj
 0006:0000f7f0       ??_C@_07JGIBPGIP@vcircle?$AA@ 0050d890     sdl_ttf:psmodule.obj
 0006:0000f7f8       ??_C@_0N@HOBLNKDO@vavyodhebrew?$AA@ 0050d898     sdl_ttf:psmodule.obj
 0006:0000f808       ??_C@_0N@HJEMGMHH@vavvavhebrew?$AA@ 0050d8a8     sdl_ttf:psmodule.obj
 0006:0000f818       ??_C@_0P@MNNALFJA@vavholamhebrew?$AA@ 0050d8b8     sdl_ttf:psmodule.obj
 0006:0000f828       ??_C@_08BOMFIFNH@vavholam?$AA@ 0050d8c8     sdl_ttf:psmodule.obj
 0006:0000f834       ??_C@_09CKMDFJAN@vavhebrew?$AA@ 0050d8d4     sdl_ttf:psmodule.obj
 0006:0000f840       ??_C@_0BA@GDKBKGDK@vavdageshhebrew?$AA@ 0050d8e0     sdl_ttf:psmodule.obj
 0006:0000f850       ??_C@_0M@OMIBCDML@vavdagesh65?$AA@ 0050d8f0     sdl_ttf:psmodule.obj
 0006:0000f85c       ??_C@_09KGCNEAGF@vavdagesh?$AA@ 0050d8fc     sdl_ttf:psmodule.obj
 0006:0000f868       ??_C@_03KAJPKAME@vav?$AA@  0050d908     sdl_ttf:psmodule.obj
 0006:0000f86c       ??_C@_0L@PGOFEEIA@vakatakana?$AA@ 0050d90c     sdl_ttf:psmodule.obj
 0006:0000f878       ??_C@_0L@IAALECDJ@vagurmukhi?$AA@ 0050d918     sdl_ttf:psmodule.obj
 0006:0000f884       ??_C@_0L@GLFJDGIL@vagujarati?$AA@ 0050d924     sdl_ttf:psmodule.obj
 0006:0000f890       ??_C@_06GCFDIBNH@vadeva?$AA@ 0050d930     sdl_ttf:psmodule.obj
 0006:0000f898       ??_C@_0BD@DHFJIGMH@uvowelsigngujarati?$AA@ 0050d938     sdl_ttf:psmodule.obj
 0006:0000f8ac       ??_C@_0P@KKOGBJCB@uvowelsigndeva?$AA@ 0050d94c     sdl_ttf:psmodule.obj
 0006:0000f8bc       ??_C@_0BC@DLCEMMDF@uvowelsignbengali?$AA@ 0050d95c     sdl_ttf:psmodule.obj
 0006:0000f8d0       ??_C@_0BE@GMMFPAC@uuvowelsigngujarati?$AA@ 0050d970     sdl_ttf:psmodule.obj
 0006:0000f8e4       ??_C@_0BA@DELBDPJM@uuvowelsigndeva?$AA@ 0050d984     sdl_ttf:psmodule.obj
 0006:0000f8f4       ??_C@_0BD@MAHDOGJL@uuvowelsignbengali?$AA@ 0050d994     sdl_ttf:psmodule.obj
 0006:0000f908       ??_C@_0BA@OIAEIHAI@uumatragurmukhi?$AA@ 0050d9a8     sdl_ttf:psmodule.obj
 0006:0000f918       ??_C@_0L@DHKMAFKK@uugurmukhi?$AA@ 0050d9b8     sdl_ttf:psmodule.obj
 0006:0000f924       ??_C@_0L@NMPOHBBI@uugujarati?$AA@ 0050d9c4     sdl_ttf:psmodule.obj
 0006:0000f930       ??_C@_06MLPMNLMH@uudeva?$AA@ 0050d9d0     sdl_ttf:psmodule.obj
 0006:0000f938       ??_C@_09JCOFCMPA@uubengali?$AA@ 0050d9d8     sdl_ttf:psmodule.obj
 0006:0000f944       ??_C@_0M@CKFJADPH@utildebelow?$AA@ 0050d9e4     sdl_ttf:psmodule.obj
 0006:0000f950       ??_C@_0M@GGBLKAKO@utildeacute?$AA@ 0050d9f0     sdl_ttf:psmodule.obj
 0006:0000f95c       ??_C@_06POPGDBED@utilde?$AA@ 0050d9fc     sdl_ttf:psmodule.obj
 0006:0000f964       ??_C@_0BI@PJAPDPPC@ustraightstrokecyrillic?$AA@ 0050da04     sdl_ttf:psmodule.obj
 0006:0000f97c       ??_C@_0BC@FAAHBPMO@ustraightcyrillic?$AA@ 0050da1c     sdl_ttf:psmodule.obj
 0006:0000f990       ??_C@_0BI@CILIKADP@usmallkatakanahalfwidth?$AA@ 0050da30     sdl_ttf:psmodule.obj
 0006:0000f9a8       ??_C@_0P@KKOLIJIK@usmallkatakana?$AA@ 0050da48     sdl_ttf:psmodule.obj
 0006:0000f9b8       ??_C@_0P@OGKDHGMB@usmallhiragana?$AA@ 0050da58     sdl_ttf:psmodule.obj
 0006:0000f9c8       ??_C@_0P@HKDKIIEN@ushortcyrillic?$AA@ 0050da68     sdl_ttf:psmodule.obj
 0006:0000f9d8       ??_C@_05LIBLNCEC@uring?$AA@ 0050da78     sdl_ttf:psmodule.obj
 0006:0000f9e0       ??_C@_0M@JMGJLANM@uragurmukhi?$AA@ 0050da80     sdl_ttf:psmodule.obj
 0006:0000f9ec       ??_C@_09BCLJPEHD@uptackmod?$AA@ 0050da8c     sdl_ttf:psmodule.obj
 0006:0000f9f8       ??_C@_0P@PEJMLLDG@uptackbelowcmb?$AA@ 0050da98     sdl_ttf:psmodule.obj
 0006:0000fa08       ??_C@_0N@EGIMJCBK@upsilontonos?$AA@ 0050daa8     sdl_ttf:psmodule.obj
 0006:0000fa18       ??_C@_0N@NCHMALNI@upsilonlatin?$AA@ 0050dab8     sdl_ttf:psmodule.obj
 0006:0000fa28       ??_C@_0BF@BPEBALAF@upsilondieresistonos?$AA@ 0050dac8     sdl_ttf:psmodule.obj
 0006:0000fa40       ??_C@_0BA@LEBGLIPA@upsilondieresis?$AA@ 0050dae0     sdl_ttf:psmodule.obj
 0006:0000fa50       ??_C@_07ECJEIHJF@upsilon?$AA@ 0050daf0     sdl_ttf:psmodule.obj
 0006:0000fa58       ??_C@_0P@MENJOEGK@upperdothebrew?$AA@ 0050daf8     sdl_ttf:psmodule.obj
 0006:0000fa68       ??_C@_07CECGHLBE@upblock?$AA@ 0050db08     sdl_ttf:psmodule.obj
 0006:0000fa70       ??_C@_06HOHKLME@uparen?$AA@ 0050db10     sdl_ttf:psmodule.obj
 0006:0000fa78       ??_C@_07BOOMGHIH@uogonek?$AA@ 0050db18     sdl_ttf:psmodule.obj
 0006:0000fa80       ??_C@_09PKFEHKGK@universal?$AA@ 0050db20     sdl_ttf:psmodule.obj
 0006:0000fa8c       ??_C@_05MNALHJLP@union?$AA@ 0050db2c     sdl_ttf:psmodule.obj
 0006:0000fa94       ??_C@_0P@LGDIBGJG@underscorewavy?$AA@ 0050db34     sdl_ttf:psmodule.obj
 0006:0000faa4       ??_C@_0BD@FDBBCOOB@underscorevertical?$AA@ 0050db44     sdl_ttf:psmodule.obj
 0006:0000fab8       ??_C@_0BE@EFCIMLGB@underscoremonospace?$AA@ 0050db58     sdl_ttf:psmodule.obj
 0006:0000facc       ??_C@_0O@IHCFNOFE@underscoredbl?$AA@ 0050db6c     sdl_ttf:psmodule.obj
 0006:0000fadc       ??_C@_0L@KBLEBKMP@umonospace?$AA@ 0050db7c     sdl_ttf:psmodule.obj
 0006:0000fae8       ??_C@_0P@HGFDKBLF@umatragurmukhi?$AA@ 0050db88     sdl_ttf:psmodule.obj
 0006:0000faf8       ??_C@_0BA@FENAPFLG@umacrondieresis?$AA@ 0050db98     sdl_ttf:psmodule.obj
 0006:0000fb08       ??_C@_0BA@MIMKMOKF@umacroncyrillic?$AA@ 0050dba8     sdl_ttf:psmodule.obj
 0006:0000fb18       ??_C@_07PAPFOBAG@umacron?$AA@ 0050dbb8     sdl_ttf:psmodule.obj
 0006:0000fb20       ??_C@_07DDPPEJFC@ukorean?$AA@ 0050dbc0     sdl_ttf:psmodule.obj
 0006:0000fb28       ??_C@_0L@JEBDPNFD@ukcyrillic?$AA@ 0050dbc8     sdl_ttf:psmodule.obj
 0006:0000fb34       ??_C@_0BD@BDFAGJHB@ukatakanahalfwidth?$AA@ 0050dbd4     sdl_ttf:psmodule.obj
 0006:0000fb48       ??_C@_09EGDKCEDI@ukatakana?$AA@ 0050dbe8     sdl_ttf:psmodule.obj
 0006:0000fb54       ??_C@_0P@BLLMLAEM@uinvertedbreve?$AA@ 0050dbf4     sdl_ttf:psmodule.obj
 0006:0000fb64       ??_C@_0BG@PPPHFNPJ@uhungarumlautcyrillic?$AA@ 0050dc04     sdl_ttf:psmodule.obj
 0006:0000fb7c       ??_C@_0O@PAGOPKJB@uhungarumlaut?$AA@ 0050dc1c     sdl_ttf:psmodule.obj
 0006:0000fb8c       ??_C@_0L@ENCOPFEI@uhorntilde?$AA@ 0050dc2c     sdl_ttf:psmodule.obj
 0006:0000fb98       ??_C@_0P@ILFKJAGA@uhornhookabove?$AA@ 0050dc38     sdl_ttf:psmodule.obj
 0006:0000fba8       ??_C@_0L@DCJEIMCN@uhorngrave?$AA@ 0050dc48     sdl_ttf:psmodule.obj
 0006:0000fbb4       ??_C@_0O@HBFGJFNH@uhorndotbelow?$AA@ 0050dc54     sdl_ttf:psmodule.obj
 0006:0000fbc4       ??_C@_0L@GFLCMFKE@uhornacute?$AA@ 0050dc64     sdl_ttf:psmodule.obj
 0006:0000fbd0       ??_C@_05HDNOODOA@uhorn?$AA@ 0050dc70     sdl_ttf:psmodule.obj
 0006:0000fbd8       ??_C@_0L@NBHEIENM@uhookabove?$AA@ 0050dc78     sdl_ttf:psmodule.obj
 0006:0000fbe4       ??_C@_09KHCNLHD@uhiragana?$AA@ 0050dc84     sdl_ttf:psmodule.obj
 0006:0000fbf0       ??_C@_09DANECCIB@ugurmukhi?$AA@ 0050dc90     sdl_ttf:psmodule.obj
 0006:0000fbfc       ??_C@_09NLIGFGDD@ugujarati?$AA@ 0050dc9c     sdl_ttf:psmodule.obj
 0006:0000fc08       ??_C@_09FKJNDCCJ@udotbelow?$AA@ 0050dca8     sdl_ttf:psmodule.obj
 0006:0000fc14       ??_C@_0BA@OHGFAHGD@udieresismacron?$AA@ 0050dcb4     sdl_ttf:psmodule.obj
 0006:0000fc24       ??_C@_0P@KGBEGOLI@udieresisgrave?$AA@ 0050dcc4     sdl_ttf:psmodule.obj
 0006:0000fc34       ??_C@_0BC@PLOPKEBM@udieresiscyrillic?$AA@ 0050dcd4     sdl_ttf:psmodule.obj
 0006:0000fc48       ??_C@_0P@KIGKHILJ@udieresiscaron?$AA@ 0050dce8     sdl_ttf:psmodule.obj
 0006:0000fc58       ??_C@_0P@LNHAIEGI@udieresisbelow?$AA@ 0050dcf8     sdl_ttf:psmodule.obj
 0006:0000fc68       ??_C@_0P@PBDCCHDB@udieresisacute?$AA@ 0050dd08     sdl_ttf:psmodule.obj
 0006:0000fc78       ??_C@_05FJACFKJG@udeva?$AA@ 0050dd18     sdl_ttf:psmodule.obj
 0006:0000fc80       ??_C@_09IOMNBPIB@udblgrave?$AA@ 0050dd20     sdl_ttf:psmodule.obj
 0006:0000fc8c       ??_C@_09NJOLFGAI@udblacute?$AA@ 0050dd2c     sdl_ttf:psmodule.obj
 0006:0000fc98       ??_C@_0L@DHFMKOFK@udattadeva?$AA@ 0050dd38     sdl_ttf:psmodule.obj
 0006:0000fca4       ??_C@_09KKAMGLCD@ucyrillic?$AA@ 0050dd44     sdl_ttf:psmodule.obj
 0006:0000fcb0       ??_C@_0BB@HKJHOAAI@ucircumflexbelow?$AA@ 0050dd50     sdl_ttf:psmodule.obj
 0006:0000fcc4       ??_C@_07BIAOPBGM@ucircle?$AA@ 0050dd64     sdl_ttf:psmodule.obj
 0006:0000fccc       ??_C@_06IPDCFOCH@ucaron?$AA@ 0050dd6c     sdl_ttf:psmodule.obj
 0006:0000fcd4       ??_C@_06FOODEOMC@ubreve?$AA@ 0050dd74     sdl_ttf:psmodule.obj
 0006:0000fcdc       ??_C@_09MOFJDLJH@ubopomofo?$AA@ 0050dd7c     sdl_ttf:psmodule.obj
 0006:0000fce8       ??_C@_08IHAGBOPE@ubengali?$AA@ 0050dd88     sdl_ttf:psmodule.obj
 0006:0000fcf4       ??_C@_04MNNMOCLG@ubar?$AA@ 0050dd94     sdl_ttf:psmodule.obj
 0006:0000fcfc       ??_C@_07GNEAAEMM@twothai?$AA@ 0050dd9c     sdl_ttf:psmodule.obj
 0006:0000fd04       ??_C@_09IPLCMENI@twostroke?$AA@ 0050dda4     sdl_ttf:psmodule.obj
 0006:0000fd10       ??_C@_08EJHNFJLL@tworoman?$AA@ 0050ddb0     sdl_ttf:psmodule.obj
 0006:0000fd1c       ??_C@_0L@DEMPCEEG@twopersian?$AA@ 0050ddbc     sdl_ttf:psmodule.obj
 0006:0000fd28       ??_C@_09ENKJMJDK@twoperiod?$AA@ 0050ddc8     sdl_ttf:psmodule.obj
 0006:0000fd34       ??_C@_08LEPGKJME@twoparen?$AA@ 0050ddd4     sdl_ttf:psmodule.obj
 0006:0000fd40       ??_C@_0BE@IOCIIKCC@twonumeratorbengali?$AA@ 0050dde0     sdl_ttf:psmodule.obj
 0006:0000fd54       ??_C@_0N@KDIBAPIH@twomonospace?$AA@ 0050ddf4     sdl_ttf:psmodule.obj
 0006:0000fd64       ??_C@_0BE@JDBFPFKC@twoideographicparen?$AA@ 0050de04     sdl_ttf:psmodule.obj
 0006:0000fd78       ??_C@_0M@DNCCDGHJ@twohangzhou?$AA@ 0050de18     sdl_ttf:psmodule.obj
 0006:0000fd84       ??_C@_0O@CLBLGIFJ@twohackarabic?$AA@ 0050de24     sdl_ttf:psmodule.obj
 0006:0000fd94       ??_C@_0M@GIFCGAEC@twogurmukhi?$AA@ 0050de34     sdl_ttf:psmodule.obj
 0006:0000fda0       ??_C@_0M@IDAABEPA@twogujarati?$AA@ 0050de40     sdl_ttf:psmodule.obj
 0006:0000fdac       ??_C@_0BF@DJKIFFEI@twodotleadervertical?$AA@ 0050de4c     sdl_ttf:psmodule.obj
 0006:0000fdc4       ??_C@_0N@DNNIEEJB@twodotleader?$AA@ 0050de64     sdl_ttf:psmodule.obj
 0006:0000fdd4       ??_C@_07COHKHEGO@twodeva?$AA@ 0050de74     sdl_ttf:psmodule.obj
 0006:0000fddc       ??_C@_0BK@MMOCIHBC@twocircleinversesansserif?$AA@ 0050de7c     sdl_ttf:psmodule.obj
 0006:0000fdf8       ??_C@_09BILNOAGO@twocircle?$AA@ 0050de98     sdl_ttf:psmodule.obj
 0006:0000fe04       ??_C@_0L@GJAIMMMJ@twobengali?$AA@ 0050dea4     sdl_ttf:psmodule.obj
 0006:0000fe10       ??_C@_09CJFOOMEF@twoarabic?$AA@ 0050deb0     sdl_ttf:psmodule.obj
 0006:0000fe1c       ??_C@_0N@BJJOLGJF@twentyperiod?$AA@ 0050debc     sdl_ttf:psmodule.obj
 0006:0000fe2c       ??_C@_0M@FNNOCPDC@twentyparen?$AA@ 0050decc     sdl_ttf:psmodule.obj
 0006:0000fe38       ??_C@_0P@NEAHKOMF@twentyhangzhou?$AA@ 0050ded8     sdl_ttf:psmodule.obj
 0006:0000fe48       ??_C@_0N@EMIKJPMB@twentycircle?$AA@ 0050dee8     sdl_ttf:psmodule.obj
 0006:0000fe58       ??_C@_0M@GMPIAGAM@twelveroman?$AA@ 0050def8     sdl_ttf:psmodule.obj
 0006:0000fe64       ??_C@_0N@BIIJGKEK@twelveperiod?$AA@ 0050df04     sdl_ttf:psmodule.obj
 0006:0000fe74       ??_C@_0M@JBHDPGHD@twelveparen?$AA@ 0050df14     sdl_ttf:psmodule.obj
 0006:0000fe80       ??_C@_0N@ENJNEDBO@twelvecircle?$AA@ 0050df20     sdl_ttf:psmodule.obj
 0006:0000fe90       ??_C@_0BJ@MKBPNMCA@tusmallkatakanahalfwidth?$AA@ 0050df30     sdl_ttf:psmodule.obj
 0006:0000feac       ??_C@_0BA@JKNEDOKG@tusmallkatakana?$AA@ 0050df4c     sdl_ttf:psmodule.obj
 0006:0000febc       ??_C@_0BA@NGJMMBON@tusmallhiragana?$AA@ 0050df5c     sdl_ttf:psmodule.obj
 0006:0000fecc       ??_C@_0BE@EHKCILPC@tukatakanahalfwidth?$AA@ 0050df6c     sdl_ttf:psmodule.obj
 0006:0000fee0       ??_C@_0L@IAMMNMND@tukatakana?$AA@ 0050df80     sdl_ttf:psmodule.obj
 0006:0000feec       ??_C@_0L@MMIECDJI@tuhiragana?$AA@ 0050df8c     sdl_ttf:psmodule.obj
 0006:0000fef8       ??_C@_07OGGJEDEB@tturned?$AA@ 0050df98     sdl_ttf:psmodule.obj
 0006:0000ff00       ??_C@_0N@EFHJPGAD@tthagurmukhi?$AA@ 0050dfa0     sdl_ttf:psmodule.obj
 0006:0000ff10       ??_C@_0N@KOCLICLB@tthagujarati?$AA@ 0050dfb0     sdl_ttf:psmodule.obj
 0006:0000ff20       ??_C@_08KLICKACH@tthadeva?$AA@ 0050dfc0     sdl_ttf:psmodule.obj
 0006:0000ff2c       ??_C@_0M@EAHBAADG@tthabengali?$AA@ 0050dfcc     sdl_ttf:psmodule.obj
 0006:0000ff38       ??_C@_0BB@ELMLHLBJ@ttehmedialarabic?$AA@ 0050dfd8     sdl_ttf:psmodule.obj
 0006:0000ff4c       ??_C@_0BC@BIIHNPFG@ttehinitialarabic?$AA@ 0050dfec     sdl_ttf:psmodule.obj
 0006:0000ff60       ??_C@_0BA@HALJCLCM@ttehfinalarabic?$AA@ 0050e000     sdl_ttf:psmodule.obj
 0006:0000ff70       ??_C@_0L@GHFLHHEA@tteharabic?$AA@ 0050e010     sdl_ttf:psmodule.obj
 0006:0000ff7c       ??_C@_0M@OPHJDGPA@ttagurmukhi?$AA@ 0050e01c     sdl_ttf:psmodule.obj
 0006:0000ff88       ??_C@_0M@ECLECEC@ttagujarati?$AA@ 0050e028     sdl_ttf:psmodule.obj
 0006:0000ff94       ??_C@_07CFJIAPID@ttadeva?$AA@ 0050e034     sdl_ttf:psmodule.obj
 0006:0000ff9c       ??_C@_0L@EKPNKMFI@ttabengali?$AA@ 0050e03c     sdl_ttf:psmodule.obj
 0006:0000ffa8       ??_C@_0N@KCNCPGFE@tshecyrillic?$AA@ 0050e048     sdl_ttf:psmodule.obj
 0006:0000ffb8       ??_C@_0BA@OCLMOIGE@tserewidehebrew?$AA@ 0050e058     sdl_ttf:psmodule.obj
 0006:0000ffc8       ??_C@_0BD@BHGMBCEA@tserequarterhebrew?$AA@ 0050e068     sdl_ttf:psmodule.obj
 0006:0000ffdc       ??_C@_0BC@FCCPJEKK@tserenarrowhebrew?$AA@ 0050e07c     sdl_ttf:psmodule.obj
 0006:0000fff0       ??_C@_0M@FJPAALPK@tserehebrew?$AA@ 0050e090     sdl_ttf:psmodule.obj
 0006:0000fffc       ??_C@_07MILAGHOG@tsere2b?$AA@ 0050e09c     sdl_ttf:psmodule.obj
 0006:00010004       ??_C@_07IFLHEPHI@tsere1e?$AA@ 0050e0a4     sdl_ttf:psmodule.obj
 0006:0001000c       ??_C@_07HAENIEOL@tsere12?$AA@ 0050e0ac     sdl_ttf:psmodule.obj
 0006:00010014       ??_C@_05CDPLKPHJ@tsere?$AA@ 0050e0b4     sdl_ttf:psmodule.obj
 0006:0001001c       ??_C@_0M@FFHBMKKL@tsecyrillic?$AA@ 0050e0bc     sdl_ttf:psmodule.obj
 0006:00010028       ??_C@_0M@NIGOIFDE@tsadihebrew?$AA@ 0050e0c8     sdl_ttf:psmodule.obj
 0006:00010034       ??_C@_0BC@FJAAEGB@tsadidageshhebrew?$AA@ 0050e0d4     sdl_ttf:psmodule.obj
 0006:00010048       ??_C@_0M@FEIAJMFM@tsadidagesh?$AA@ 0050e0e8     sdl_ttf:psmodule.obj
 0006:00010054       ??_C@_05BIIHKIOA@tsadi?$AA@ 0050e0f4     sdl_ttf:psmodule.obj
 0006:0001005c       ??_C@_02FHFEMMFE@ts?$AA@   0050e0fc     sdl_ttf:psmodule.obj
 0006:00010060       ??_C@_07JJGNGCGG@triagup?$AA@ 0050e100     sdl_ttf:psmodule.obj
 0006:00010068       ??_C@_07PIEOLBOH@triagrt?$AA@ 0050e108     sdl_ttf:psmodule.obj
 0006:00010070       ??_C@_07JGACEPEO@triaglf?$AA@ 0050e110     sdl_ttf:psmodule.obj
 0006:00010078       ??_C@_07FAMIJEPO@triagdn?$AA@ 0050e118     sdl_ttf:psmodule.obj
 0006:00010080       ??_C@_0P@IEHIBHKK@tretroflexhook?$AA@ 0050e120     sdl_ttf:psmodule.obj
 0006:00010090       ??_C@_0P@BHIJBNPH@trademarkserif?$AA@ 0050e130     sdl_ttf:psmodule.obj
 0006:000100a0       ??_C@_0O@LAABEHGL@trademarksans?$AA@ 0050e140     sdl_ttf:psmodule.obj
 0006:000100b0       ??_C@_06KBJAKAHA@tparen?$AA@ 0050e150     sdl_ttf:psmodule.obj
 0006:000100b8       ??_C@_0N@MKHNOEMI@tpalatalhook?$AA@ 0050e158     sdl_ttf:psmodule.obj
 0006:000100c8       ??_C@_09JDJOHBLA@totaothai?$AA@ 0050e168     sdl_ttf:psmodule.obj
 0006:000100d4       ??_C@_0CC@OEOOLCBI@tortoiseshellbracketrightvertica@ 0050e174     sdl_ttf:psmodule.obj
 0006:000100f8       ??_C@_0BP@EKFCHKA@tortoiseshellbracketrightsmall?$AA@ 0050e198     sdl_ttf:psmodule.obj
 0006:00010118       ??_C@_0BK@GPOEONN@tortoiseshellbracketright?$AA@ 0050e1b8     sdl_ttf:psmodule.obj
 0006:00010134       ??_C@_0CB@PKILCBNF@tortoiseshellbracketleftvertical@ 0050e1d4     sdl_ttf:psmodule.obj
 0006:00010158       ??_C@_0BO@JFJBJCO@tortoiseshellbracketleftsmall?$AA@ 0050e1f8     sdl_ttf:psmodule.obj
 0006:00010178       ??_C@_0BJ@GNCANGFB@tortoiseshellbracketleft?$AA@ 0050e218     sdl_ttf:psmodule.obj
 0006:00010194       ??_C@_0M@LFBJDOCC@topatakthai?$AA@ 0050e234     sdl_ttf:psmodule.obj
 0006:000101a0       ??_C@_09EFMFIGEA@tonsquare?$AA@ 0050e240     sdl_ttf:psmodule.obj
 0006:000101ac       ??_C@_05FJIMNHAP@tonos?$AA@ 0050e24c     sdl_ttf:psmodule.obj
 0006:000101b4       ??_C@_07PLJDCLJB@tonetwo?$AA@ 0050e254     sdl_ttf:psmodule.obj
 0006:000101bc       ??_C@_07HFHPBJME@tonesix?$AA@ 0050e25c     sdl_ttf:psmodule.obj
 0006:000101c4       ??_C@_08CGGINDKK@tonefive?$AA@ 0050e264     sdl_ttf:psmodule.obj
 0006:000101d0       ??_C@_0O@EGOFEIHM@tonebarmidmod?$AA@ 0050e270     sdl_ttf:psmodule.obj
 0006:000101e0       ??_C@_0O@BBILENIH@tonebarlowmod?$AA@ 0050e280     sdl_ttf:psmodule.obj
 0006:000101f0       ??_C@_0P@PIKMKCCM@tonebarhighmod?$AA@ 0050e290     sdl_ttf:psmodule.obj
 0006:00010200       ??_C@_0BD@EJEIDGAM@tonebarextralowmod?$AA@ 0050e2a0     sdl_ttf:psmodule.obj
 0006:00010214       ??_C@_0BE@ICJODLPP@tonebarextrahighmod?$AA@ 0050e2b4     sdl_ttf:psmodule.obj
 0006:00010228       ??_C@_0BE@CJPFKLIM@tokatakanahalfwidth?$AA@ 0050e2c8     sdl_ttf:psmodule.obj
 0006:0001023c       ??_C@_0L@LAEAMNPC@tokatakana?$AA@ 0050e2dc     sdl_ttf:psmodule.obj
 0006:00010248       ??_C@_0L@PMAIDCLJ@tohiragana?$AA@ 0050e2e8     sdl_ttf:psmodule.obj
 0006:00010254       ??_C@_0L@DPBNBGMC@toarmenian?$AA@ 0050e2f4     sdl_ttf:psmodule.obj
 0006:00010260       ??_C@_0L@GADKMFAP@tmonospace?$AA@ 0050e300     sdl_ttf:psmodule.obj
 0006:0001026c       ??_C@_0L@LLJMBAFD@tlinebelow?$AA@ 0050e30c     sdl_ttf:psmodule.obj
 0006:00010278       ??_C@_0N@OCHIKMBI@tiwnarmenian?$AA@ 0050e318     sdl_ttf:psmodule.obj
 0006:00010288       ??_C@_0BB@BKKOLDAC@titlocyrilliccmb?$AA@ 0050e328     sdl_ttf:psmodule.obj
 0006:0001029c       ??_C@_0O@JPLKGNLJ@tippigurmukhi?$AA@ 0050e33c     sdl_ttf:psmodule.obj
 0006:000102ac       ??_C@_0BB@KKBGOMDP@tipehalefthebrew?$AA@ 0050e34c     sdl_ttf:psmodule.obj
 0006:000102c0       ??_C@_0N@OBONNBAD@tipehahebrew?$AA@ 0050e360     sdl_ttf:psmodule.obj
 0006:000102d0       ??_C@_0M@POKOLIPA@timescircle?$AA@ 0050e370     sdl_ttf:psmodule.obj
 0006:000102dc       ??_C@_0BB@CFDAJKCN@tildeverticalcmb?$AA@ 0050e37c     sdl_ttf:psmodule.obj
 0006:000102f0       ??_C@_0BA@HBBNBICA@tildeoverlaycmb?$AA@ 0050e390     sdl_ttf:psmodule.obj
 0006:00010300       ??_C@_0O@BJIPOF@tildeoperator?$AA@ 0050e3a0     sdl_ttf:psmodule.obj
 0006:00010310       ??_C@_0P@KLOFCLPG@tildedoublecmb?$AA@ 0050e3b0     sdl_ttf:psmodule.obj
 0006:00010320       ??_C@_09BJIAHNOB@tildecomb?$AA@ 0050e3c0     sdl_ttf:psmodule.obj
 0006:0001032c       ??_C@_08MLOLFIED@tildecmb?$AA@ 0050e3cc     sdl_ttf:psmodule.obj
 0006:00010338       ??_C@_0O@IEPFMIFA@tildebelowcmb?$AA@ 0050e3d8     sdl_ttf:psmodule.obj
 0006:00010348       ??_C@_0BC@JHHOCLLM@tikeutparenkorean?$AA@ 0050e3e8     sdl_ttf:psmodule.obj
 0006:0001035c       ??_C@_0N@KELKMIHO@tikeutkorean?$AA@ 0050e3fc     sdl_ttf:psmodule.obj
 0006:0001036c       ??_C@_0BD@BNGEJPBC@tikeutcirclekorean?$AA@ 0050e40c     sdl_ttf:psmodule.obj
 0006:00010380       ??_C@_0BD@OCDIBPCF@tikeutaparenkorean?$AA@ 0050e420     sdl_ttf:psmodule.obj
 0006:00010394       ??_C@_0BE@JEMCPCMG@tikeutacirclekorean?$AA@ 0050e434     sdl_ttf:psmodule.obj
 0006:000103a8       ??_C@_0BE@LECJKAJP@tikatakanahalfwidth?$AA@ 0050e448     sdl_ttf:psmodule.obj
 0006:000103bc       ??_C@_0L@LNFOLNLF@tikatakana?$AA@ 0050e45c     sdl_ttf:psmodule.obj
 0006:000103c8       ??_C@_0L@PBBGECPO@tihiragana?$AA@ 0050e468     sdl_ttf:psmodule.obj
 0006:000103d4       ??_C@_09NJFFNEFI@thzsquare?$AA@ 0050e474     sdl_ttf:psmodule.obj
 0006:000103e0       ??_C@_09GEEEBCIL@threethai?$AA@ 0050e480     sdl_ttf:psmodule.obj
 0006:000103ec       ??_C@_0L@KBMMIJJO@threeroman?$AA@ 0050e48c     sdl_ttf:psmodule.obj
 0006:000103f8       ??_C@_0N@FKOPMOME@threepersian?$AA@ 0050e498     sdl_ttf:psmodule.obj
 0006:00010408       ??_C@_0M@GEFKMKN@threeperiod?$AA@ 0050e4a8     sdl_ttf:psmodule.obj
 0006:00010414       ??_C@_0L@FMEHHJOB@threeparen?$AA@ 0050e4b4     sdl_ttf:psmodule.obj
 0006:00010420       ??_C@_0BG@CJNIMMPE@threenumeratorbengali?$AA@ 0050e4c0     sdl_ttf:psmodule.obj
 0006:00010438       ??_C@_0P@OKOLJAAI@threemonospace?$AA@ 0050e4d8     sdl_ttf:psmodule.obj
 0006:00010448       ??_C@_0BG@DEOFLDHE@threeideographicparen?$AA@ 0050e4e8     sdl_ttf:psmodule.obj
 0006:00010460       ??_C@_0O@DOPKPEJP@threehangzhou?$AA@ 0050e500     sdl_ttf:psmodule.obj
 0006:00010470       ??_C@_0BA@FGFFJMHH@threehackarabic?$AA@ 0050e510     sdl_ttf:psmodule.obj
 0006:00010480       ??_C@_0O@GLIKKCKE@threegurmukhi?$AA@ 0050e520     sdl_ttf:psmodule.obj
 0006:00010490       ??_C@_0O@IANINGBG@threegujarati?$AA@ 0050e530     sdl_ttf:psmodule.obj
 0006:000104a0       ??_C@_09CHHOGCCJ@threedeva?$AA@ 0050e540     sdl_ttf:psmodule.obj
 0006:000104ac       ??_C@_0BM@IFGHIIIL@threecircleinversesansserif?$AA@ 0050e54c     sdl_ttf:psmodule.obj
 0006:000104c8       ??_C@_0M@FDFBIFPJ@threecircle?$AA@ 0050e568     sdl_ttf:psmodule.obj
 0006:000104d4       ??_C@_0N@HCICGEL@threebengali?$AA@ 0050e574     sdl_ttf:psmodule.obj
 0006:000104e4       ??_C@_0M@GCLCIJNC@threearabic?$AA@ 0050e584     sdl_ttf:psmodule.obj
 0006:000104f0       ??_C@_0BK@GAECIEKA@thousandsseparatorpersian?$AA@ 0050e590     sdl_ttf:psmodule.obj
 0006:0001050c       ??_C@_0BJ@HKKJCDLD@thousandsseparatorarabic?$AA@ 0050e5ac     sdl_ttf:psmodule.obj
 0006:00010528       ??_C@_0BB@NLPKDFAP@thousandcyrillic?$AA@ 0050e5c8     sdl_ttf:psmodule.obj
 0006:0001053c       ??_C@_0N@FKIPKOIN@thothungthai?$AA@ 0050e5dc     sdl_ttf:psmodule.obj
 0006:0001054c       ??_C@_0N@LHPEIDGO@thothongthai?$AA@ 0050e5ec     sdl_ttf:psmodule.obj
 0006:0001055c       ??_C@_0M@NHAJEDCN@thothanthai?$AA@ 0050e5fc     sdl_ttf:psmodule.obj
 0006:00010568       ??_C@_0O@HLJMKFB@thothahanthai?$AA@ 0050e608     sdl_ttf:psmodule.obj
 0006:00010578       ??_C@_0P@JJPOFOOF@thophuthaothai?$AA@ 0050e618     sdl_ttf:psmodule.obj
 0006:00010588       ??_C@_05NBALPECD@thook?$AA@ 0050e628     sdl_ttf:psmodule.obj
 0006:00010590       ??_C@_0BC@CHDMPHPI@thonangmonthothai?$AA@ 0050e630     sdl_ttf:psmodule.obj
 0006:000105a4       ??_C@_0P@MDEIOCGI@thirteenperiod?$AA@ 0050e644     sdl_ttf:psmodule.obj
 0006:000105b4       ??_C@_0O@OLDCACFJ@thirteenparen?$AA@ 0050e654     sdl_ttf:psmodule.obj
 0006:000105c4       ??_C@_0P@JGFMMLDM@thirteencircle?$AA@ 0050e664     sdl_ttf:psmodule.obj
 0006:000105d4       ??_C@_0BD@FOMDDDOL@thieuthparenkorean?$AA@ 0050e674     sdl_ttf:psmodule.obj
 0006:000105e8       ??_C@_0O@OOLMEOIN@thieuthkorean?$AA@ 0050e688     sdl_ttf:psmodule.obj
 0006:000105f8       ??_C@_0BE@OIKCOGFN@thieuthcirclekorean?$AA@ 0050e698     sdl_ttf:psmodule.obj
 0006:0001060c       ??_C@_0BE@BHPOGGGK@thieuthaparenkorean?$AA@ 0050e6ac     sdl_ttf:psmodule.obj
 0006:00010620       ??_C@_0BF@HCFEGILO@thieuthacirclekorean?$AA@ 0050e6c0     sdl_ttf:psmodule.obj
 0006:00010638       ??_C@_0BB@KNAFIMBG@thetasymbolgreek?$AA@ 0050e6d8     sdl_ttf:psmodule.obj
 0006:0001064c       ??_C@_06KENEDANN@theta1?$AA@ 0050e6ec     sdl_ttf:psmodule.obj
 0006:00010654       ??_C@_05FECKLAFM@theta?$AA@ 0050e6f4     sdl_ttf:psmodule.obj
 0006:0001065c       ??_C@_09IFGBCGIH@therefore?$AA@ 0050e6fc     sdl_ttf:psmodule.obj
 0006:00010668       ??_C@_0M@LMFMGCMH@thereexists?$AA@ 0050e708     sdl_ttf:psmodule.obj
 0006:00010674       ??_C@_0BB@KMOJGEP@thehmedialarabic?$AA@ 0050e714     sdl_ttf:psmodule.obj
 0006:00010688       ??_C@_0BC@JKMOCOHK@thehinitialarabic?$AA@ 0050e728     sdl_ttf:psmodule.obj
 0006:0001069c       ??_C@_0BA@HBCOBNIH@thehfinalarabic?$AA@ 0050e73c     sdl_ttf:psmodule.obj
 0006:000106ac       ??_C@_0L@FKMJBGCG@theharabic?$AA@ 0050e74c     sdl_ttf:psmodule.obj
 0006:000106b8       ??_C@_0BJ@HHOKEMHB@thanthakhatupperleftthai?$AA@ 0050e758     sdl_ttf:psmodule.obj
 0006:000106d4       ??_C@_0BA@OMLNJMLC@thanthakhatthai?$AA@ 0050e774     sdl_ttf:psmodule.obj
 0006:000106e4       ??_C@_0BI@PJLEDEFK@thanthakhatlowrightthai?$AA@ 0050e784     sdl_ttf:psmodule.obj
 0006:000106fc       ??_C@_0BH@FIMPADI@thanthakhatlowleftthai?$AA@ 0050e79c     sdl_ttf:psmodule.obj
 0006:00010714       ??_C@_0BA@KIDLPIAK@thalfinalarabic?$AA@ 0050e7b4     sdl_ttf:psmodule.obj
 0006:00010724       ??_C@_0L@IDGPEJNA@thalarabic?$AA@ 0050e7c4     sdl_ttf:psmodule.obj
 0006:00010730       ??_C@_0M@ELJFGAPM@thagurmukhi?$AA@ 0050e7d0     sdl_ttf:psmodule.obj
 0006:0001073c       ??_C@_0M@KAMHBEEO@thagujarati?$AA@ 0050e7dc     sdl_ttf:psmodule.obj
 0006:00010748       ??_C@_07IFOGPJDJ@thadeva?$AA@ 0050e7e8     sdl_ttf:psmodule.obj
 0006:00010750       ??_C@_0L@HHGPMNDO@thabengali?$AA@ 0050e7f0     sdl_ttf:psmodule.obj
 0006:0001075c       ??_C@_0BA@LMLFBNFG@tevirlefthebrew?$AA@ 0050e7fc     sdl_ttf:psmodule.obj
 0006:0001076c       ??_C@_0M@ILMBNLAH@tevirhebrew?$AA@ 0050e80c     sdl_ttf:psmodule.obj
 0006:00010778       ??_C@_0O@BPAACABA@tetsecyrillic?$AA@ 0050e818     sdl_ttf:psmodule.obj
 0006:00010788       ??_C@_09DBPPNPEB@tethebrew?$AA@ 0050e828     sdl_ttf:psmodule.obj
 0006:00010794       ??_C@_0BA@IPBDCCJH@tetdageshhebrew?$AA@ 0050e834     sdl_ttf:psmodule.obj
 0006:000107a4       ??_C@_09LNBBMGCJ@tetdagesh?$AA@ 0050e844     sdl_ttf:psmodule.obj
 0006:000107b0       ??_C@_03DPKJKCBB@tet?$AA@  0050e850     sdl_ttf:psmodule.obj
 0006:000107b4       ??_C@_04MCOEHOHK@tesh?$AA@ 0050e854     sdl_ttf:psmodule.obj
 0006:000107bc       ??_C@_08NBJEGEFJ@tenroman?$AA@ 0050e85c     sdl_ttf:psmodule.obj
 0006:000107c8       ??_C@_09DDFKDFD@tenperiod?$AA@ 0050e868     sdl_ttf:psmodule.obj
 0006:000107d4       ??_C@_08CMBPJECG@tenparen?$AA@ 0050e874     sdl_ttf:psmodule.obj
 0006:000107e0       ??_C@_0BE@BLLBHOLI@tenideographicparen?$AA@ 0050e880     sdl_ttf:psmodule.obj
 0006:000107f4       ??_C@_09FGCBIKAH@tencircle?$AA@ 0050e894     sdl_ttf:psmodule.obj
 0006:00010800       ??_C@_0BE@GEMCHNFC@telishaqetanahebrew?$AA@ 0050e8a0     sdl_ttf:psmodule.obj
 0006:00010814       ??_C@_0BE@OOOJNIKL@telishagedolahebrew?$AA@ 0050e8b4     sdl_ttf:psmodule.obj
 0006:00010828       ??_C@_0P@HNBBDAIJ@telephoneblack?$AA@ 0050e8c8     sdl_ttf:psmodule.obj
 0006:00010838       ??_C@_09DAAPAPOG@telephone?$AA@ 0050e8d8     sdl_ttf:psmodule.obj
 0006:00010844       ??_C@_0BE@FEOALAPI@tekatakanahalfwidth?$AA@ 0050e8e4     sdl_ttf:psmodule.obj
 0006:00010858       ??_C@_0L@KHGCFNDL@tekatakana?$AA@ 0050e8f8     sdl_ttf:psmodule.obj
 0006:00010864       ??_C@_0BD@LLLIAMKA@tehnoonfinalarabic?$AA@ 0050e904     sdl_ttf:psmodule.obj
 0006:00010878       ??_C@_0BG@IJOGJGHE@tehmeemisolatedarabic?$AA@ 0050e918     sdl_ttf:psmodule.obj
 0006:00010890       ??_C@_0BF@BHNPKEBF@tehmeeminitialarabic?$AA@ 0050e930     sdl_ttf:psmodule.obj
 0006:000108a8       ??_C@_0BA@HJCDCIEN@tehmedialarabic?$AA@ 0050e948     sdl_ttf:psmodule.obj
 0006:000108b8       ??_C@_0BG@ELKKABBJ@tehmarbutafinalarabic?$AA@ 0050e958     sdl_ttf:psmodule.obj
 0006:000108d0       ??_C@_0BB@DBGGMMDF@tehmarbutaarabic?$AA@ 0050e970     sdl_ttf:psmodule.obj
 0006:000108e4       ??_C@_0BG@MDNIBNDP@tehjeemisolatedarabic?$AA@ 0050e984     sdl_ttf:psmodule.obj
 0006:000108fc       ??_C@_0BF@PGPBKOHB@tehjeeminitialarabic?$AA@ 0050e99c     sdl_ttf:psmodule.obj
 0006:00010914       ??_C@_0L@OLCKKCHA@tehiragana?$AA@ 0050e9b4     sdl_ttf:psmodule.obj
 0006:00010920       ??_C@_0BB@HELDKCOI@tehinitialarabic?$AA@ 0050e9c0     sdl_ttf:psmodule.obj
 0006:00010934       ??_C@_0BF@HBFDKFAN@tehhahisolatedarabic?$AA@ 0050e9d4     sdl_ttf:psmodule.obj
 0006:0001094c       ??_C@_0BE@MAECLEMI@tehhahinitialarabic?$AA@ 0050e9ec     sdl_ttf:psmodule.obj
 0006:00010960       ??_C@_0P@EAIGJMAA@tehfinalarabic?$AA@ 0050ea00     sdl_ttf:psmodule.obj
 0006:00010970       ??_C@_09KBKNIPKL@teharabic?$AA@ 0050ea10     sdl_ttf:psmodule.obj
 0006:0001097c       ??_C@_0BE@EINPPCEE@tedescendercyrillic?$AA@ 0050ea1c     sdl_ttf:psmodule.obj
 0006:00010990       ??_C@_0L@ELFEBCCA@tecyrillic?$AA@ 0050ea30     sdl_ttf:psmodule.obj
 0006:0001099c       ??_C@_09LFFPFJBH@tdotbelow?$AA@ 0050ea3c     sdl_ttf:psmodule.obj
 0006:000109a8       ??_C@_0L@NBJOHAKG@tdotaccent?$AA@ 0050ea48     sdl_ttf:psmodule.obj
 0006:000109b4       ??_C@_09NJNEDLAO@tdieresis?$AA@ 0050ea54     sdl_ttf:psmodule.obj
 0006:000109c0       ??_C@_0N@PLIDFAKO@tcommaaccent?$AA@ 0050ea60     sdl_ttf:psmodule.obj
 0006:000109d0       ??_C@_0BB@PNDBCLEL@tcircumflexbelow?$AA@ 0050ea70     sdl_ttf:psmodule.obj
 0006:000109e4       ??_C@_07NEKEPBPC@tcircle?$AA@ 0050ea84     sdl_ttf:psmodule.obj
 0006:000109ec       ??_C@_0BH@CFDMHEMI@tchehmeeminitialarabic?$AA@ 0050ea8c     sdl_ttf:psmodule.obj
 0006:00010a04       ??_C@_0BC@FBDJAOMH@tchehmedialarabic?$AA@ 0050eaa4     sdl_ttf:psmodule.obj
 0006:00010a18       ??_C@_0BD@HJPGNCPA@tchehinitialarabic?$AA@ 0050eab8     sdl_ttf:psmodule.obj
 0006:00010a2c       ??_C@_0BB@FIBIIIDI@tchehfinalarabic?$AA@ 0050eacc     sdl_ttf:psmodule.obj
 0006:00010a40       ??_C@_0M@OKBKAKGG@tcheharabic?$AA@ 0050eae0     sdl_ttf:psmodule.obj
 0006:00010a4c       ??_C@_08HIMPMFPL@tcedilla?$AA@ 0050eaec     sdl_ttf:psmodule.obj
 0006:00010a58       ??_C@_06OIJKGMOL@tccurl?$AA@ 0050eaf8     sdl_ttf:psmodule.obj
 0006:00010a60       ??_C@_06CJEFFFJD@tcaron?$AA@ 0050eb00     sdl_ttf:psmodule.obj
 0006:00010a68       ??_C@_09CBJLFAKJ@tbopomofo?$AA@ 0050eb08     sdl_ttf:psmodule.obj
 0006:00010a74       ??_C@_04PALMMLAG@tbar?$AA@ 0050eb14     sdl_ttf:psmodule.obj
 0006:00010a7c       ??_C@_09CODGIJDA@tavhebrew?$AA@ 0050eb1c     sdl_ttf:psmodule.obj
 0006:00010a88       ??_C@_0BA@OEABIDFJ@tavdageshhebrew?$AA@ 0050eb28     sdl_ttf:psmodule.obj
 0006:00010a98       ??_C@_09KCNIJAFI@tavdagesh?$AA@ 0050eb38     sdl_ttf:psmodule.obj
 0006:00010aa4       ??_C@_08PMIIMDEJ@tavdages?$AA@ 0050eb44     sdl_ttf:psmodule.obj
 0006:00010ab0       ??_C@_03KJGGIEP@tav?$AA@   0050eb50     sdl_ttf:psmodule.obj
 0006:00010ab4       ??_C@_03CBLLDLIM@tau?$AA@  0050eb54     sdl_ttf:psmodule.obj
 0006:00010ab8       ??_C@_0O@PEJLIEI@tatweelarabic?$AA@ 0050eb58     sdl_ttf:psmodule.obj
 0006:00010ac8       ??_C@_0BE@LNIILNBK@takatakanahalfwidth?$AA@ 0050eb68     sdl_ttf:psmodule.obj
 0006:00010adc       ??_C@_0L@KOIJPNEB@takatakana?$AA@ 0050eb7c     sdl_ttf:psmodule.obj
 0006:00010ae8       ??_C@_0BB@OJGGAIML@taisyouerasquare?$AA@ 0050eb88     sdl_ttf:psmodule.obj
 0006:00010afc       ??_C@_0BA@PDFPENCO@tahmedialarabic?$AA@ 0050eb9c     sdl_ttf:psmodule.obj
 0006:00010b0c       ??_C@_0L@OCMBACAK@tahiragana?$AA@ 0050ebac     sdl_ttf:psmodule.obj
 0006:00010b18       ??_C@_0BB@KAICOOGP@tahinitialarabic?$AA@ 0050ebb8     sdl_ttf:psmodule.obj
 0006:00010b2c       ??_C@_0P@FJCKBDBL@tahfinalarabic?$AA@ 0050ebcc     sdl_ttf:psmodule.obj
 0006:00010b3c       ??_C@_09PMEBNOKH@taharabic?$AA@ 0050ebdc     sdl_ttf:psmodule.obj
 0006:00010b48       ??_C@_0L@NIGHPLPI@tagurmukhi?$AA@ 0050ebe8     sdl_ttf:psmodule.obj
 0006:00010b54       ??_C@_0L@DDDFIPEK@tagujarati?$AA@ 0050ebf4     sdl_ttf:psmodule.obj
 0006:00010b60       ??_C@_06PFMMJAPO@tadeva?$AA@ 0050ec00     sdl_ttf:psmodule.obj
 0006:00010b68       ??_C@_08CHKGOGFB@tackleft?$AA@ 0050ec08     sdl_ttf:psmodule.obj
 0006:00010b74       ??_C@_08NFKCHOGI@tackdown?$AA@ 0050ec14     sdl_ttf:psmodule.obj
 0006:00010b80       ??_C@_09IMALFELD@tabengali?$AA@ 0050ec20     sdl_ttf:psmodule.obj
 0006:00010b8c       ??_C@_0BA@DMKNOHNM@syouwaerasquare?$AA@ 0050ec2c     sdl_ttf:psmodule.obj
 0006:00010b9c       ??_C@_08FKEOEEIB@svsquare?$AA@ 0050ec3c     sdl_ttf:psmodule.obj
 0006:00010ba8       ??_C@_0BA@COLJIKIL@supersetorequal?$AA@ 0050ec48     sdl_ttf:psmodule.obj
 0006:00010bb8       ??_C@_0BB@DIAENFJM@supersetnotequal?$AA@ 0050ec58     sdl_ttf:psmodule.obj
 0006:00010bcc       ??_C@_08HPOOMMJD@superset?$AA@ 0050ec6c     sdl_ttf:psmodule.obj
 0006:00010bd8       ??_C@_03OHFMDAD@sun?$AA@   0050ec78     sdl_ttf:psmodule.obj
 0006:00010bdc       ??_C@_09CLJBFPIK@summation?$AA@ 0050ec7c     sdl_ttf:psmodule.obj
 0006:00010be8       ??_C@_0M@FJFJBNJE@sukunarabic?$AA@ 0050ec88     sdl_ttf:psmodule.obj
 0006:00010bf4       ??_C@_0BE@KGOGCNGB@sukatakanahalfwidth?$AA@ 0050ec94     sdl_ttf:psmodule.obj
 0006:00010c08       ??_C@_0L@KJPHMJFA@sukatakana?$AA@ 0050eca8     sdl_ttf:psmodule.obj
 0006:00010c14       ??_C@_0L@OFLPDGBL@suhiragana?$AA@ 0050ecb4     sdl_ttf:psmodule.obj
 0006:00010c20       ??_C@_08JKBHNEPM@suchthat?$AA@ 0050ecc0     sdl_ttf:psmodule.obj
 0006:00010c2c       ??_C@_08BGLABGPM@succeeds?$AA@ 0050eccc     sdl_ttf:psmodule.obj
 0006:00010c38       ??_C@_0O@BELCLFCI@subsetorequal?$AA@ 0050ecd8     sdl_ttf:psmodule.obj
 0006:00010c48       ??_C@_0P@HHOBCMPB@subsetnotequal?$AA@ 0050ece8     sdl_ttf:psmodule.obj
 0006:00010c58       ??_C@_06HLMLOICD@subset?$AA@ 0050ecf8     sdl_ttf:psmodule.obj
 0006:00010c60       ??_C@_0BG@NGJBDFMG@strokeshortoverlaycmb?$AA@ 0050ed00     sdl_ttf:psmodule.obj
 0006:00010c78       ??_C@_0BF@EDCJKLE@strokelongoverlaycmb?$AA@ 0050ed18     sdl_ttf:psmodule.obj
 0006:00010c90       ??_C@_0BC@GMAPPDPK@sterlingmonospace?$AA@ 0050ed30     sdl_ttf:psmodule.obj
 0006:00010ca4       ??_C@_0BC@JGBPJAF@ssangtikeutkorean?$AA@ 0050ed44     sdl_ttf:psmodule.obj
 0006:00010cb8       ??_C@_0BA@ONGDALNM@ssangsioskorean?$AA@ 0050ed58     sdl_ttf:psmodule.obj
 0006:00010cc8       ??_C@_0BB@FLHIADLN@ssangpieupkorean?$AA@ 0050ed68     sdl_ttf:psmodule.obj
 0006:00010cdc       ??_C@_0BB@NHGABOEG@ssangnieunkorean?$AA@ 0050ed7c     sdl_ttf:psmodule.obj
 0006:00010cf0       ??_C@_0BC@PAPJBMII@ssangkiyeokkorean?$AA@ 0050ed90     sdl_ttf:psmodule.obj
 0006:00010d04       ??_C@_0BB@LPJGCDGB@ssangieungkorean?$AA@ 0050eda4     sdl_ttf:psmodule.obj
 0006:00010d18       ??_C@_0BB@PODCLCCB@ssanghieuhkorean?$AA@ 0050edb8     sdl_ttf:psmodule.obj
 0006:00010d2c       ??_C@_0BB@NCMKAKHJ@ssangcieuckorean?$AA@ 0050edcc     sdl_ttf:psmodule.obj
 0006:00010d40       ??_C@_0M@FJIILOEO@ssagujarati?$AA@ 0050ede0     sdl_ttf:psmodule.obj
 0006:00010d4c       ??_C@_07OKPKDIBE@ssadeva?$AA@ 0050edec     sdl_ttf:psmodule.obj
 0006:00010d54       ??_C@_0L@IBBKKCKC@ssabengali?$AA@ 0050edf4     sdl_ttf:psmodule.obj
 0006:00010d60       ??_C@_08NOAEEKHL@srsquare?$AA@ 0050ee00     sdl_ttf:psmodule.obj
 0006:00010d6c       ??_C@_0BK@DEIJIEMC@squarewhitewithsmallblack?$AA@ 0050ee0c     sdl_ttf:psmodule.obj
 0006:00010d88       ??_C@_0BD@KOEEMFPL@squareverticalfill?$AA@ 0050ee28     sdl_ttf:psmodule.obj
 0006:00010d9c       ??_C@_0CA@IPFPIHEP@squareupperrighttolowerleftfill?$AA@ 0050ee3c     sdl_ttf:psmodule.obj
 0006:00010dbc       ??_C@_0CA@CBHNLFMA@squareupperlefttolowerrightfill?$AA@ 0050ee5c     sdl_ttf:psmodule.obj
 0006:00010ddc       ??_C@_0BP@NAHLJMNM@squareorthogonalcrosshatchfill?$AA@ 0050ee7c     sdl_ttf:psmodule.obj
 0006:00010dfc       ??_C@_0P@HJCLPDOH@squaremsquared?$AA@ 0050ee9c     sdl_ttf:psmodule.obj
 0006:00010e0c       ??_C@_08NCGMFPDL@squaremm?$AA@ 0050eeac     sdl_ttf:psmodule.obj
 0006:00010e18       ??_C@_09HPJIAJAM@squaremil?$AA@ 0050eeb8     sdl_ttf:psmodule.obj
 0006:00010e24       ??_C@_08CIIDLHLB@squaremg?$AA@ 0050eec4     sdl_ttf:psmodule.obj
 0006:00010e30       ??_C@_09CAFNMLBA@squarelog?$AA@ 0050eed0     sdl_ttf:psmodule.obj
 0006:00010e3c       ??_C@_08PIIDGGMP@squareln?$AA@ 0050eedc     sdl_ttf:psmodule.obj
 0006:00010e48       ??_C@_0BA@CJIJKBA@squarekmcapital?$AA@ 0050eee8     sdl_ttf:psmodule.obj
 0006:00010e58       ??_C@_08NGOBCDIJ@squarekm?$AA@ 0050eef8     sdl_ttf:psmodule.obj
 0006:00010e64       ??_C@_08CMAOMLAD@squarekg?$AA@ 0050ef04     sdl_ttf:psmodule.obj
 0006:00010e70       ??_C@_0BF@MIJJOHPE@squarehorizontalfill?$AA@ 0050ef10     sdl_ttf:psmodule.obj
 0006:00010e88       ??_C@_0BN@CBMCCNIG@squarediagonalcrosshatchfill?$AA@ 0050ef28     sdl_ttf:psmodule.obj
 0006:00010ea8       ??_C@_08NIPCHCDB@squarecm?$AA@ 0050ef48     sdl_ttf:psmodule.obj
 0006:00010eb4       ??_C@_08EGHBFPLP@squarecc?$AA@ 0050ef54     sdl_ttf:psmodule.obj
 0006:00010ec0       ??_C@_0P@OHEOHMIP@squarebelowcmb?$AA@ 0050ef60     sdl_ttf:psmodule.obj
 0006:00010ed0       ??_C@_06GEDHJOPO@sparen?$AA@ 0050ef70     sdl_ttf:psmodule.obj
 0006:00010ed8       ??_C@_0P@MOCAIAOF@spadesuitwhite?$AA@ 0050ef78     sdl_ttf:psmodule.obj
 0006:00010ee8       ??_C@_0P@CKOFAFJJ@spadesuitblack?$AA@ 0050ef88     sdl_ttf:psmodule.obj
 0006:00010ef8       ??_C@_05OOJHKNIE@spade?$AA@ 0050ef98     sdl_ttf:psmodule.obj
 0006:00010f00       ??_C@_0BA@JKHBPBKA@spacehackarabic?$AA@ 0050efa0     sdl_ttf:psmodule.obj
 0006:00010f10       ??_C@_09NCBMLKHN@sosuathai?$AA@ 0050efb0     sdl_ttf:psmodule.obj
 0006:00010f1c       ??_C@_08PCNLDJHF@sosothai?$AA@ 0050efbc     sdl_ttf:psmodule.obj
 0006:00010f28       ??_C@_0L@IGGPGIFN@sosalathai?$AA@ 0050efc8     sdl_ttf:psmodule.obj
 0006:00010f34       ??_C@_0L@BECACNIF@sorusithai?$AA@ 0050efd4     sdl_ttf:psmodule.obj
 0006:00010f40       ??_C@_0BH@KBALCFPF@solidusshortoverlaycmb?$AA@ 0050efe0     sdl_ttf:psmodule.obj
 0006:00010f58       ??_C@_0BG@JJBCDPLF@soliduslongoverlaycmb?$AA@ 0050eff8     sdl_ttf:psmodule.obj
 0006:00010f70       ??_C@_0BE@MILBANBP@sokatakanahalfwidth?$AA@ 0050f010     sdl_ttf:psmodule.obj
 0006:00010f84       ??_C@_0L@JJHLNIHB@sokatakana?$AA@ 0050f024     sdl_ttf:psmodule.obj
 0006:00010f90       ??_C@_0L@NFDDCHDK@sohiragana?$AA@ 0050f030     sdl_ttf:psmodule.obj
 0006:00010f9c       ??_C@_0BB@IHIPJPJK@softsigncyrillic?$AA@ 0050f03c     sdl_ttf:psmodule.obj
 0006:00010fb0       ??_C@_0L@PCGBGMBC@softhyphen?$AA@ 0050f050     sdl_ttf:psmodule.obj
 0006:00010fbc       ??_C@_0P@NFDEKFDJ@sofpasuqhebrew?$AA@ 0050f05c     sdl_ttf:psmodule.obj
 0006:00010fcc       ??_C@_0L@EJABNAIM@smonospace?$AA@ 0050f06c     sdl_ttf:psmodule.obj
 0006:00010fd8       ??_C@_09LAFPDEBJ@smileface?$AA@ 0050f078     sdl_ttf:psmodule.obj
 0006:00010fe4       ??_C@_0P@DDHHOML@slongdotaccent?$AA@ 0050f084     sdl_ttf:psmodule.obj
 0006:00010ff4       ??_C@_05JEPJEHGA@slong?$AA@ 0050f094     sdl_ttf:psmodule.obj
 0006:00010ffc       ??_C@_0P@EJDKNPAG@slashmonospace?$AA@ 0050f09c     sdl_ttf:psmodule.obj
 0006:0001100c       ??_C@_07EOLHNIGF@sixthai?$AA@ 0050f0ac     sdl_ttf:psmodule.obj
 0006:00011014       ??_C@_0O@IKLNMIGH@sixteenperiod?$AA@ 0050f0b4     sdl_ttf:psmodule.obj
 0006:00011024       ??_C@_0N@HHFPEALP@sixteenparen?$AA@ 0050f0c4     sdl_ttf:psmodule.obj
 0006:00011034       ??_C@_0CC@BKKCJOCP@sixteencurrencydenominatorbengal@ 0050f0d4     sdl_ttf:psmodule.obj
 0006:00011058       ??_C@_0O@NPKJOBDD@sixteencircle?$AA@ 0050f0f8     sdl_ttf:psmodule.obj
 0006:00011068       ??_C@_08OGFELFCL@sixroman?$AA@ 0050f108     sdl_ttf:psmodule.obj
 0006:00011074       ??_C@_0L@OMDCKPCG@sixpersian?$AA@ 0050f114     sdl_ttf:psmodule.obj
 0006:00011080       ??_C@_09LNAJHDJC@sixperiod?$AA@ 0050f120     sdl_ttf:psmodule.obj
 0006:0001108c       ??_C@_08BLNPEFFE@sixparen?$AA@ 0050f12c     sdl_ttf:psmodule.obj
 0006:00011098       ??_C@_0N@LMBGOGHF@sixmonospace?$AA@ 0050f138     sdl_ttf:psmodule.obj
 0006:000110a8       ??_C@_0BE@DKODCINB@sixideographicparen?$AA@ 0050f148     sdl_ttf:psmodule.obj
 0006:000110bc       ??_C@_0M@HAEIKKKK@sixhangzhou?$AA@ 0050f15c     sdl_ttf:psmodule.obj
 0006:000110c8       ??_C@_0O@HILHGMIA@sixhackarabic?$AA@ 0050f168     sdl_ttf:psmodule.obj
 0006:000110d8       ??_C@_0M@CFDIPMJB@sixgurmukhi?$AA@ 0050f178     sdl_ttf:psmodule.obj
 0006:000110e4       ??_C@_0M@MOGKIICD@sixgujarati?$AA@ 0050f184     sdl_ttf:psmodule.obj
 0006:000110f0       ??_C@_07NINKIMH@sixdeva?$AA@ 0050f190     sdl_ttf:psmodule.obj
 0006:000110f8       ??_C@_0BK@EFJFGMAB@sixcircleinversesansserif?$AA@ 0050f198     sdl_ttf:psmodule.obj
 0006:00011114       ??_C@_09OIBNFKMG@sixcircle?$AA@ 0050f1b4     sdl_ttf:psmodule.obj
 0006:00011120       ??_C@_0L@LBPFEHKJ@sixbengali?$AA@ 0050f1c0     sdl_ttf:psmodule.obj
 0006:0001112c       ??_C@_09NJPOFGON@sixarabic?$AA@ 0050f1cc     sdl_ttf:psmodule.obj
 0006:00011138       ??_C@_0BB@DBINHJAP@siostikeutkorean?$AA@ 0050f1d8     sdl_ttf:psmodule.obj
 0006:0001114c       ??_C@_0BA@GPDKMNBP@siospieupkorean?$AA@ 0050f1ec     sdl_ttf:psmodule.obj
 0006:0001115c       ??_C@_0BA@NFHKNHKD@siosparenkorean?$AA@ 0050f1fc     sdl_ttf:psmodule.obj
 0006:0001116c       ??_C@_0BA@ODCCNAOE@siosnieunkorean?$AA@ 0050f20c     sdl_ttf:psmodule.obj
 0006:0001117c       ??_C@_0L@DCNNHLGN@sioskorean?$AA@ 0050f21c     sdl_ttf:psmodule.obj
 0006:00011188       ??_C@_0BB@MIBFJMIC@sioskiyeokkorean?$AA@ 0050f228     sdl_ttf:psmodule.obj
 0006:0001119c       ??_C@_0BB@JACOJGBL@sioscirclekorean?$AA@ 0050f23c     sdl_ttf:psmodule.obj
 0006:000111b0       ??_C@_0BA@OGIIMENL@sioscieuckorean?$AA@ 0050f250     sdl_ttf:psmodule.obj
 0006:000111c0       ??_C@_0BB@GPHCBGCM@siosaparenkorean?$AA@ 0050f260     sdl_ttf:psmodule.obj
 0006:000111d4       ??_C@_0BC@ONJDAAGL@siosacirclekorean?$AA@ 0050f274     sdl_ttf:psmodule.obj
 0006:000111e8       ??_C@_0N@NPOGABCO@sindothebrew?$AA@ 0050f288     sdl_ttf:psmodule.obj
 0006:000111f8       ??_C@_07KDIIEELD@similar?$AA@ 0050f298     sdl_ttf:psmodule.obj
 0006:00011200       ??_C@_0BA@OJBPGHOB@siluqlefthebrew?$AA@ 0050f2a0     sdl_ttf:psmodule.obj
 0006:00011210       ??_C@_0M@BLEAHOI@siluqhebrew?$AA@ 0050f2b0     sdl_ttf:psmodule.obj
 0006:0001121c       ??_C@_0BE@FFGNAGAM@sikatakanahalfwidth?$AA@ 0050f2bc     sdl_ttf:psmodule.obj
 0006:00011230       ??_C@_0L@JEGFKIDG@sikatakana?$AA@ 0050f2d0     sdl_ttf:psmodule.obj
 0006:0001123c       ??_C@_0L@NICNFHHN@sihiragana?$AA@ 0050f2dc     sdl_ttf:psmodule.obj
 0006:00011248       ??_C@_0BH@MAHNBOFP@sigmalunatesymbolgreek?$AA@ 0050f2e8     sdl_ttf:psmodule.obj
 0006:00011260       ??_C@_0L@JBEMLHPK@sigmafinal?$AA@ 0050f300     sdl_ttf:psmodule.obj
 0006:0001126c       ??_C@_06PNPOJGID@sigma1?$AA@ 0050f30c     sdl_ttf:psmodule.obj
 0006:00011274       ??_C@_05MNLBPJCA@sigma?$AA@ 0050f314     sdl_ttf:psmodule.obj
 0006:0001127c       ??_C@_05MMAOMEJL@shook?$AA@ 0050f31c     sdl_ttf:psmodule.obj
 0006:00011284       ??_C@_0BB@BHALLJAL@shinsindothebrew?$AA@ 0050f324     sdl_ttf:psmodule.obj
 0006:00011298       ??_C@_0L@GMMMLGKA@shinsindot?$AA@ 0050f338     sdl_ttf:psmodule.obj
 0006:000112a4       ??_C@_0BC@IPCFIIHD@shinshindothebrew?$AA@ 0050f344     sdl_ttf:psmodule.obj
 0006:000112b8       ??_C@_0M@KLFJDLJB@shinshindot?$AA@ 0050f358     sdl_ttf:psmodule.obj
 0006:000112c4       ??_C@_0L@OIOPINLI@shinhebrew?$AA@ 0050f364     sdl_ttf:psmodule.obj
 0006:000112d0       ??_C@_0O@MEOJLBIM@shindothebrew?$AA@ 0050f370     sdl_ttf:psmodule.obj
 0006:000112e0       ??_C@_0BH@PEFCLEPP@shindageshsindothebrew?$AA@ 0050f380     sdl_ttf:psmodule.obj
 0006:000112f8       ??_C@_0BB@KJDPJENF@shindageshsindot?$AA@ 0050f398     sdl_ttf:psmodule.obj
 0006:0001130c       ??_C@_0BI@DFBGOHHL@shindageshshindothebrew?$AA@ 0050f3ac     sdl_ttf:psmodule.obj
 0006:00011324       ??_C@_0BC@ILPDENAA@shindageshshindot?$AA@ 0050f3c4     sdl_ttf:psmodule.obj
 0006:00011338       ??_C@_0BB@CNBMKPMN@shindageshhebrew?$AA@ 0050f3d8     sdl_ttf:psmodule.obj
 0006:0001134c       ??_C@_0L@GEABJENA@shindagesh?$AA@ 0050f3ec     sdl_ttf:psmodule.obj
 0006:00011358       ??_C@_04MFEFPLJH@shin?$AA@ 0050f3f8     sdl_ttf:psmodule.obj
 0006:00011360       ??_C@_0M@PGNDAALN@shimacoptic?$AA@ 0050f400     sdl_ttf:psmodule.obj
 0006:0001136c       ??_C@_0N@KLMABJIE@shhacyrillic?$AA@ 0050f40c     sdl_ttf:psmodule.obj
 0006:0001137c       ??_C@_0BA@EGGMHIEJ@shevawidehebrew?$AA@ 0050f41c     sdl_ttf:psmodule.obj
 0006:0001138c       ??_C@_0BD@NAGLJPJJ@shevaquarterhebrew?$AA@ 0050f42c     sdl_ttf:psmodule.obj
 0006:000113a0       ??_C@_0BC@ICAKPJNB@shevanarrowhebrew?$AA@ 0050f440     sdl_ttf:psmodule.obj
 0006:000113b4       ??_C@_0M@HJBJPOAM@shevahebrew?$AA@ 0050f454     sdl_ttf:psmodule.obj
 0006:000113c0       ??_C@_07JCAPABJL@sheva2e?$AA@ 0050f460     sdl_ttf:psmodule.obj
 0006:000113c8       ??_C@_07GHPFMKAI@sheva22?$AA@ 0050f468     sdl_ttf:psmodule.obj
 0006:000113d0       ??_C@_07CKPCOCJG@sheva15?$AA@ 0050f470     sdl_ttf:psmodule.obj
 0006:000113d8       ??_C@_08LMHOKOPJ@sheva115?$AA@ 0050f478     sdl_ttf:psmodule.obj
 0006:000113e4       ??_C@_05EKKLFEIK@sheva?$AA@ 0050f484     sdl_ttf:psmodule.obj
 0006:000113ec       ??_C@_0N@JMJFCAKJ@sheqelhebrew?$AA@ 0050f48c     sdl_ttf:psmodule.obj
 0006:000113fc       ??_C@_06FOLBHFKE@sheqel?$AA@ 0050f49c     sdl_ttf:psmodule.obj
 0006:00011404       ??_C@_0L@LPHNLFCG@sheicoptic?$AA@ 0050f4a4     sdl_ttf:psmodule.obj
 0006:00011410       ??_C@_0BC@PEBFBJFG@sheenmedialarabic?$AA@ 0050f4b0     sdl_ttf:psmodule.obj
 0006:00011424       ??_C@_0BD@POFLFNDF@sheeninitialarabic?$AA@ 0050f4c4     sdl_ttf:psmodule.obj
 0006:00011438       ??_C@_0BB@HOLKHCBP@sheenfinalarabic?$AA@ 0050f4d8     sdl_ttf:psmodule.obj
 0006:0001144c       ??_C@_0M@IODCOGJK@sheenarabic?$AA@ 0050f4ec     sdl_ttf:psmodule.obj
 0006:00011458       ??_C@_0O@MBFNANCI@shchacyrillic?$AA@ 0050f4f8     sdl_ttf:psmodule.obj
 0006:00011468       ??_C@_0L@PDMENMKH@shbopomofo?$AA@ 0050f508     sdl_ttf:psmodule.obj
 0006:00011474       ??_C@_0BB@HJBLAGA@shalshelethebrew?$AA@ 0050f514     sdl_ttf:psmodule.obj
 0006:00011488       ??_C@_0M@DPANIJHD@shagurmukhi?$AA@ 0050f528     sdl_ttf:psmodule.obj
 0006:00011494       ??_C@_0M@NEFPPNMB@shagujarati?$AA@ 0050f534     sdl_ttf:psmodule.obj
 0006:000114a0       ??_C@_07IPCDPACA@shadeva?$AA@ 0050f540     sdl_ttf:psmodule.obj
 0006:000114a8       ??_C@_0M@IAOFGJEJ@shademedium?$AA@ 0050f548     sdl_ttf:psmodule.obj
 0006:000114b4       ??_C@_0L@LHMNFFEM@shadelight?$AA@ 0050f554     sdl_ttf:psmodule.obj
 0006:000114c0       ??_C@_09ODGFJDCN@shadedark?$AA@ 0050f560     sdl_ttf:psmodule.obj
 0006:000114cc       ??_C@_05LOAHHBMH@shade?$AA@ 0050f56c     sdl_ttf:psmodule.obj
 0006:000114d4       ??_C@_0BF@GNGIAGCK@shaddakasratanarabic?$AA@ 0050f574     sdl_ttf:psmodule.obj
 0006:000114ec       ??_C@_0BC@HHPAOIEB@shaddakasraarabic?$AA@ 0050f58c     sdl_ttf:psmodule.obj
 0006:00011500       ??_C@_0BF@KDKHHOD@shaddafathatanarabic?$AA@ 0050f5a0     sdl_ttf:psmodule.obj
 0006:00011518       ??_C@_0BC@DCGNDKDJ@shaddafathaarabic?$AA@ 0050f5b8     sdl_ttf:psmodule.obj
 0006:0001152c       ??_C@_0BF@JINBNFA@shaddadammatanarabic?$AA@ 0050f5cc     sdl_ttf:psmodule.obj
 0006:00011544       ??_C@_0BC@EPHKELML@shaddadammaarabic?$AA@ 0050f5e4     sdl_ttf:psmodule.obj
 0006:00011558       ??_C@_0N@NKPDGMJL@shaddaarabic?$AA@ 0050f5f8     sdl_ttf:psmodule.obj
 0006:00011568       ??_C@_0M@KFNFMANB@shacyrillic?$AA@ 0050f608     sdl_ttf:psmodule.obj
 0006:00011574       ??_C@_0L@FOFENILN@shabengali?$AA@ 0050f614     sdl_ttf:psmodule.obj
 0006:00011580       ??_C@_0M@MGLOFEPK@shaarmenian?$AA@ 0050f620     sdl_ttf:psmodule.obj
 0006:0001158c       ??_C@_09CADOOABM@sfthyphen?$AA@ 0050f62c     sdl_ttf:psmodule.obj
 0006:00011598       ??_C@_09JJFKBAJM@seventhai?$AA@ 0050f638     sdl_ttf:psmodule.obj
 0006:000115a4       ??_C@_0BA@MNJGJJPM@seventeenperiod?$AA@ 0050f644     sdl_ttf:psmodule.obj
 0006:000115b4       ??_C@_0P@OOMBKEFB@seventeenparen?$AA@ 0050f654     sdl_ttf:psmodule.obj
 0006:000115c4       ??_C@_0BA@JIICLAKI@seventeencircle?$AA@ 0050f664     sdl_ttf:psmodule.obj
 0006:000115d4       ??_C@_0L@CCOCBCFL@sevenroman?$AA@ 0050f674     sdl_ttf:psmodule.obj
 0006:000115e0       ??_C@_0N@ILLPCECN@sevenpersian?$AA@ 0050f680     sdl_ttf:psmodule.obj
 0006:000115f0       ??_C@_0M@ONMILEAJ@sevenperiod?$AA@ 0050f690     sdl_ttf:psmodule.obj
 0006:000115fc       ??_C@_0L@NPGJOCCE@sevenparen?$AA@ 0050f69c     sdl_ttf:psmodule.obj
 0006:00011608       ??_C@_0P@CFIIACJL@sevenmonospace?$AA@ 0050f6a8     sdl_ttf:psmodule.obj
 0006:00011618       ??_C@_0BG@EKNHJLFA@sevenideographicparen?$AA@ 0050f6b8     sdl_ttf:psmodule.obj
 0006:00011630       ??_C@_0O@OHPNPOKJ@sevenhangzhou?$AA@ 0050f6d0     sdl_ttf:psmodule.obj
 0006:00011640       ??_C@_0BA@DPJMDNBL@sevenhackarabic?$AA@ 0050f6e0     sdl_ttf:psmodule.obj
 0006:00011650       ??_C@_0O@LCINKIJC@sevengurmukhi?$AA@ 0050f6f0     sdl_ttf:psmodule.obj
 0006:00011660       ??_C@_0O@FJNPNMCA@sevengujarati?$AA@ 0050f700     sdl_ttf:psmodule.obj
 0006:00011670       ??_C@_09NKGAGADO@sevendeva?$AA@ 0050f710     sdl_ttf:psmodule.obj
 0006:0001167c       ??_C@_0BM@OMKGNOBO@sevencircleinversesansserif?$AA@ 0050f71c     sdl_ttf:psmodule.obj
 0006:00011698       ??_C@_0M@LINMJNFN@sevencircle?$AA@ 0050f738     sdl_ttf:psmodule.obj
 0006:000116a4       ??_C@_0N@NGHIMMKC@sevenbengali?$AA@ 0050f744     sdl_ttf:psmodule.obj
 0006:000116b4       ??_C@_0M@IJDPJBHG@sevenarabic?$AA@ 0050f754     sdl_ttf:psmodule.obj
 0006:000116c0       ??_C@_0M@HNHOIMDE@sentosquare?$AA@ 0050f760     sdl_ttf:psmodule.obj
 0006:000116cc       ??_C@_0M@LLBBIFLD@sentisquare?$AA@ 0050f76c     sdl_ttf:psmodule.obj
 0006:000116d8       ??_C@_0BM@CDPALJAL@semivoicedmarkkanahalfwidth?$AA@ 0050f778     sdl_ttf:psmodule.obj
 0006:000116f4       ??_C@_0BD@FCILJIPJ@semivoicedmarkkana?$AA@ 0050f794     sdl_ttf:psmodule.obj
 0006:00011708       ??_C@_0P@KNJDFDPB@semicolonsmall?$AA@ 0050f7a8     sdl_ttf:psmodule.obj
 0006:00011718       ??_C@_0BD@IHKBFMDH@semicolonmonospace?$AA@ 0050f7b8     sdl_ttf:psmodule.obj
 0006:0001172c       ??_C@_0BA@GABCOBMM@semicolonarabic?$AA@ 0050f7cc     sdl_ttf:psmodule.obj
 0006:0001173c       ??_C@_0BE@LFKEBGGL@sekatakanahalfwidth?$AA@ 0050f7dc     sdl_ttf:psmodule.obj
 0006:00011750       ??_C@_0L@IOFJEILI@sekatakana?$AA@ 0050f7f0     sdl_ttf:psmodule.obj
 0006:0001175c       ??_C@_0L@MCBBLHPD@sehiragana?$AA@ 0050f7fc     sdl_ttf:psmodule.obj
 0006:00011768       ??_C@_0M@PBDPDCDH@seharmenian?$AA@ 0050f808     sdl_ttf:psmodule.obj
 0006:00011774       ??_C@_0BA@PGDBGDDE@segolwidehebrew?$AA@ 0050f814     sdl_ttf:psmodule.obj
 0006:00011784       ??_C@_0O@KCGDHODL@segoltahebrew?$AA@ 0050f824     sdl_ttf:psmodule.obj
 0006:00011794       ??_C@_0BD@DAKOICPJ@segolquarterhebrew?$AA@ 0050f834     sdl_ttf:psmodule.obj
 0006:000117a8       ??_C@_0BC@JCPOIHNL@segolnarrowhebrew?$AA@ 0050f848     sdl_ttf:psmodule.obj
 0006:000117bc       ??_C@_0M@CNBOICMN@segolhebrew?$AA@ 0050f85c     sdl_ttf:psmodule.obj
 0006:000117c8       ??_C@_07HHNAELPI@segol2c?$AA@ 0050f868     sdl_ttf:psmodule.obj
 0006:000117d0       ??_C@_07IOBABOE@segol1f?$AA@ 0050f870     sdl_ttf:psmodule.obj
 0006:000117d8       ??_C@_07MPCNKIPF@segol13?$AA@ 0050f878     sdl_ttf:psmodule.obj
 0006:000117e0       ??_C@_05LOGLLOAC@segol?$AA@ 0050f880     sdl_ttf:psmodule.obj
 0006:000117e8       ??_C@_0BB@NLNEODOL@seenmedialarabic?$AA@ 0050f888     sdl_ttf:psmodule.obj
 0006:000117fc       ??_C@_0BC@ELKEFDPO@seeninitialarabic?$AA@ 0050f89c     sdl_ttf:psmodule.obj
 0006:00011810       ??_C@_0BA@NADMEICD@seenfinalarabic?$AA@ 0050f8b0     sdl_ttf:psmodule.obj
 0006:00011820       ??_C@_0L@EAGDIBJC@seenarabic?$AA@ 0050f8c0     sdl_ttf:psmodule.obj
 0006:0001182c       ??_C@_0BC@CDMJEDJD@secondtonechinese?$AA@ 0050f8cc     sdl_ttf:psmodule.obj
 0006:00011840       ??_C@_06BJCFNGJP@second?$AA@ 0050f8e0     sdl_ttf:psmodule.obj
 0006:00011848       ??_C@_0BA@PBHCEFBC@seagullbelowcmb?$AA@ 0050f8e8     sdl_ttf:psmodule.obj
 0006:00011858       ??_C@_0BD@FMHBEIEC@sdotbelowdotaccent?$AA@ 0050f8f8     sdl_ttf:psmodule.obj
 0006:0001186c       ??_C@_09FHIDECGO@sdotbelow?$AA@ 0050f90c     sdl_ttf:psmodule.obj
 0006:00011878       ??_C@_0L@PIKFGFCF@sdotaccent?$AA@ 0050f918     sdl_ttf:psmodule.obj
 0006:00011884       ??_C@_0N@IGPAFGPG@scommaaccent?$AA@ 0050f924     sdl_ttf:psmodule.obj
 0006:00011894       ??_C@_0M@HHEJCKHH@scircumflex?$AA@ 0050f934     sdl_ttf:psmodule.obj
 0006:000118a0       ??_C@_07NOGBPIOL@scircle?$AA@ 0050f940     sdl_ttf:psmodule.obj
 0006:000118a8       ??_C@_09ICAJHIIP@schwahook?$AA@ 0050f948     sdl_ttf:psmodule.obj
 0006:000118b4       ??_C@_0BG@FLJAOBLC@schwadieresiscyrillic?$AA@ 0050f954     sdl_ttf:psmodule.obj
 0006:000118cc       ??_C@_0O@GKAICGII@schwacyrillic?$AA@ 0050f96c     sdl_ttf:psmodule.obj
 0006:000118dc       ??_C@_05MONDNHHB@schwa?$AA@ 0050f97c     sdl_ttf:psmodule.obj
 0006:000118e4       ??_C@_08BMKOKIDC@scedilla?$AA@ 0050f984     sdl_ttf:psmodule.obj
 0006:000118f0       ??_C@_0BA@COKKGKMI@scarondotaccent?$AA@ 0050f990     sdl_ttf:psmodule.obj
 0006:00011900       ??_C@_09MDEHELNA@sbopomofo?$AA@ 0050f9a0     sdl_ttf:psmodule.obj
 0006:0001190c       ??_C@_0L@OFNMNFDN@sarauuthai?$AA@ 0050f9ac     sdl_ttf:psmodule.obj
 0006:00011918       ??_C@_09NNKCJJCB@sarauthai?$AA@ 0050f9b8     sdl_ttf:psmodule.obj
 0006:00011924       ??_C@_0L@OGAKNHKG@sarauethai?$AA@ 0050f9c4     sdl_ttf:psmodule.obj
 0006:00011930       ??_C@_0P@KKFIPIMC@saraueleftthai?$AA@ 0050f9d0     sdl_ttf:psmodule.obj
 0006:00011940       ??_C@_0M@JFONGJGL@saraueethai?$AA@ 0050f9e0     sdl_ttf:psmodule.obj
 0006:0001194c       ??_C@_0BA@DJIMFIKO@saraueeleftthai?$AA@ 0050f9ec     sdl_ttf:psmodule.obj
 0006:0001195c       ??_C@_09HPOPLINM@saraothai?$AA@ 0050f9fc     sdl_ttf:psmodule.obj
 0006:00011968       ??_C@_09KJLGFLMB@saraithai?$AA@ 0050fa08     sdl_ttf:psmodule.obj
 0006:00011974       ??_C@_0O@EKJFGICJ@saraileftthai?$AA@ 0050fa14     sdl_ttf:psmodule.obj
 0006:00011984       ??_C@_0L@DBLGOBGH@saraiithai?$AA@ 0050fa24     sdl_ttf:psmodule.obj
 0006:00011990       ??_C@_0P@BEIIEOEA@saraiileftthai?$AA@ 0050fa30     sdl_ttf:psmodule.obj
 0006:000119a0       ??_C@_09NOHEJLLK@saraethai?$AA@ 0050fa40     sdl_ttf:psmodule.obj
 0006:000119ac       ??_C@_09EFOFNJKM@saraathai?$AA@ 0050fa4c     sdl_ttf:psmodule.obj
 0006:000119b8       ??_C@_0L@JJMIONBG@saraamthai?$AA@ 0050fa58     sdl_ttf:psmodule.obj
 0006:000119c4       ??_C@_0BC@CHOCGAIP@saraaimaimuanthai?$AA@ 0050fa64     sdl_ttf:psmodule.obj
 0006:000119d8       ??_C@_0BD@DMDNKPIO@saraaimaimalaithai?$AA@ 0050fa78     sdl_ttf:psmodule.obj
 0006:000119ec       ??_C@_0L@HFJLGPHL@saraaethai?$AA@ 0050fa8c     sdl_ttf:psmodule.obj
 0006:000119f8       ??_C@_0L@OOAKCNGN@saraaathai?$AA@ 0050fa98     sdl_ttf:psmodule.obj
 0006:00011a04       ??_C@_0N@NJDCAPIH@samekhhebrew?$AA@ 0050faa4     sdl_ttf:psmodule.obj
 0006:00011a14       ??_C@_0BD@OCIBBHKE@samekhdageshhebrew?$AA@ 0050fab4     sdl_ttf:psmodule.obj
 0006:00011a28       ??_C@_0N@FFNMBGOP@samekhdagesh?$AA@ 0050fac8     sdl_ttf:psmodule.obj
 0006:00011a38       ??_C@_06PIEHEHGL@samekh?$AA@ 0050fad8     sdl_ttf:psmodule.obj
 0006:00011a40       ??_C@_0CA@BBFFIEON@sallallahoualayhewasallamarabic?$AA@ 0050fae0     sdl_ttf:psmodule.obj
 0006:00011a60       ??_C@_0BE@FMMMBLIJ@sakatakanahalfwidth?$AA@ 0050fb00     sdl_ttf:psmodule.obj
 0006:00011a74       ??_C@_0L@IHLCOIMC@sakatakana?$AA@ 0050fb14     sdl_ttf:psmodule.obj
 0006:00011a80       ??_C@_0L@MLPKBHIJ@sahiragana?$AA@ 0050fb20     sdl_ttf:psmodule.obj
 0006:00011a8c       ??_C@_0L@PBFMOOHL@sagurmukhi?$AA@ 0050fb2c     sdl_ttf:psmodule.obj
 0006:00011a98       ??_C@_0L@BKAOJKMJ@sagujarati?$AA@ 0050fb38     sdl_ttf:psmodule.obj
 0006:00011aa4       ??_C@_0BA@CEFDCEHG@sadmedialarabic?$AA@ 0050fb44     sdl_ttf:psmodule.obj
 0006:00011ab4       ??_C@_0BB@MFOFDLMA@sadinitialarabic?$AA@ 0050fb54     sdl_ttf:psmodule.obj
 0006:00011ac8       ??_C@_0P@FIJBKFPK@sadfinalarabic?$AA@ 0050fb68     sdl_ttf:psmodule.obj
 0006:00011ad8       ??_C@_06DAGLKOHA@sadeva?$AA@ 0050fb78     sdl_ttf:psmodule.obj
 0006:00011ae0       ??_C@_09EJDCNAJB@sadarabic?$AA@ 0050fb80     sdl_ttf:psmodule.obj
 0006:00011aec       ??_C@_0BA@EEJKNHBK@sacutedotaccent?$AA@ 0050fb8c     sdl_ttf:psmodule.obj
 0006:00011afc       ??_C@_06LFLKDEJF@sacute?$AA@ 0050fb9c     sdl_ttf:psmodule.obj
 0006:00011b04       ??_C@_09GONHEPMK@sabengali?$AA@ 0050fba4     sdl_ttf:psmodule.obj
 0006:00011b10       ??_C@_0BK@JMENBGLB@rvocalicvowelsigngujarati?$AA@ 0050fbb0     sdl_ttf:psmodule.obj
 0006:00011b2c       ??_C@_0BG@DJBNPDED@rvocalicvowelsigndeva?$AA@ 0050fbcc     sdl_ttf:psmodule.obj
 0006:00011b44       ??_C@_0BJ@POIJODBK@rvocalicvowelsignbengali?$AA@ 0050fbe4     sdl_ttf:psmodule.obj
 0006:00011b60       ??_C@_0BB@NEICBMHN@rvocalicgujarati?$AA@ 0050fc00     sdl_ttf:psmodule.obj
 0006:00011b74       ??_C@_0N@IGKEFEC@rvocalicdeva?$AA@ 0050fc14     sdl_ttf:psmodule.obj
 0006:00011b84       ??_C@_0BA@IDLFGELN@rvocalicbengali?$AA@ 0050fc24     sdl_ttf:psmodule.obj
 0006:00011b94       ??_C@_06ENGBJFOL@ruthai?$AA@ 0050fc34     sdl_ttf:psmodule.obj
 0006:00011b9c       ??_C@_0BB@MFEKKBOF@rupeesignbengali?$AA@ 0050fc3c     sdl_ttf:psmodule.obj
 0006:00011bb0       ??_C@_0BB@BBLAHBKB@rupeemarkbengali?$AA@ 0050fc50     sdl_ttf:psmodule.obj
 0006:00011bc4       ??_C@_0BE@MDIBBGCH@rukatakanahalfwidth?$AA@ 0050fc64     sdl_ttf:psmodule.obj
 0006:00011bd8       ??_C@_0L@GIHJBGJA@rukatakana?$AA@ 0050fc78     sdl_ttf:psmodule.obj
 0006:00011be4       ??_C@_0L@CEDBOJNL@ruhiragana?$AA@ 0050fc84     sdl_ttf:psmodule.obj
 0006:00011bf0       ??_C@_0BA@EJFLBKPH@rturnedsuperior?$AA@ 0050fc90     sdl_ttf:psmodule.obj
 0006:00011c00       ??_C@_07CAAGEKMG@rturned?$AA@ 0050fca0     sdl_ttf:psmodule.obj
 0006:00011c08       ??_C@_07NKKMFGBO@rtblock?$AA@ 0050fca8     sdl_ttf:psmodule.obj
 0006:00011c10       ??_C@_0BL@LEPNJKFI@rrvocalicvowelsigngujarati?$AA@ 0050fcb0     sdl_ttf:psmodule.obj
 0006:00011c2c       ??_C@_0BH@IFPCGOK@rrvocalicvowelsigndeva?$AA@ 0050fccc     sdl_ttf:psmodule.obj
 0006:00011c44       ??_C@_0BK@EMLNJECC@rrvocalicvowelsignbengali?$AA@ 0050fce4     sdl_ttf:psmodule.obj
 0006:00011c60       ??_C@_0BC@LGMKNNEG@rrvocalicgujarati?$AA@ 0050fd00     sdl_ttf:psmodule.obj
 0006:00011c74       ??_C@_0O@NNKEANOP@rrvocalicdeva?$AA@ 0050fd14     sdl_ttf:psmodule.obj
 0006:00011c84       ??_C@_0BB@BGGJIAOB@rrvocalicbengali?$AA@ 0050fd24     sdl_ttf:psmodule.obj
 0006:00011c98       ??_C@_0BA@BNCJGDK@rrehfinalarabic?$AA@ 0050fd38     sdl_ttf:psmodule.obj
 0006:00011ca8       ??_C@_0L@ICPAMNEE@rreharabic?$AA@ 0050fd48     sdl_ttf:psmodule.obj
 0006:00011cb4       ??_C@_0M@OIPBFJFD@rragurmukhi?$AA@ 0050fd54     sdl_ttf:psmodule.obj
 0006:00011cc0       ??_C@_07IACHDDDO@rradeva?$AA@ 0050fd60     sdl_ttf:psmodule.obj
 0006:00011cc8       ??_C@_0L@KPFGBGFM@rrabengali?$AA@ 0050fd68     sdl_ttf:psmodule.obj
 0006:00011cd4       ??_C@_06MCEAJFEK@rparen?$AA@ 0050fd74     sdl_ttf:psmodule.obj
 0006:00011cdc       ??_C@_09PBHENBNN@roruathai?$AA@ 0050fd7c     sdl_ttf:psmodule.obj
 0006:00011ce8       ??_C@_0BE@KNNGDGFJ@rokatakanahalfwidth?$AA@ 0050fd88     sdl_ttf:psmodule.obj
 0006:00011cfc       ??_C@_0L@FIPFAHLB@rokatakana?$AA@ 0050fd9c     sdl_ttf:psmodule.obj
 0006:00011d08       ??_C@_0L@BELNPIPK@rohiragana?$AA@ 0050fda8     sdl_ttf:psmodule.obj
 0006:00011d14       ??_C@_0L@IIIPAPEM@rmonospace?$AA@ 0050fdb4     sdl_ttf:psmodule.obj
 0006:00011d20       ??_C@_0P@OCHOMPON@rlonglegturned?$AA@ 0050fdc0     sdl_ttf:psmodule.obj
 0006:00011d30       ??_C@_08DBKFPAJN@rlongleg?$AA@ 0050fdd0     sdl_ttf:psmodule.obj
 0006:00011d3c       ??_C@_0L@FDCJNKBA@rlinebelow?$AA@ 0050fddc     sdl_ttf:psmodule.obj
 0006:00011d48       ??_C@_0O@DPDEFJBB@rittorusquare?$AA@ 0050fde8     sdl_ttf:psmodule.obj
 0006:00011d58       ??_C@_0P@IALNLPFG@rinvertedbreve?$AA@ 0050fdf8     sdl_ttf:psmodule.obj
 0006:00011d68       ??_C@_0BG@EDPCNIM@ringhalfrightcentered?$AA@ 0050fe08     sdl_ttf:psmodule.obj
 0006:00011d80       ??_C@_0BG@EHAGNIJI@ringhalfrightbelowcmb?$AA@ 0050fe20     sdl_ttf:psmodule.obj
 0006:00011d98       ??_C@_0O@ILALFAKF@ringhalfright?$AA@ 0050fe38     sdl_ttf:psmodule.obj
 0006:00011da8       ??_C@_0BF@CHJLGDBC@ringhalfleftcentered?$AA@ 0050fe48     sdl_ttf:psmodule.obj
 0006:00011dc0       ??_C@_0BF@GEKCJGAG@ringhalfleftbelowcmb?$AA@ 0050fe60     sdl_ttf:psmodule.obj
 0006:00011dd8       ??_C@_0BF@ILFPBJNM@ringhalfleftarmenian?$AA@ 0050fe78     sdl_ttf:psmodule.obj
 0006:00011df0       ??_C@_0N@JADDFLEO@ringhalfleft?$AA@ 0050fe90     sdl_ttf:psmodule.obj
 0006:00011e00       ??_C@_07ENDNHDIB@ringcmb?$AA@ 0050fea0     sdl_ttf:psmodule.obj
 0006:00011e08       ??_C@_0N@IEMOCNJL@ringbelowcmb?$AA@ 0050fea8     sdl_ttf:psmodule.obj
 0006:00011e18       ??_C@_0BE@DAAKDNEK@rikatakanahalfwidth?$AA@ 0050feb8     sdl_ttf:psmodule.obj
 0006:00011e2c       ??_C@_0L@FFOLHHPG@rikatakana?$AA@ 0050fecc     sdl_ttf:psmodule.obj
 0006:00011e38       ??_C@_0L@BJKDIILN@rihiragana?$AA@ 0050fed8     sdl_ttf:psmodule.obj
 0006:00011e44       ??_C@_0O@KCFEIMLD@righttriangle?$AA@ 0050fee4     sdl_ttf:psmodule.obj
 0006:00011e54       ??_C@_0BC@PPMDEMCO@righttackbelowcmb?$AA@ 0050fef4     sdl_ttf:psmodule.obj
 0006:00011e68       ??_C@_0L@CGPDFOAP@rightangle?$AA@ 0050ff08     sdl_ttf:psmodule.obj
 0006:00011e74       ??_C@_0BH@LEEHCAPJ@rieulyeorinhieuhkorean?$AA@ 0050ff14     sdl_ttf:psmodule.obj
 0006:00011e8c       ??_C@_0BC@MCNBEHBL@rieultikeutkorean?$AA@ 0050ff2c     sdl_ttf:psmodule.obj
 0006:00011ea0       ??_C@_0BD@NDACLANF@rieulthieuthkorean?$AA@ 0050ff40     sdl_ttf:psmodule.obj
 0006:00011eb4       ??_C@_0BA@FLJGEKHI@rieulsioskorean?$AA@ 0050ff54     sdl_ttf:psmodule.obj
 0006:00011ec4       ??_C@_0BF@PNEDPKJP@rieulpieupsioskorean?$AA@ 0050ff64     sdl_ttf:psmodule.obj
 0006:00011edc       ??_C@_0BB@IKHFJBAN@rieulpieupkorean?$AA@ 0050ff7c     sdl_ttf:psmodule.obj
 0006:00011ef0       ??_C@_0BD@JHECGOMC@rieulphieuphkorean?$AA@ 0050ff90     sdl_ttf:psmodule.obj
 0006:00011f04       ??_C@_0BB@DADFILLB@rieulparenkorean?$AA@ 0050ffa4     sdl_ttf:psmodule.obj
 0006:00011f18       ??_C@_0BD@ENDGECJG@rieulpansioskorean?$AA@ 0050ffb8     sdl_ttf:psmodule.obj
 0006:00011f2c       ??_C@_0BB@PPHMFJOF@rieulmieumkorean?$AA@ 0050ffcc     sdl_ttf:psmodule.obj
 0006:00011f40       ??_C@_0M@CAOOIECM@rieulkorean?$AA@ 0050ffe0     sdl_ttf:psmodule.obj
 0006:00011f4c       ??_C@_0BG@HOLKDNBG@rieulkiyeoksioskorean?$AA@ 0050ffec     sdl_ttf:psmodule.obj
 0006:00011f64       ??_C@_0BC@DLEJKCJG@rieulkiyeokkorean?$AA@ 00510004     sdl_ttf:psmodule.obj
 0006:00011f78       ??_C@_0BB@CPDPCAJB@rieulhieuhkorean?$AA@ 00510018     sdl_ttf:psmodule.obj
 0006:00011f8c       ??_C@_0BC@GDHCKIAP@rieulcirclekorean?$AA@ 0051002c     sdl_ttf:psmodule.obj
 0006:00011fa0       ??_C@_0BC@JMCOCIDI@rieulaparenkorean?$AA@ 00510040     sdl_ttf:psmodule.obj
 0006:00011fb4       ??_C@_0BD@PHLKIICI@rieulacirclekorean?$AA@ 00510054     sdl_ttf:psmodule.obj
 0006:00011fc8       ??_C@_0O@MPHCMJIB@rhotichookmod?$AA@ 00510068     sdl_ttf:psmodule.obj
 0006:00011fd8       ??_C@_0P@IHBFLEJM@rhosymbolgreek?$AA@ 00510078     sdl_ttf:psmodule.obj
 0006:00011fe8       ??_C@_0BE@FCJLFIIB@rhookturnedsuperior?$AA@ 00510088     sdl_ttf:psmodule.obj
 0006:00011ffc       ??_C@_0M@NMFFAAFO@rhookturned?$AA@ 0051009c     sdl_ttf:psmodule.obj
 0006:00012008       ??_C@_05HFCBHDO@rhook?$AA@ 005100a8     sdl_ttf:psmodule.obj
 0006:00012010       ??_C@_03LLCMKFAE@rho?$AA@  005100b0     sdl_ttf:psmodule.obj
 0006:00012014       ??_C@_07EDIJPALO@rhadeva?$AA@ 005100b4     sdl_ttf:psmodule.obj
 0006:0001201c       ??_C@_0L@JPNKAHHN@rhabengali?$AA@ 005100bc     sdl_ttf:psmodule.obj
 0006:00012028       ??_C@_0BC@MMBMPBO@rfishhookreversed?$AA@ 005100c8     sdl_ttf:psmodule.obj
 0006:0001203c       ??_C@_09DILGCDLL@rfishhook?$AA@ 005100dc     sdl_ttf:psmodule.obj
 0006:00012048       ??_C@_0O@IGHPBAGC@revlogicalnot?$AA@ 005100e8     sdl_ttf:psmodule.obj
 0006:00012058       ??_C@_0BD@IIHIBPGC@reviamugrashhebrew?$AA@ 005100f8     sdl_ttf:psmodule.obj
 0006:0001206c       ??_C@_0M@JGMIEICP@reviahebrew?$AA@ 0051010c     sdl_ttf:psmodule.obj
 0006:00012078       ??_C@_0O@CCDIAECB@reversedtilde?$AA@ 00510118     sdl_ttf:psmodule.obj
 0006:00012088       ??_C@_0BA@CFBPHEHP@reshtserehebrew?$AA@ 00510128     sdl_ttf:psmodule.obj
 0006:00012098       ??_C@_09PHNGDBD@reshtsere?$AA@ 00510138     sdl_ttf:psmodule.obj
 0006:000120a4       ??_C@_0BA@FPGIBIJ@reshshevahebrew?$AA@ 00510144     sdl_ttf:psmodule.obj
 0006:000120b4       ??_C@_09GGCNJIOA@reshsheva?$AA@ 00510154     sdl_ttf:psmodule.obj
 0006:000120c0       ??_C@_0BA@FBPBPNEI@reshsegolhebrew?$AA@ 00510160     sdl_ttf:psmodule.obj
 0006:000120d0       ??_C@_09JCONHCGI@reshsegol?$AA@ 00510170     sdl_ttf:psmodule.obj
 0006:000120dc       ??_C@_0BB@MNCACBGM@reshqubutshebrew?$AA@ 0051017c     sdl_ttf:psmodule.obj
 0006:000120f0       ??_C@_0L@DGNBPHNM@reshqubuts?$AA@ 00510190     sdl_ttf:psmodule.obj
 0006:000120fc       ??_C@_0BB@HPIDCCLL@reshqamatshebrew?$AA@ 0051019c     sdl_ttf:psmodule.obj
 0006:00012110       ??_C@_0L@PDLNOAEI@reshqamats?$AA@ 005101b0     sdl_ttf:psmodule.obj
 0006:0001211c       ??_C@_0BA@BGKHLDLJ@reshpatahhebrew?$AA@ 005101bc     sdl_ttf:psmodule.obj
 0006:0001212c       ??_C@_09MNKHLGHJ@reshpatah?$AA@ 005101cc     sdl_ttf:psmodule.obj
 0006:00012138       ??_C@_0BA@DCFMMMMF@reshholamhebrew?$AA@ 005101d8     sdl_ttf:psmodule.obj
 0006:00012148       ??_C@_09HFMIADNL@reshholam?$AA@ 005101e8     sdl_ttf:psmodule.obj
 0006:00012154       ??_C@_0BA@HDECDBKB@reshhiriqhebrew?$AA@ 005101f4     sdl_ttf:psmodule.obj
 0006:00012164       ??_C@_09KCCKNKDC@reshhiriq?$AA@ 00510204     sdl_ttf:psmodule.obj
 0006:00012170       ??_C@_0L@CDBOBIKA@reshhebrew?$AA@ 00510210     sdl_ttf:psmodule.obj
 0006:0001217c       ??_C@_0BF@MFHCELMF@reshhatafsegolhebrew?$AA@ 0051021c     sdl_ttf:psmodule.obj
 0006:00012194       ??_C@_0P@NKOEMPJD@reshhatafsegol?$AA@ 00510234     sdl_ttf:psmodule.obj
 0006:000121a4       ??_C@_0BF@ICCEAFDE@reshhatafpatahhebrew?$AA@ 00510244     sdl_ttf:psmodule.obj
 0006:000121bc       ??_C@_0P@IFKOALIC@reshhatafpatah?$AA@ 0051025c     sdl_ttf:psmodule.obj
 0006:000121cc       ??_C@_0BB@HIFPIPDI@reshdageshhebrew?$AA@ 0051026c     sdl_ttf:psmodule.obj
 0006:000121e0       ??_C@_04ENKEILNK@resh?$AA@ 00510280     sdl_ttf:psmodule.obj
 0006:000121e8       ??_C@_0BE@NAMDCNCN@rekatakanahalfwidth?$AA@ 00510288     sdl_ttf:psmodule.obj
 0006:000121fc       ??_C@_0L@EPNHJHHI@rekatakana?$AA@ 0051029c     sdl_ttf:psmodule.obj
 0006:00012208       ??_C@_0BE@IKLBGHII@rehyehaleflamarabic?$AA@ 005102a8     sdl_ttf:psmodule.obj
 0006:0001221c       ??_C@_0L@DJPGIDD@rehiragana?$AA@ 005102bc     sdl_ttf:psmodule.obj
 0006:00012228       ??_C@_0P@GCHMEIPC@rehfinalarabic?$AA@ 005102c8     sdl_ttf:psmodule.obj
 0006:00012238       ??_C@_0M@GKJKHOFI@reharmenian?$AA@ 005102d8     sdl_ttf:psmodule.obj
 0006:00012244       ??_C@_09KMLDPPOM@reharabic?$AA@ 005102e4     sdl_ttf:psmodule.obj
 0006:00012250       ??_C@_0O@HLPEKFPD@registerserif?$AA@ 005102f0     sdl_ttf:psmodule.obj
 0006:00012260       ??_C@_0N@MLCMKODP@registersans?$AA@ 00510300     sdl_ttf:psmodule.obj
 0006:00012270       ??_C@_0P@KPMDIKLP@reflexsuperset?$AA@ 00510310     sdl_ttf:psmodule.obj
 0006:00012280       ??_C@_0N@JJHBFFED@reflexsubset?$AA@ 00510320     sdl_ttf:psmodule.obj
 0006:00012290       ??_C@_0O@CAHPKNJB@referencemark?$AA@ 00510330     sdl_ttf:psmodule.obj
 0006:000122a0       ??_C@_0BA@KGCCILBG@rdotbelowmacron?$AA@ 00510340     sdl_ttf:psmodule.obj
 0006:000122b0       ??_C@_09LIEBCJFA@rdotbelow?$AA@ 00510350     sdl_ttf:psmodule.obj
 0006:000122bc       ??_C@_0L@DJCLLKOF@rdotaccent?$AA@ 0051035c     sdl_ttf:psmodule.obj
 0006:000122c8       ??_C@_09GMBBAEPI@rdblgrave?$AA@ 00510368     sdl_ttf:psmodule.obj
 0006:000122d4       ??_C@_0N@FLGGIPHD@rcommaaccent?$AA@ 00510374     sdl_ttf:psmodule.obj
 0006:000122e4       ??_C@_07BCMLPIHF@rcircle?$AA@ 00510384     sdl_ttf:psmodule.obj
 0006:000122ec       ??_C@_08LNFLMHB@rcedilla?$AA@ 0051038c     sdl_ttf:psmodule.obj
 0006:000122f8       ??_C@_06EKJFGAKJ@rcaron?$AA@ 00510398     sdl_ttf:psmodule.obj
 0006:00012300       ??_C@_09CMIFCAOO@rbopomofo?$AA@ 005103a0     sdl_ttf:psmodule.obj
 0006:0001230c       ??_C@_05ONLLBMGH@ratio?$AA@ 005103ac     sdl_ttf:psmodule.obj
 0006:00012314       ??_C@_08NKDJNDKD@ramshorn?$AA@ 005103b4     sdl_ttf:psmodule.obj
 0006:00012320       ??_C@_0BI@LOKHIEK@ramiddlediagonalbengali?$AA@ 005103c0     sdl_ttf:psmodule.obj
 0006:00012338       ??_C@_0BH@PGCBHHIH@ralowerdiagonalbengali?$AA@ 005103d8     sdl_ttf:psmodule.obj
 0006:00012350       ??_C@_0BE@DJKLCAMP@rakatakanahalfwidth?$AA@ 005103f0     sdl_ttf:psmodule.obj
 0006:00012364       ??_C@_0L@EGDMDHAC@rakatakana?$AA@ 00510404     sdl_ttf:psmodule.obj
 0006:00012370       ??_C@_0L@KHEMIEJ@rahiragana?$AA@ 00510410     sdl_ttf:psmodule.obj
 0006:0001237c       ??_C@_0L@DANCDBLL@ragurmukhi?$AA@ 0051041c     sdl_ttf:psmodule.obj
 0006:00012388       ??_C@_0L@NLIAEFAJ@ragujarati?$AA@ 00510428     sdl_ttf:psmodule.obj
 0006:00012394       ??_C@_0L@FHKHKKDF@rafehebrew?$AA@ 00510434     sdl_ttf:psmodule.obj
 0006:000123a0       ??_C@_04GNIFADFL@rafe?$AA@ 00510440     sdl_ttf:psmodule.obj
 0006:000123a8       ??_C@_09BBNJDBFN@radsquare?$AA@ 00510448     sdl_ttf:psmodule.obj
 0006:000123b4       ??_C@_0BG@KEIOEOGA@radoverssquaredsquare?$AA@ 00510454     sdl_ttf:psmodule.obj
 0006:000123cc       ??_C@_0P@DONCFILI@radoverssquare?$AA@ 0051046c     sdl_ttf:psmodule.obj
 0006:000123dc       ??_C@_09BNGGGBDL@radicalex?$AA@ 0051047c     sdl_ttf:psmodule.obj
 0006:000123e8       ??_C@_07PHOAHEAL@radical?$AA@ 00510488     sdl_ttf:psmodule.obj
 0006:000123f0       ??_C@_06JGBMKFME@radeva?$AA@ 00510490     sdl_ttf:psmodule.obj
 0006:000123f8       ??_C@_06BDMNDPCB@racute?$AA@ 00510498     sdl_ttf:psmodule.obj
 0006:00012400       ??_C@_09IBBFCEPE@rabengali?$AA@ 005104a0     sdl_ttf:psmodule.obj
 0006:0001240c       ??_C@_0L@MJGBOMDC@raarmenian?$AA@ 005104ac     sdl_ttf:psmodule.obj
 0006:00012418       ??_C@_0BF@MAHKFOGA@quotesinglemonospace?$AA@ 005104b8     sdl_ttf:psmodule.obj
 0006:00012430       ??_C@_0M@IIBCAEMF@quoterightn?$AA@ 005104d0     sdl_ttf:psmodule.obj
 0006:0001243c       ??_C@_0O@PJMGCDGB@quotereversed?$AA@ 005104dc     sdl_ttf:psmodule.obj
 0006:0001244c       ??_C@_0BC@FKIAKADH@quoteleftreversed?$AA@ 005104ec     sdl_ttf:psmodule.obj
 0006:00012460       ??_C@_0BG@HLIFIANO@quotedblprimereversed?$AA@ 00510500     sdl_ttf:psmodule.obj
 0006:00012478       ??_C@_0O@JEMAJGCJ@quotedblprime?$AA@ 00510518     sdl_ttf:psmodule.obj
 0006:00012488       ??_C@_0BC@PHGFGIBP@quotedblmonospace?$AA@ 00510528     sdl_ttf:psmodule.obj
 0006:0001249c       ??_C@_0BC@OCIFNIGC@questionmonospace?$AA@ 0051053c     sdl_ttf:psmodule.obj
 0006:000124b0       ??_C@_0O@KGOAJDBP@questiongreek?$AA@ 00510550     sdl_ttf:psmodule.obj
 0006:000124c0       ??_C@_0BB@JBEMDIGA@questionarmenian?$AA@ 00510560     sdl_ttf:psmodule.obj
 0006:000124d4       ??_C@_0P@MLHNKKCP@questionarabic?$AA@ 00510574     sdl_ttf:psmodule.obj
 0006:000124e4       ??_C@_0BB@FCHJCJCH@qubutswidehebrew?$AA@ 00510584     sdl_ttf:psmodule.obj
 0006:000124f8       ??_C@_0BE@FMFPPBFJ@qubutsquarterhebrew?$AA@ 00510598     sdl_ttf:psmodule.obj
 0006:0001250c       ??_C@_0BD@GFBIMKIP@qubutsnarrowhebrew?$AA@ 005105ac     sdl_ttf:psmodule.obj
 0006:00012520       ??_C@_0N@FAIOLJLM@qubutshebrew?$AA@ 005105c0     sdl_ttf:psmodule.obj
 0006:00012530       ??_C@_08MIPAHHIL@qubuts31?$AA@ 005105d0     sdl_ttf:psmodule.obj
 0006:0001253c       ??_C@_08KNFONILI@qubuts25?$AA@ 005105dc     sdl_ttf:psmodule.obj
 0006:00012548       ??_C@_08BKLGBIKM@qubuts18?$AA@ 005105e8     sdl_ttf:psmodule.obj
 0006:00012554       ??_C@_06JLJKPJFG@qubuts?$AA@ 005105f4     sdl_ttf:psmodule.obj
 0006:0001255c       ??_C@_0M@ONILKPFC@quarternote?$AA@ 005105fc     sdl_ttf:psmodule.obj
 0006:00012568       ??_C@_06PDKIIPNH@qparen?$AA@ 00510608     sdl_ttf:psmodule.obj
 0006:00012570       ??_C@_0P@DOAOPBGK@qoftserehebrew?$AA@ 00510610     sdl_ttf:psmodule.obj
 0006:00012580       ??_C@_08HCEFAGCK@qoftsere?$AA@ 00510620     sdl_ttf:psmodule.obj
 0006:0001258c       ??_C@_0P@BOOHAEJM@qofshevahebrew?$AA@ 0051062c     sdl_ttf:psmodule.obj
 0006:0001259c       ??_C@_08BLBFPNNJ@qofsheva?$AA@ 0051063c     sdl_ttf:psmodule.obj
 0006:000125a8       ??_C@_0P@EKOAHIFN@qofsegolhebrew?$AA@ 00510648     sdl_ttf:psmodule.obj
 0006:000125b8       ??_C@_08OPNFBHFB@qofsegol?$AA@ 00510658     sdl_ttf:psmodule.obj
 0006:000125c4       ??_C@_0BA@KAOGNEAC@qofqubutshebrew?$AA@ 00510664     sdl_ttf:psmodule.obj
 0006:000125d4       ??_C@_09GJKJEHLB@qofqubuts?$AA@ 00510674     sdl_ttf:psmodule.obj
 0006:000125e0       ??_C@_0BA@BCEFNHNF@qofqamatshebrew?$AA@ 00510680     sdl_ttf:psmodule.obj
 0006:000125f0       ??_C@_09KMMFFACF@qofqamats?$AA@ 00510690     sdl_ttf:psmodule.obj
 0006:000125fc       ??_C@_0P@NLGDGKM@qofpatahhebrew?$AA@ 0051069c     sdl_ttf:psmodule.obj
 0006:0001260c       ??_C@_08LAJPNDEA@qofpatah?$AA@ 005106ac     sdl_ttf:psmodule.obj
 0006:00012618       ??_C@_0P@CJENEJNA@qofholamhebrew?$AA@ 005106b8     sdl_ttf:psmodule.obj
 0006:00012628       ??_C@_08IPAGGOC@qofholam?$AA@ 005106c8     sdl_ttf:psmodule.obj
 0006:00012634       ??_C@_0P@GIFDLELE@qofhiriqhebrew?$AA@ 005106d4     sdl_ttf:psmodule.obj
 0006:00012644       ??_C@_08NPBCLPAL@qofhiriq?$AA@ 005106e4     sdl_ttf:psmodule.obj
 0006:00012650       ??_C@_09HMGGKIMN@qofhebrew?$AA@ 005106f0     sdl_ttf:psmodule.obj
 0006:0001265c       ??_C@_0BE@DCHBHOD@qofhatafsegolhebrew?$AA@ 005106fc     sdl_ttf:psmodule.obj
 0006:00012670       ??_C@_0O@MKMEKBMG@qofhatafsegol?$AA@ 00510710     sdl_ttf:psmodule.obj
 0006:00012680       ??_C@_0BE@EEHBFJBC@qofhatafpatahhebrew?$AA@ 00510720     sdl_ttf:psmodule.obj
 0006:00012694       ??_C@_0O@JFIOGFNH@qofhatafpatah?$AA@ 00510734     sdl_ttf:psmodule.obj
 0006:000126a4       ??_C@_0BA@BFJJHKFG@qofdageshhebrew?$AA@ 00510744     sdl_ttf:psmodule.obj
 0006:000126b4       ??_C@_09PAIILBKF@qofdagesh?$AA@ 00510754     sdl_ttf:psmodule.obj
 0006:000126c0       ??_C@_03HNBEKHCG@qof?$AA@  00510760     sdl_ttf:psmodule.obj
 0006:000126c4       ??_C@_0L@BBGNGJEN@qmonospace?$AA@ 00510764     sdl_ttf:psmodule.obj
 0006:000126d0       ??_C@_05IBMGGFJA@qhook?$AA@ 00510770     sdl_ttf:psmodule.obj
 0006:000126d8       ??_C@_07JMEEPPJG@qcircle?$AA@ 00510778     sdl_ttf:psmodule.obj
 0006:000126e0       ??_C@_09MHLCJLON@qbopomofo?$AA@ 00510780     sdl_ttf:psmodule.obj
 0006:000126ec       ??_C@_0BB@OPFNDELI@qarneyparahebrew?$AA@ 0051078c     sdl_ttf:psmodule.obj
 0006:00012700       ??_C@_0BB@ELPJCLNE@qamatswidehebrew?$AA@ 005107a0     sdl_ttf:psmodule.obj
 0006:00012714       ??_C@_0BE@DEFDNNGL@qamatsquarterhebrew?$AA@ 005107b4     sdl_ttf:psmodule.obj
 0006:00012728       ??_C@_0BG@GDFJBMEG@qamatsqatanwidehebrew?$AA@ 005107c8     sdl_ttf:psmodule.obj
 0006:00012740       ??_C@_0BJ@IMBFLCAB@qamatsqatanquarterhebrew?$AA@ 005107e0     sdl_ttf:psmodule.obj
 0006:0001275c       ??_C@_0BI@EPENGFGK@qamatsqatannarrowhebrew?$AA@ 005107fc     sdl_ttf:psmodule.obj
 0006:00012774       ??_C@_0BC@MGAGEDND@qamatsqatanhebrew?$AA@ 00510814     sdl_ttf:psmodule.obj
 0006:00012788       ??_C@_0BD@LEIHAAFN@qamatsnarrowhebrew?$AA@ 00510828     sdl_ttf:psmodule.obj
 0006:0001279c       ??_C@_0N@OCCNLKGL@qamatshebrew?$AA@ 0051083c     sdl_ttf:psmodule.obj
 0006:000127ac       ??_C@_08OJCKNIFL@qamatsde?$AA@ 0051084c     sdl_ttf:psmodule.obj
 0006:000127b8       ??_C@_08GMDIBKLM@qamats33?$AA@ 00510858     sdl_ttf:psmodule.obj
 0006:000127c4       ??_C@_08JHBFJIAB@qamats29?$AA@ 00510864     sdl_ttf:psmodule.obj
 0006:000127d0       ??_C@_08JJGLFIP@qamats27?$AA@ 00510870     sdl_ttf:psmodule.obj
 0006:000127dc       ??_C@_08NFAHJDIG@qamats1c?$AA@ 0051087c     sdl_ttf:psmodule.obj
 0006:000127e8       ??_C@_08OHDBPBAE@qamats1a?$AA@ 00510888     sdl_ttf:psmodule.obj
 0006:000127f4       ??_C@_08EEJBJNBB@qamats10?$AA@ 00510894     sdl_ttf:psmodule.obj
 0006:00012800       ??_C@_06FOPGOOMC@qamats?$AA@ 005108a0     sdl_ttf:psmodule.obj
 0006:00012808       ??_C@_0BA@ECJNMFLI@qafmedialarabic?$AA@ 005108a8     sdl_ttf:psmodule.obj
 0006:00012818       ??_C@_0BB@LJFPBKJG@qafinitialarabic?$AA@ 005108b8     sdl_ttf:psmodule.obj
 0006:0001282c       ??_C@_0P@JAELKBCA@qaffinalarabic?$AA@ 005108cc     sdl_ttf:psmodule.obj
 0006:0001283c       ??_C@_09POCAHNB@qafarabic?$AA@ 005108dc     sdl_ttf:psmodule.obj
 0006:00012848       ??_C@_0M@CPDIOJIE@qadmahebrew?$AA@ 005108e8     sdl_ttf:psmodule.obj
 0006:00012854       ??_C@_06KHPELPFJ@qadeva?$AA@ 005108f4     sdl_ttf:psmodule.obj
 0006:0001285c       ??_C@_08KPGJHINK@pwsquare?$AA@ 005108fc     sdl_ttf:psmodule.obj
 0006:00012868       ??_C@_08GDMDHIEE@pvsquare?$AA@ 00510908     sdl_ttf:psmodule.obj
 0006:00012874       ??_C@_0L@DABFKPFB@pukatakana?$AA@ 00510914     sdl_ttf:psmodule.obj
 0006:00012880       ??_C@_0L@HMFNFABK@puhiragana?$AA@ 00510920     sdl_ttf:psmodule.obj
 0006:0001288c       ??_C@_08CLCDHGCA@pssquare?$AA@ 0051092c     sdl_ttf:psmodule.obj
 0006:00012898       ??_C@_0BJ@MMEPMAPB@psilipneumatacyrilliccmb?$AA@ 00510938     sdl_ttf:psmodule.obj
 0006:000128b4       ??_C@_0M@EMELBBFK@psicyrillic?$AA@ 00510954     sdl_ttf:psmodule.obj
 0006:000128c0       ??_C@_03FHAMIGJI@psi?$AA@  00510960     sdl_ttf:psmodule.obj
 0006:000128c4       ??_C@_0N@KNNOKKNG@proportional?$AA@ 00510964     sdl_ttf:psmodule.obj
 0006:000128d4       ??_C@_0L@HOPBDCNE@proportion?$AA@ 00510974     sdl_ttf:psmodule.obj
 0006:000128e0       ??_C@_0P@JNJPJHNO@propersuperset?$AA@ 00510980     sdl_ttf:psmodule.obj
 0006:000128f0       ??_C@_0N@FGLCKHFA@propersubset?$AA@ 00510990     sdl_ttf:psmodule.obj
 0006:00012900       ??_C@_09PKEDEAAJ@propellor?$AA@ 005109a0     sdl_ttf:psmodule.obj
 0006:0001290c       ??_C@_0O@GJNEODKF@prolongedkana?$AA@ 005109ac     sdl_ttf:psmodule.obj
 0006:0001291c       ??_C@_0L@PHDNAHD@projective?$AA@ 005109bc     sdl_ttf:psmodule.obj
 0006:00012928       ??_C@_07IFEJIFCD@product?$AA@ 005109c8     sdl_ttf:psmodule.obj
 0006:00012930       ??_C@_0O@CDDMJLOB@primereversed?$AA@ 005109d0     sdl_ttf:psmodule.obj
 0006:00012940       ??_C@_08HHOAFOIG@primemod?$AA@ 005109e0     sdl_ttf:psmodule.obj
 0006:0001294c       ??_C@_0N@NCONMFLK@prescription?$AA@ 005109ec     sdl_ttf:psmodule.obj
 0006:0001295c       ??_C@_08PPFGBLEI@precedes?$AA@ 005109fc     sdl_ttf:psmodule.obj
 0006:00012968       ??_C@_06FFNPIEGD@pparen?$AA@ 00510a08     sdl_ttf:psmodule.obj
 0006:00012970       ??_C@_0P@OBJABKPB@postalmarkface?$AA@ 00510a10     sdl_ttf:psmodule.obj
 0006:00012980       ??_C@_0L@MKDBIGNP@postalmark?$AA@ 00510a20     sdl_ttf:psmodule.obj
 0006:0001298c       ??_C@_09EFOCNPIA@poplathai?$AA@ 00510a2c     sdl_ttf:psmodule.obj
 0006:00012998       ??_C@_0L@JJLOHA@pokatakana?$AA@ 00510a38     sdl_ttf:psmodule.obj
 0006:000129a4       ??_C@_0BF@FFADICAB@pointingindexupwhite?$AA@ 00510a44     sdl_ttf:psmodule.obj
 0006:000129bc       ??_C@_0BI@LKGPJADH@pointingindexrightwhite?$AA@ 00510a5c     sdl_ttf:psmodule.obj
 0006:000129d4       ??_C@_0BH@KKEGBFOD@pointingindexleftwhite?$AA@ 00510a74     sdl_ttf:psmodule.obj
 0006:000129ec       ??_C@_0BH@FPAACNLM@pointingindexdownwhite?$AA@ 00510a8c     sdl_ttf:psmodule.obj
 0006:00012a04       ??_C@_0L@EMNBEBDL@pohiragana?$AA@ 00510aa4     sdl_ttf:psmodule.obj
 0006:00012a10       ??_C@_08ECBCFFDJ@pmsquare?$AA@ 00510ab0     sdl_ttf:psmodule.obj
 0006:00012a1c       ??_C@_0L@NAODLGIN@pmonospace?$AA@ 00510abc     sdl_ttf:psmodule.obj
 0006:00012a28       ??_C@_0N@PHFNJGDD@plussuperior?$AA@ 00510ac8     sdl_ttf:psmodule.obj
 0006:00012a38       ??_C@_09IOFAHPPJ@plussmall?$AA@ 00510ad8     sdl_ttf:psmodule.obj
 0006:00012a44       ??_C@_0O@DBPCDOKD@plusmonospace?$AA@ 00510ae4     sdl_ttf:psmodule.obj
 0006:00012a54       ??_C@_07BEFAJMJK@plusmod?$AA@ 00510af4     sdl_ttf:psmodule.obj
 0006:00012a5c       ??_C@_0L@FPAJKGPJ@pluscircle?$AA@ 00510afc     sdl_ttf:psmodule.obj
 0006:00012a68       ??_C@_0N@NPKDINNN@plusbelowcmb?$AA@ 00510b08     sdl_ttf:psmodule.obj
 0006:00012a78       ??_C@_0N@BPFDKHOI@piwrarmenian?$AA@ 00510b18     sdl_ttf:psmodule.obj
 0006:00012a88       ??_C@_0O@NKKJFIAG@pisymbolgreek?$AA@ 00510b28     sdl_ttf:psmodule.obj
 0006:00012a98       ??_C@_0L@NIHMODH@pikatakana?$AA@ 00510b38     sdl_ttf:psmodule.obj
 0006:00012aa4       ??_C@_0L@EBMPDBHM@pihiragana?$AA@ 00510b44     sdl_ttf:psmodule.obj
 0006:00012ab0       ??_C@_0BC@ILECIBNJ@pieuptikeutkorean?$AA@ 00510b50     sdl_ttf:psmodule.obj
 0006:00012ac4       ??_C@_0BD@KGCBIAIP@pieupthieuthkorean?$AA@ 00510b64     sdl_ttf:psmodule.obj
 0006:00012ad8       ??_C@_0BG@OJMOLIBA@pieupsiostikeutkorean?$AA@ 00510b78     sdl_ttf:psmodule.obj
 0006:00012af0       ??_C@_0BA@NFCEMPGG@pieupsioskorean?$AA@ 00510b90     sdl_ttf:psmodule.obj
 0006:00012b00       ??_C@_0BG@BAFGFNJN@pieupsioskiyeokkorean?$AA@ 00510ba0     sdl_ttf:psmodule.obj
 0006:00012b18       ??_C@_0BB@MKLEAEFH@pieupparenkorean?$AA@ 00510bb8     sdl_ttf:psmodule.obj
 0006:00012b2c       ??_C@_0M@OHMBDONH@pieupkorean?$AA@ 00510bcc     sdl_ttf:psmodule.obj
 0006:00012b38       ??_C@_0BC@HCNKGEFE@pieupkiyeokkorean?$AA@ 00510bd8     sdl_ttf:psmodule.obj
 0006:00012b4c       ??_C@_0BC@CKOBGOMN@pieupcirclekorean?$AA@ 00510bec     sdl_ttf:psmodule.obj
 0006:00012b60       ??_C@_0BB@PJEGBHCP@pieupcieuckorean?$AA@ 00510c00     sdl_ttf:psmodule.obj
 0006:00012b74       ??_C@_0BC@NFLNOOPK@pieupaparenkorean?$AA@ 00510c14     sdl_ttf:psmodule.obj
 0006:00012b88       ??_C@_0BD@ICJJLIHC@pieupacirclekorean?$AA@ 00510c28     sdl_ttf:psmodule.obj
 0006:00012b9c       ??_C@_02OAHAJOFD@pi?$AA@   00510c3c     sdl_ttf:psmodule.obj
 0006:00012ba0       ??_C@_0P@HGMEEHOD@phosamphaothai?$AA@ 00510c40     sdl_ttf:psmodule.obj
 0006:00012bb0       ??_C@_0N@JDNNGEGB@phophungthai?$AA@ 00510c50     sdl_ttf:psmodule.obj
 0006:00012bc0       ??_C@_0M@IJODCJFO@phophanthai?$AA@ 00510c60     sdl_ttf:psmodule.obj
 0006:00012bcc       ??_C@_05EKJKLGDF@phook?$AA@ 00510c6c     sdl_ttf:psmodule.obj
 0006:00012bd4       ??_C@_0P@IPHGNKNA@phisymbolgreek?$AA@ 00510c74     sdl_ttf:psmodule.obj
 0006:00012be4       ??_C@_0M@DHGCFDBF@phinthuthai?$AA@ 00510c84     sdl_ttf:psmodule.obj
 0006:00012bf0       ??_C@_08HHDEIKCN@philatin?$AA@ 00510c90     sdl_ttf:psmodule.obj
 0006:00012bfc       ??_C@_0BD@KOAHLBBC@phieuphparenkorean?$AA@ 00510c9c     sdl_ttf:psmodule.obj
 0006:00012c10       ??_C@_0O@KKPMJAJK@phieuphkorean?$AA@ 00510cb0     sdl_ttf:psmodule.obj
 0006:00012c20       ??_C@_0BE@CMDDGIGH@phieuphcirclekorean?$AA@ 00510cc0     sdl_ttf:psmodule.obj
 0006:00012c34       ??_C@_0BE@NDGPOIFA@phieuphaparenkorean?$AA@ 00510cd4     sdl_ttf:psmodule.obj
 0006:00012c48       ??_C@_0BF@LEJMCAIC@phieuphacirclekorean?$AA@ 00510ce8     sdl_ttf:psmodule.obj
 0006:00012c60       ??_C@_04LPMGMANM@phi1?$AA@ 00510d00     sdl_ttf:psmodule.obj
 0006:00012c68       ??_C@_03EHHPMKAJ@phi?$AA@  00510d08     sdl_ttf:psmodule.obj
 0006:00012c6c       ??_C@_0M@EIJDFLID@phagurmukhi?$AA@ 00510d0c     sdl_ttf:psmodule.obj
 0006:00012c78       ??_C@_0M@KDMBCPDB@phagujarati?$AA@ 00510d18     sdl_ttf:psmodule.obj
 0006:00012c84       ??_C@_07BKMPHMD@phadeva?$AA@ 00510d24     sdl_ttf:psmodule.obj
 0006:00012c8c       ??_C@_0L@MHLGLOLM@phabengali?$AA@ 00510d2c     sdl_ttf:psmodule.obj
 0006:00012c98       ??_C@_08BPHIEJGP@pfsquare?$AA@ 00510d38     sdl_ttf:psmodule.obj
 0006:00012ca4       ??_C@_06ELFGGJAH@peseta?$AA@ 00510d44     sdl_ttf:psmodule.obj
 0006:00012cac       ??_C@_0O@JCPKMDEO@perpendicular?$AA@ 00510d4c     sdl_ttf:psmodule.obj
 0006:00012cbc       ??_C@_0BE@MPLBBJDM@perispomenigreekcmb?$AA@ 00510d5c     sdl_ttf:psmodule.obj
 0006:00012cd0       ??_C@_0M@BCKGHALP@periodsmall?$AA@ 00510d70     sdl_ttf:psmodule.obj
 0006:00012cdc       ??_C@_0BA@DPIOOHCL@periodmonospace?$AA@ 00510d7c     sdl_ttf:psmodule.obj
 0006:00012cec       ??_C@_0BA@KLKADJDM@periodhalfwidth?$AA@ 00510d8c     sdl_ttf:psmodule.obj
 0006:00012cfc       ??_C@_0P@JHAPLIAP@periodarmenian?$AA@ 00510d9c     sdl_ttf:psmodule.obj
 0006:00012d0c       ??_C@_0N@EKKJECOA@percentsmall?$AA@ 00510dac     sdl_ttf:psmodule.obj
 0006:00012d1c       ??_C@_0BB@GJCHAMCI@percentmonospace?$AA@ 00510dbc     sdl_ttf:psmodule.obj
 0006:00012d30       ??_C@_0O@KEFPLCP@percentarabic?$AA@ 00510dd0     sdl_ttf:psmodule.obj
 0006:00012d40       ??_C@_0N@DJFBDKMH@perafehebrew?$AA@ 00510de0     sdl_ttf:psmodule.obj
 0006:00012d50       ??_C@_0BF@HBPLNDMK@pemiddlehookcyrillic?$AA@ 00510df0     sdl_ttf:psmodule.obj
 0006:00012d68       ??_C@_0L@BHLLCOLJ@pekatakana?$AA@ 00510e08     sdl_ttf:psmodule.obj
 0006:00012d74       ??_C@_0BA@KNBCGEMK@pehmedialarabic?$AA@ 00510e14     sdl_ttf:psmodule.obj
 0006:00012d84       ??_C@_0L@FLPDNBPC@pehiragana?$AA@ 00510e24     sdl_ttf:psmodule.obj
 0006:00012d90       ??_C@_0BB@HLLIFCH@pehinitialarabic?$AA@ 00510e30     sdl_ttf:psmodule.obj
 0006:00012da4       ??_C@_0P@MKPKPJGD@pehfinalarabic?$AA@ 00510e44     sdl_ttf:psmodule.obj
 0006:00012db4       ??_C@_08JNJILAPA@pehebrew?$AA@ 00510e54     sdl_ttf:psmodule.obj
 0006:00012dc0       ??_C@_0M@IGKBOAMH@peharmenian?$AA@ 00510e60     sdl_ttf:psmodule.obj
 0006:00012dcc       ??_C@_09KIEGCPNB@peharabic?$AA@ 00510e6c     sdl_ttf:psmodule.obj
 0006:00012dd8       ??_C@_0BE@MAFONKHM@pefinaldageshhebrew?$AA@ 00510e78     sdl_ttf:psmodule.obj
 0006:00012dec       ??_C@_0M@PMKNHHCG@peezisquare?$AA@ 00510e8c     sdl_ttf:psmodule.obj
 0006:00012df8       ??_C@_0P@DDHEGJGF@pedageshhebrew?$AA@ 00510e98     sdl_ttf:psmodule.obj
 0006:00012e08       ??_C@_08BBHGKJJI@pedagesh?$AA@ 00510ea8     sdl_ttf:psmodule.obj
 0006:00012e14       ??_C@_0L@PLINGBKC@pecyrillic?$AA@ 00510eb4     sdl_ttf:psmodule.obj
 0006:00012e20       ??_C@_02EMMFNBFP@pe?$AA@   00510ec0     sdl_ttf:psmodule.obj
 0006:00012e24       ??_C@_0L@GBEHADCE@pdotaccent?$AA@ 00510ec4     sdl_ttf:psmodule.obj
 0006:00012e30       ??_C@_07FAOOPPAI@pcircle?$AA@ 00510ed0     sdl_ttf:psmodule.obj
 0006:00012e38       ??_C@_09CIHAPAND@pbopomofo?$AA@ 00510ed8     sdl_ttf:psmodule.obj
 0006:00012e44       ??_C@_0M@MEBGIAGA@pazerhebrew?$AA@ 00510ee4     sdl_ttf:psmodule.obj
 0006:00012e50       ??_C@_0BA@LGLGJMNN@patahwidehebrew?$AA@ 00510ef0     sdl_ttf:psmodule.obj
 0006:00012e60       ??_C@_0BD@HGGFICGH@patahquarterhebrew?$AA@ 00510f00     sdl_ttf:psmodule.obj
 0006:00012e74       ??_C@_0BC@DAEAGAHE@patahnarrowhebrew?$AA@ 00510f14     sdl_ttf:psmodule.obj
 0006:00012e88       ??_C@_0M@GKEIMMDM@patahhebrew?$AA@ 00510f28     sdl_ttf:psmodule.obj
 0006:00012e94       ??_C@_07IKDGFDIJ@patah2a?$AA@ 00510f34     sdl_ttf:psmodule.obj
 0006:00012e9c       ??_C@_07PFAHBJJF@patah1d?$AA@ 00510f3c     sdl_ttf:psmodule.obj
 0006:00012ea4       ??_C@_07DCMLLAIE@patah11?$AA@ 00510f44     sdl_ttf:psmodule.obj
 0006:00012eac       ??_C@_05OBCBHKBD@patah?$AA@ 00510f4c     sdl_ttf:psmodule.obj
 0006:00012eb4       ??_C@_08BFLNEAHG@pasquare?$AA@ 00510f54     sdl_ttf:psmodule.obj
 0006:00012ec0       ??_C@_0N@BLAJBLP@pashtahebrew?$AA@ 00510f60     sdl_ttf:psmodule.obj
 0006:00012ed0       ??_C@_0M@LGIMKMEJ@paseqhebrew?$AA@ 00510f70     sdl_ttf:psmodule.obj
 0006:00012edc       ??_C@_0M@KGPLBHLH@partialdiff?$AA@ 00510f7c     sdl_ttf:psmodule.obj
 0006:00012ee8       ??_C@_0BD@PHPJINK@parenrightvertical?$AA@ 00510f88     sdl_ttf:psmodule.obj
 0006:00012efc       ??_C@_0N@CINLIJKK@parenrighttp?$AA@ 00510f9c     sdl_ttf:psmodule.obj
 0006:00012f0c       ??_C@_0BA@KBMFBFMC@parenrightsmall?$AA@ 00510fac     sdl_ttf:psmodule.obj
 0006:00012f1c       ??_C@_0BE@PEHPEMPD@parenrightmonospace?$AA@ 00510fbc     sdl_ttf:psmodule.obj
 0006:00012f30       ??_C@_0N@PNOGMKOF@parenrightex?$AA@ 00510fd0     sdl_ttf:psmodule.obj
 0006:00012f40       ??_C@_0N@FEBMJDGM@parenrightbt?$AA@ 00510fe0     sdl_ttf:psmodule.obj
 0006:00012f50       ??_C@_0BH@EGKOEMEJ@parenrightaltonearabic?$AA@ 00510ff0     sdl_ttf:psmodule.obj
 0006:00012f68       ??_C@_0BC@GFJHNMBA@parenleftvertical?$AA@ 00511008     sdl_ttf:psmodule.obj
 0006:00012f7c       ??_C@_0M@IKNEGGHP@parenlefttp?$AA@ 0051101c     sdl_ttf:psmodule.obj
 0006:00012f88       ??_C@_0P@GDNOBAAJ@parenleftsmall?$AA@ 00511028     sdl_ttf:psmodule.obj
 0006:00012f98       ??_C@_0BD@IPKEIPBJ@parenleftmonospace?$AA@ 00511038     sdl_ttf:psmodule.obj
 0006:00012fac       ??_C@_0M@FPOJCFDA@parenleftex?$AA@ 0051104c     sdl_ttf:psmodule.obj
 0006:00012fb8       ??_C@_0M@PGBDHMLJ@parenleftbt?$AA@ 00511058     sdl_ttf:psmodule.obj
 0006:00012fc4       ??_C@_0BG@BDANJGJF@parenleftaltonearabic?$AA@ 00511064     sdl_ttf:psmodule.obj
 0006:00012fdc       ??_C@_08OHCNGKML@parallel?$AA@ 0051107c     sdl_ttf:psmodule.obj
 0006:00012fe8       ??_C@_0O@HAIILMMO@pansioskorean?$AA@ 00511088     sdl_ttf:psmodule.obj
 0006:00012ff8       ??_C@_0BB@GOKBGLNN@palochkacyrillic?$AA@ 00511098     sdl_ttf:psmodule.obj
 0006:0001300c       ??_C@_0BK@EIGMBH@palatalizationcyrilliccmb?$AA@ 005110ac     sdl_ttf:psmodule.obj
 0006:00013028       ??_C@_0L@BOFAIOMD@pakatakana?$AA@ 005110c8     sdl_ttf:psmodule.obj
 0006:00013034       ??_C@_0O@BFNAABDM@paiyannoithai?$AA@ 005110d4     sdl_ttf:psmodule.obj
 0006:00013044       ??_C@_0L@FCBIHBII@pahiragana?$AA@ 005110e4     sdl_ttf:psmodule.obj
 0006:00013050       ??_C@_0L@GILOIIHK@pagurmukhi?$AA@ 005110f0     sdl_ttf:psmodule.obj
 0006:0001305c       ??_C@_0L@IDOMPMMI@pagujarati?$AA@ 005110fc     sdl_ttf:psmodule.obj
 0006:00013068       ??_C@_06BHLMFDHE@pageup?$AA@ 00511108     sdl_ttf:psmodule.obj
 0006:00013070       ??_C@_08EGALGKAH@pagedown?$AA@ 00511110     sdl_ttf:psmodule.obj
 0006:0001307c       ??_C@_06BIDLEON@padeva?$AA@ 0051111c     sdl_ttf:psmodule.obj
 0006:00013084       ??_C@_06IEFCCOAI@pacute?$AA@ 00511124     sdl_ttf:psmodule.obj
 0006:0001308c       ??_C@_09IFOAPEMJ@pabengali?$AA@ 0051112c     sdl_ttf:psmodule.obj
 0006:00013098       ??_C@_0P@BFJDPOJE@paasentosquare?$AA@ 00511138     sdl_ttf:psmodule.obj
 0006:000130a8       ??_C@_0N@HOBOLONH@paampssquare?$AA@ 00511148     sdl_ttf:psmodule.obj
 0006:000130b8       ??_C@_0BD@FJAOKGLJ@ovowelsigngujarati?$AA@ 00511158     sdl_ttf:psmodule.obj
 0006:000130cc       ??_C@_0P@IJILPLHI@ovowelsigndeva?$AA@ 0051116c     sdl_ttf:psmodule.obj
 0006:000130dc       ??_C@_0BC@HACFFKC@ovowelsignbengali?$AA@ 0051117c     sdl_ttf:psmodule.obj
 0006:000130f0       ??_C@_09CDECKLIN@overscore?$AA@ 00511190     sdl_ttf:psmodule.obj
 0006:000130fc       ??_C@_0N@FBOKOHEI@overlinewavy?$AA@ 0051119c     sdl_ttf:psmodule.obj
 0006:0001310c       ??_C@_0BA@NMNDEHJG@overlinedblwavy?$AA@ 005111ac     sdl_ttf:psmodule.obj
 0006:0001311c       ??_C@_0P@DPDAHNIN@overlinedashed?$AA@ 005111bc     sdl_ttf:psmodule.obj
 0006:0001312c       ??_C@_0M@OFPBFFFA@overlinecmb?$AA@ 005111cc     sdl_ttf:psmodule.obj
 0006:00013138       ??_C@_0BD@OJNBAABL@overlinecenterline?$AA@ 005111d8     sdl_ttf:psmodule.obj
 0006:0001314c       ??_C@_08CPFIKJLG@overline?$AA@ 005111ec     sdl_ttf:psmodule.obj
 0006:00013158       ??_C@_0L@IFHIIAPD@oubopomofo?$AA@ 005111f8     sdl_ttf:psmodule.obj
 0006:00013164       ??_C@_0P@IEKHBEOM@otildedieresis?$AA@ 00511204     sdl_ttf:psmodule.obj
 0006:00013174       ??_C@_0M@IADEKFDD@otildeacute?$AA@ 00511214     sdl_ttf:psmodule.obj
 0006:00013180       ??_C@_0L@OOPLLHJ@otcyrillic?$AA@ 00511220     sdl_ttf:psmodule.obj
 0006:0001318c       ??_C@_0N@OLOHNOLO@ostrokeacute?$AA@ 0051122c     sdl_ttf:psmodule.obj
 0006:0001319c       ??_C@_0BI@FMOFCPLD@osmallkatakanahalfwidth?$AA@ 0051123c     sdl_ttf:psmodule.obj
 0006:000131b4       ??_C@_0P@IJIGGLND@osmallkatakana?$AA@ 00511254     sdl_ttf:psmodule.obj
 0006:000131c4       ??_C@_0P@MFMOJEJI@osmallhiragana?$AA@ 00511264     sdl_ttf:psmodule.obj
 0006:000131d4       ??_C@_0M@KJMAMFFB@oslashacute?$AA@ 00511274     sdl_ttf:psmodule.obj
 0006:000131e0       ??_C@_0BE@FOCDGJPN@oshortvowelsigndeva?$AA@ 00511280     sdl_ttf:psmodule.obj
 0006:000131f4       ??_C@_0L@DMOJFLA@oshortdeva?$AA@ 00511294     sdl_ttf:psmodule.obj
 0006:00013200       ??_C@_0L@CDGALGGB@orthogonal?$AA@ 005112a0     sdl_ttf:psmodule.obj
 0006:0001320c       ??_C@_06OGMGCFPO@option?$AA@ 005112ac     sdl_ttf:psmodule.obj
 0006:00013214       ??_C@_0L@BNDDHJGH@openbullet?$AA@ 005112b4     sdl_ttf:psmodule.obj
 0006:00013220       ??_C@_06MEEJGIEE@oparen?$AA@ 005112c0     sdl_ttf:psmodule.obj
 0006:00013228       ??_C@_05HCKAOMDB@oopen?$AA@ 005112c8     sdl_ttf:psmodule.obj
 0006:00013230       ??_C@_0BA@NJPNOBOD@oomatragurmukhi?$AA@ 005112d0     sdl_ttf:psmodule.obj
 0006:00013240       ??_C@_0L@ELHJIIME@oogurmukhi?$AA@ 005112e0     sdl_ttf:psmodule.obj
 0006:0001324c       ??_C@_0O@JIKLEHFE@oogonekmacron?$AA@ 005112ec     sdl_ttf:psmodule.obj
 0006:0001325c       ??_C@_07PDJHEKGE@oogonek?$AA@ 005112fc     sdl_ttf:psmodule.obj
 0006:00013264       ??_C@_07BPEMNDMK@onethai?$AA@ 00511304     sdl_ttf:psmodule.obj
 0006:0001326c       ??_C@_08KAGMPAFJ@oneroman?$AA@ 0051130c     sdl_ttf:psmodule.obj
 0006:00013278       ??_C@_0L@PHINEHHF@onepersian?$AA@ 00511318     sdl_ttf:psmodule.obj
 0006:00013284       ??_C@_09DEEFLMH@oneperiod?$AA@ 00511324     sdl_ttf:psmodule.obj
 0006:00013290       ??_C@_08FNOHAACG@oneparen?$AA@ 00511330     sdl_ttf:psmodule.obj
 0006:0001329c       ??_C@_0BE@IDBINJCH@onenumeratorbengali?$AA@ 0051133c     sdl_ttf:psmodule.obj
 0006:000132b0       ??_C@_0N@IDFBJJBH@onemonospace?$AA@ 00511350     sdl_ttf:psmodule.obj
 0006:000132c0       ??_C@_0BE@JOCFKGKH@oneideographicparen?$AA@ 00511360     sdl_ttf:psmodule.obj
 0006:000132d4       ??_C@_0M@ICDBBFAM@onehangzhou?$AA@ 00511374     sdl_ttf:psmodule.obj
 0006:000132e0       ??_C@_0O@NLDECLIL@onehackarabic?$AA@ 00511380     sdl_ttf:psmodule.obj
 0006:000132f0       ??_C@_0M@NHEBEDDH@onegurmukhi?$AA@ 00511390     sdl_ttf:psmodule.obj
 0006:000132fc       ??_C@_0M@DMBDDHIF@onegujarati?$AA@ 0051139c     sdl_ttf:psmodule.obj
 0006:00013308       ??_C@_07FMHGKDGI@onedeva?$AA@ 005113a8     sdl_ttf:psmodule.obj
 0006:00013310       ??_C@_0BK@BLGPMIEI@onecircleinversesansserif?$AA@ 005113b0     sdl_ttf:psmodule.obj
 0006:0001332c       ??_C@_09FGFAHCJD@onecircle?$AA@ 005113cc     sdl_ttf:psmodule.obj
 0006:00013338       ??_C@_0L@KKEKKPPK@onebengali?$AA@ 005113d8     sdl_ttf:psmodule.obj
 0006:00013344       ??_C@_09GHLDHOLI@onearabic?$AA@ 005113e4     sdl_ttf:psmodule.obj
 0006:00013350       ??_C@_0L@ONONIGIA@omonospace?$AA@ 005113f0     sdl_ttf:psmodule.obj
 0006:0001335c       ??_C@_0N@GFBKCLJB@omicrontonos?$AA@ 005113fc     sdl_ttf:psmodule.obj
 0006:0001336c       ??_C@_07PBNNEOII@omicron?$AA@ 0051140c     sdl_ttf:psmodule.obj
 0006:00013374       ??_C@_0L@KENOCMEL@omgujarati?$AA@ 00511414     sdl_ttf:psmodule.obj
 0006:00013380       ??_C@_0L@IFOHAAGG@omegatonos?$AA@ 00511420     sdl_ttf:psmodule.obj
 0006:0001338c       ??_C@_0BD@CAGANCLF@omegatitlocyrillic?$AA@ 0051142c     sdl_ttf:psmodule.obj
 0006:000133a0       ??_C@_0BD@EDGOEIIH@omegaroundcyrillic?$AA@ 00511440     sdl_ttf:psmodule.obj
 0006:000133b4       ??_C@_0BB@GGLMGBCH@omegalatinclosed?$AA@ 00511454     sdl_ttf:psmodule.obj
 0006:000133c8       ??_C@_0O@OMPAECFM@omegacyrillic?$AA@ 00511468     sdl_ttf:psmodule.obj
 0006:000133d8       ??_C@_06NDGMJBCL@omega1?$AA@ 00511478     sdl_ttf:psmodule.obj
 0006:000133e0       ??_C@_05OLLLNAFN@omega?$AA@ 00511480     sdl_ttf:psmodule.obj
 0006:000133e8       ??_C@_06OHNHJILB@omdeva?$AA@ 00511488     sdl_ttf:psmodule.obj
 0006:000133f0       ??_C@_0N@JFOHNEKM@omacrongrave?$AA@ 00511490     sdl_ttf:psmodule.obj
 0006:00013400       ??_C@_0N@MCMBJNCF@omacronacute?$AA@ 005114a0     sdl_ttf:psmodule.obj
 0006:00013410       ??_C@_07BNIOMMOF@omacron?$AA@ 005114b0     sdl_ttf:psmodule.obj
 0006:00013418       ??_C@_09PCADCCLA@olehebrew?$AA@ 005114b8     sdl_ttf:psmodule.obj
 0006:00013424       ??_C@_07NOIEGELB@okorean?$AA@ 005114c4     sdl_ttf:psmodule.obj
 0006:0001342c       ??_C@_0BD@HNAHEJAP@okatakanahalfwidth?$AA@ 005114cc     sdl_ttf:psmodule.obj
 0006:00013440       ??_C@_09HGLGDFBJ@okatakana?$AA@ 005114e0     sdl_ttf:psmodule.obj
 0006:0001344c       ??_C@_0P@DINBFCBF@oinvertedbreve?$AA@ 005114ec     sdl_ttf:psmodule.obj
 0006:0001345c       ??_C@_02PHAKHKBO@oi?$AA@   005114fc     sdl_ttf:psmodule.obj
 0006:00013460       ??_C@_0O@EEOLBMGG@ohungarumlaut?$AA@ 00511500     sdl_ttf:psmodule.obj
 0006:00013470       ??_C@_0L@BHHGJAH@ohorntilde?$AA@ 00511510     sdl_ttf:psmodule.obj
 0006:0001347c       ??_C@_0P@KIDHHCDJ@ohornhookabove?$AA@ 0051151c     sdl_ttf:psmodule.obj
 0006:0001348c       ??_C@_0L@HOMNBAGC@ohorngrave?$AA@ 0051152c     sdl_ttf:psmodule.obj
 0006:00013498       ??_C@_0O@MFNDHDCA@ohorndotbelow?$AA@ 00511538     sdl_ttf:psmodule.obj
 0006:000134a8       ??_C@_0L@CJOLFJOL@ohornacute?$AA@ 00511548     sdl_ttf:psmodule.obj
 0006:000134b4       ??_C@_05NBJDMCBN@ohorn?$AA@ 00511554     sdl_ttf:psmodule.obj
 0006:000134bc       ??_C@_0L@JNCNBIJD@ohookabove?$AA@ 0051155c     sdl_ttf:psmodule.obj
 0006:000134c8       ??_C@_09DKPOMKFC@ohiragana?$AA@ 00511568     sdl_ttf:psmodule.obj
 0006:000134d4       ??_C@_0L@FABGEODE@oharmenian?$AA@ 00511574     sdl_ttf:psmodule.obj
 0006:000134e0       ??_C@_09OLAKEHBC@ogujarati?$AA@ 00511580     sdl_ttf:psmodule.obj
 0006:000134ec       ??_C@_09FOFFHALI@ogonekcmb?$AA@ 0051158c     sdl_ttf:psmodule.obj
 0006:000134f8       ??_C@_08EPLFPNML@oekorean?$AA@ 00511598     sdl_ttf:psmodule.obj
 0006:00013504       ??_C@_09GKBBCDAI@odotbelow?$AA@ 005115a4     sdl_ttf:psmodule.obj
 0006:00013510       ??_C@_0BC@MHMJDNIL@odieresiscyrillic?$AA@ 005115b0     sdl_ttf:psmodule.obj
 0006:00013524       ??_C@_05PLEPHLGL@odeva?$AA@ 005115c4     sdl_ttf:psmodule.obj
 0006:0001352c       ??_C@_09LOEBAOKA@odblgrave?$AA@ 005115cc     sdl_ttf:psmodule.obj
 0006:00013538       ??_C@_09OJGHEHCJ@odblacute?$AA@ 005115d8     sdl_ttf:psmodule.obj
 0006:00013544       ??_C@_09JKIAHKAC@ocyrillic?$AA@ 005115e4     sdl_ttf:psmodule.obj
 0006:00013550       ??_C@_0BB@DLDEDFJJ@ocircumflextilde?$AA@ 005115f0     sdl_ttf:psmodule.obj
 0006:00013564       ??_C@_0BF@INFGPGAO@ocircumflexhookabove?$AA@ 00511604     sdl_ttf:psmodule.obj
 0006:0001357c       ??_C@_0BB@EEIOEMPM@ocircumflexgrave?$AA@ 0051161c     sdl_ttf:psmodule.obj
 0006:00013590       ??_C@_0BE@MLIFOEJC@ocircumflexdotbelow?$AA@ 00511630     sdl_ttf:psmodule.obj
 0006:000135a4       ??_C@_0BB@BDKIAFHF@ocircumflexacute?$AA@ 00511644     sdl_ttf:psmodule.obj
 0006:000135b8       ??_C@_07PFHFNMIP@ocircle?$AA@ 00511658     sdl_ttf:psmodule.obj
 0006:000135c0       ??_C@_06EMJMJNKH@ocaron?$AA@ 00511660     sdl_ttf:psmodule.obj
 0006:000135c8       ??_C@_0BJ@PGBLBDMM@ocandravowelsigngujarati?$AA@ 00511668     sdl_ttf:psmodule.obj
 0006:000135e4       ??_C@_0BF@EHBNFJLH@ocandravowelsigndeva?$AA@ 00511684     sdl_ttf:psmodule.obj
 0006:000135fc       ??_C@_0BA@HGMHJFFB@ocandragujarati?$AA@ 0051169c     sdl_ttf:psmodule.obj
 0006:0001360c       ??_C@_0M@BNHACEKM@ocandradeva?$AA@ 005116ac     sdl_ttf:psmodule.obj
 0006:00013618       ??_C@_06JNENINEC@obreve?$AA@ 005116b8     sdl_ttf:psmodule.obj
 0006:00013620       ??_C@_09PONFCKLG@obopomofo?$AA@ 005116c0     sdl_ttf:psmodule.obj
 0006:0001362c       ??_C@_08LOOINGBL@obengali?$AA@ 005116cc     sdl_ttf:psmodule.obj
 0006:00013638       ??_C@_0BI@OGJIBGIB@obarreddieresiscyrillic?$AA@ 005116d8     sdl_ttf:psmodule.obj
 0006:00013650       ??_C@_0BA@BCMKDOJI@obarredcyrillic?$AA@ 005116f0     sdl_ttf:psmodule.obj
 0006:00013660       ??_C@_07EBDOGPGC@obarred?$AA@ 00511700     sdl_ttf:psmodule.obj
 0006:00013668       ??_C@_08EHPPOFEB@oangthai?$AA@ 00511708     sdl_ttf:psmodule.obj
 0006:00013674       ??_C@_0M@MCMCHOGK@nyagurmukhi?$AA@ 00511714     sdl_ttf:psmodule.obj
 0006:00013680       ??_C@_0M@CJJAAKNI@nyagujarati?$AA@ 00511720     sdl_ttf:psmodule.obj
 0006:0001368c       ??_C@_07KJDEEDKA@nyadeva?$AA@ 0051172c     sdl_ttf:psmodule.obj
 0006:00013694       ??_C@_0L@PDFKLLKH@nyabengali?$AA@ 00511734     sdl_ttf:psmodule.obj
 0006:000136a0       ??_C@_08MLGLOBDJ@nwsquare?$AA@ 00511740     sdl_ttf:psmodule.obj
 0006:000136ac       ??_C@_08HMBOBKH@nvsquare?$AA@ 0051174c     sdl_ttf:psmodule.obj
 0006:000136b8       ??_C@_09EAMIKBPC@nunhebrew?$AA@ 00511758     sdl_ttf:psmodule.obj
 0006:000136c4       ??_C@_0BA@GNGANPJN@nundageshhebrew?$AA@ 00511764     sdl_ttf:psmodule.obj
 0006:000136d4       ??_C@_09MMCGLIJK@nundagesh?$AA@ 00511774     sdl_ttf:psmodule.obj
 0006:000136e0       ??_C@_03KMAGEMEB@nun?$AA@  00511780     sdl_ttf:psmodule.obj
 0006:000136e4       ??_C@_06DKLPPENA@numero?$AA@ 00511784     sdl_ttf:psmodule.obj
 0006:000136ec       ??_C@_0BG@MJMPKLDA@numeralsignlowergreek?$AA@ 0051178c     sdl_ttf:psmodule.obj
 0006:00013704       ??_C@_0BB@JKCGFDIM@numeralsigngreek?$AA@ 005117a4     sdl_ttf:psmodule.obj
 0006:00013718       ??_C@_0BA@HHHJBGII@numbersignsmall?$AA@ 005117b8     sdl_ttf:psmodule.obj
 0006:00013728       ??_C@_0BE@CFFANMKG@numbersignmonospace?$AA@ 005117c8     sdl_ttf:psmodule.obj
 0006:0001373c       ??_C@_0O@NLAGOOOL@nuktagurmukhi?$AA@ 005117dc     sdl_ttf:psmodule.obj
 0006:0001374c       ??_C@_0O@DAFEJKFJ@nuktagujarati?$AA@ 005117ec     sdl_ttf:psmodule.obj
 0006:0001375c       ??_C@_09HDLBCJEC@nuktadeva?$AA@ 005117fc     sdl_ttf:psmodule.obj
 0006:00013768       ??_C@_0N@FLPMELDB@nuktabengali?$AA@ 00511808     sdl_ttf:psmodule.obj
 0006:00013778       ??_C@_0BE@PAHBIAOJ@nukatakanahalfwidth?$AA@ 00511818     sdl_ttf:psmodule.obj
 0006:0001378c       ??_C@_0L@MMJFEAJM@nukatakana?$AA@ 0051182c     sdl_ttf:psmodule.obj
 0006:00013798       ??_C@_0L@IANNLPNH@nuhiragana?$AA@ 00511838     sdl_ttf:psmodule.obj
 0006:000137a4       ??_C@_02BALPENHE@nu?$AA@   00511844     sdl_ttf:psmodule.obj
 0006:000137a8       ??_C@_08EPCBOPMD@nssquare?$AA@ 00511848     sdl_ttf:psmodule.obj
 0006:000137b4       ??_C@_06GCDOGDPA@nparen?$AA@ 00511854     sdl_ttf:psmodule.obj
 0006:000137bc       ??_C@_0M@FHICFMME@nowarmenian?$AA@ 0051185c     sdl_ttf:psmodule.obj
 0006:000137c8       ??_C@_0M@BPNPOGFI@notsuperset?$AA@ 00511868     sdl_ttf:psmodule.obj
 0006:000137d4       ??_C@_0M@HGIBDMDH@notsucceeds?$AA@ 00511874     sdl_ttf:psmodule.obj
 0006:000137e0       ??_C@_09GBMDLKPH@notsubset?$AA@ 00511880     sdl_ttf:psmodule.obj
 0006:000137ec       ??_C@_0M@JPGHDBID@notprecedes?$AA@ 0051188c     sdl_ttf:psmodule.obj
 0006:000137f8       ??_C@_0M@IHBMEAAA@notparallel?$AA@ 00511898     sdl_ttf:psmodule.obj
 0006:00013804       ??_C@_0BA@BHFOKMNF@notlessnorequal?$AA@ 005118a4     sdl_ttf:psmodule.obj
 0006:00013814       ??_C@_07LAGOIAIF@notless?$AA@ 005118b4     sdl_ttf:psmodule.obj
 0006:0001381c       ??_C@_0N@NCADFMFE@notidentical?$AA@ 005118bc     sdl_ttf:psmodule.obj
 0006:0001382c       ??_C@_0BC@PBKNEDAN@notgreaternorless?$AA@ 005118cc     sdl_ttf:psmodule.obj
 0006:00013840       ??_C@_0BD@DPKOLNBN@notgreaternorequal?$AA@ 005118e0     sdl_ttf:psmodule.obj
 0006:00013854       ??_C@_0L@PBIDLDMJ@notgreater?$AA@ 005118f4     sdl_ttf:psmodule.obj
 0006:00013860       ??_C@_08NMIMHFMM@notequal?$AA@ 00511900     sdl_ttf:psmodule.obj
 0006:0001386c       ??_C@_0N@FBKKDNH@notelementof?$AA@ 0051190c     sdl_ttf:psmodule.obj
 0006:0001387c       ??_C@_0L@PDBNMGLL@notelement?$AA@ 0051191c     sdl_ttf:psmodule.obj
 0006:00013888       ??_C@_0M@PKPPJMOI@notcontains?$AA@ 00511928     sdl_ttf:psmodule.obj
 0006:00013894       ??_C@_0BE@FEJNDHJJ@noonnoonfinalarabic?$AA@ 00511934     sdl_ttf:psmodule.obj
 0006:000138a8       ??_C@_0BH@NFOKHDPL@noonmeemisolatedarabic?$AA@ 00511948     sdl_ttf:psmodule.obj
 0006:000138c0       ??_C@_0BG@KIFACPKO@noonmeeminitialarabic?$AA@ 00511960     sdl_ttf:psmodule.obj
 0006:000138d8       ??_C@_0BB@ENIHBOLO@noonmedialarabic?$AA@ 00511978     sdl_ttf:psmodule.obj
 0006:000138ec       ??_C@_0BH@JPNEPILA@noonjeemisolatedarabic?$AA@ 0051198c     sdl_ttf:psmodule.obj
 0006:00013904       ??_C@_0BG@EJHOCFMK@noonjeeminitialarabic?$AA@ 005119a4     sdl_ttf:psmodule.obj
 0006:0001391c       ??_C@_0BC@FADDKFHI@nooninitialarabic?$AA@ 005119bc     sdl_ttf:psmodule.obj
 0006:00013930       ??_C@_0BF@ELJJFFHM@noonhehinitialarabic?$AA@ 005119d0     sdl_ttf:psmodule.obj
 0006:00013948       ??_C@_0BG@OIKGGPOF@noonghunnafinalarabic?$AA@ 005119e8     sdl_ttf:psmodule.obj
 0006:00013960       ??_C@_0BB@CAGPKDAE@noonghunnaarabic?$AA@ 00511a00     sdl_ttf:psmodule.obj
 0006:00013974       ??_C@_0BA@IKGJJDGJ@noonfinalarabic?$AA@ 00511a14     sdl_ttf:psmodule.obj
 0006:00013984       ??_C@_0L@KHANBCAJ@noonarabic?$AA@ 00511a24     sdl_ttf:psmodule.obj
 0006:00013990       ??_C@_08LBAEAKA@nonuthai?$AA@ 00511a30     sdl_ttf:psmodule.obj
 0006:0001399c       ??_C@_09HBHKLKME@nonenthai?$AA@ 00511a3c     sdl_ttf:psmodule.obj
 0006:000139a8       ??_C@_0BB@HNNFCLJN@nonbreakingspace?$AA@ 00511a48     sdl_ttf:psmodule.obj
 0006:000139bc       ??_C@_0BE@JOCGKAJH@nokatakanahalfwidth?$AA@ 00511a5c     sdl_ttf:psmodule.obj
 0006:000139d0       ??_C@_0L@PMBJFBLN@nokatakana?$AA@ 00511a70     sdl_ttf:psmodule.obj
 0006:000139dc       ??_C@_0L@LAFBKOPG@nohiragana?$AA@ 00511a7c     sdl_ttf:psmodule.obj
 0006:000139e8       ??_C@_08BMMHHABB@nnnadeva?$AA@ 00511a88     sdl_ttf:psmodule.obj
 0006:000139f4       ??_C@_0M@EFAPKPCC@nnagurmukhi?$AA@ 00511a94     sdl_ttf:psmodule.obj
 0006:00013a00       ??_C@_0M@KOFNNLJA@nnagujarati?$AA@ 00511aa0     sdl_ttf:psmodule.obj
 0006:00013a0c       ??_C@_07LENOBOA@nnadeva?$AA@ 00511aac     sdl_ttf:psmodule.obj
 0006:00013a14       ??_C@_0L@DGCICBDG@nnabengali?$AA@ 00511ab4     sdl_ttf:psmodule.obj
 0006:00013a20       ??_C@_08CGBAMMNK@nmsquare?$AA@ 00511ac0     sdl_ttf:psmodule.obj
 0006:00013a2c       ??_C@_0L@CMGDFJEA@nmonospace?$AA@ 00511acc     sdl_ttf:psmodule.obj
 0006:00013a38       ??_C@_0L@PHMFIMBM@nlinebelow?$AA@ 00511ad8     sdl_ttf:psmodule.obj
 0006:00013a44       ??_C@_0O@JDJPEHGJ@nlegrightlong?$AA@ 00511ae4     sdl_ttf:psmodule.obj
 0006:00013a54       ??_C@_0BD@KKOFMJFH@nkatakanahalfwidth?$AA@ 00511af4     sdl_ttf:psmodule.obj
 0006:00013a68       ??_C@_09JJHEFOCH@nkatakana?$AA@ 00511b08     sdl_ttf:psmodule.obj
 0006:00013a74       ??_C@_0M@GGOFDFHI@njecyrillic?$AA@ 00511b14     sdl_ttf:psmodule.obj
 0006:00013a80       ??_C@_02NNOFEDOK@nj?$AA@   00511b20     sdl_ttf:psmodule.obj
 0006:00013a84       ??_C@_08MOKJELLM@ninethai?$AA@ 00511b24     sdl_ttf:psmodule.obj
 0006:00013a90       ??_C@_0P@HINJODGM@nineteenperiod?$AA@ 00511b30     sdl_ttf:psmodule.obj
 0006:00013aa0       ??_C@_0O@HBHEAFOM@nineteenparen?$AA@ 00511b40     sdl_ttf:psmodule.obj
 0006:00013ab0       ??_C@_0P@CNMNMKDI@nineteencircle?$AA@ 00511b50     sdl_ttf:psmodule.obj
 0006:00013ac0       ??_C@_09BJNLMBMI@nineroman?$AA@ 00511b60     sdl_ttf:psmodule.obj
 0006:00013acc       ??_C@_0M@MOAJEFKD@ninepersian?$AA@ 00511b6c     sdl_ttf:psmodule.obj
 0006:00013ad8       ??_C@_0L@IEPFEPCE@nineperiod?$AA@ 00511b78     sdl_ttf:psmodule.obj
 0006:00013ae4       ??_C@_09OEFADBLH@nineparen?$AA@ 00511b84     sdl_ttf:psmodule.obj
 0006:00013af0       ??_C@_0O@LKDNKDCG@ninemonospace?$AA@ 00511b90     sdl_ttf:psmodule.obj
 0006:00013b00       ??_C@_0BF@OEDBABON@nineideographicparen?$AA@ 00511ba0     sdl_ttf:psmodule.obj
 0006:00013b18       ??_C@_0N@ONLIOGOP@ninehangzhou?$AA@ 00511bb8     sdl_ttf:psmodule.obj
 0006:00013b28       ??_C@_0P@IKNDEHIL@ninehackarabic?$AA@ 00511bc8     sdl_ttf:psmodule.obj
 0006:00013b38       ??_C@_0N@LIMILANE@ninegurmukhi?$AA@ 00511bd8     sdl_ttf:psmodule.obj
 0006:00013b48       ??_C@_0N@FDJKMEGG@ninegujarati?$AA@ 00511be8     sdl_ttf:psmodule.obj
 0006:00013b58       ??_C@_08INJDDLBO@ninedeva?$AA@ 00511bf8     sdl_ttf:psmodule.obj
 0006:00013b64       ??_C@_0BL@PBLGIPIK@ninecircleinversesansserif?$AA@ 00511c04     sdl_ttf:psmodule.obj
 0006:00013b80       ??_C@_0L@NBOBGGHA@ninecircle?$AA@ 00511c20     sdl_ttf:psmodule.obj
 0006:00013b8c       ??_C@_0M@JDMOKNCM@ninebengali?$AA@ 00511c2c     sdl_ttf:psmodule.obj
 0006:00013b98       ??_C@_0L@OAACGKFL@ninearabic?$AA@ 00511c38     sdl_ttf:psmodule.obj
 0006:00013ba4       ??_C@_0N@MJMBOMOA@nikhahitthai?$AA@ 00511c44     sdl_ttf:psmodule.obj
 0006:00013bb4       ??_C@_0BB@LPMGMGIO@nikhahitleftthai?$AA@ 00511c54     sdl_ttf:psmodule.obj
 0006:00013bc8       ??_C@_0BE@DPKKLIE@nikatakanahalfwidth?$AA@ 00511c68     sdl_ttf:psmodule.obj
 0006:00013bdc       ??_C@_0L@PBAHCBPK@nikatakana?$AA@ 00511c7c     sdl_ttf:psmodule.obj
 0006:00013be8       ??_C@_0L@LNEPNOLB@nihiragana?$AA@ 00511c88     sdl_ttf:psmodule.obj
 0006:00013bf4       ??_C@_0BC@BBOFKGKE@nieuntikeutkorean?$AA@ 00511c94     sdl_ttf:psmodule.obj
 0006:00013c08       ??_C@_0BA@PGKIDJLB@nieunsioskorean?$AA@ 00511ca8     sdl_ttf:psmodule.obj
 0006:00013c18       ??_C@_0BB@NCCAMPNG@nieunparenkorean?$AA@ 00511cb8     sdl_ttf:psmodule.obj
 0006:00013c2c       ??_C@_0BD@BGDLNIGK@nieunpansioskorean?$AA@ 00511ccc     sdl_ttf:psmodule.obj
 0006:00013c40       ??_C@_0M@GLNJCDCM@nieunkorean?$AA@ 00511ce0     sdl_ttf:psmodule.obj
 0006:00013c4c       ??_C@_0BB@MNCKGEPG@nieunhieuhkorean?$AA@ 00511cec     sdl_ttf:psmodule.obj
 0006:00013c60       ??_C@_0BC@LAEGEJLA@nieuncirclekorean?$AA@ 00511d00     sdl_ttf:psmodule.obj
 0006:00013c74       ??_C@_0BB@OBNCNMKO@nieuncieuckorean?$AA@ 00511d14     sdl_ttf:psmodule.obj
 0006:00013c88       ??_C@_0BC@EPBKMJIH@nieunaparenkorean?$AA@ 00511d28     sdl_ttf:psmodule.obj
 0006:00013c9c       ??_C@_0BD@KMLHBCNE@nieunacirclekorean?$AA@ 00511d3c     sdl_ttf:psmodule.obj
 0006:00013cb0       ??_C@_0P@LICKJPDF@nhookretroflex?$AA@ 00511d50     sdl_ttf:psmodule.obj
 0006:00013cc0       ??_C@_09HFNFGHGJ@nhookleft?$AA@ 00511d60     sdl_ttf:psmodule.obj
 0006:00013ccc       ??_C@_09NFDMKBGM@nhiragana?$AA@ 00511d6c     sdl_ttf:psmodule.obj
 0006:00013cd8       ??_C@_0L@PJEOBGNL@ngonguthai?$AA@ 00511d78     sdl_ttf:psmodule.obj
 0006:00013ce4       ??_C@_0M@DOECJBKH@ngagurmukhi?$AA@ 00511d84     sdl_ttf:psmodule.obj
 0006:00013cf0       ??_C@_0M@NFBAOFBF@ngagujarati?$AA@ 00511d90     sdl_ttf:psmodule.obj
 0006:00013cfc       ??_C@_07JONFKEDD@ngadeva?$AA@ 00511d9c     sdl_ttf:psmodule.obj
 0006:00013d04       ??_C@_0L@MKDNAKPM@ngabengali?$AA@ 00511da4     sdl_ttf:psmodule.obj
 0006:00013d10       ??_C@_08HLHKNAIM@nfsquare?$AA@ 00511db0     sdl_ttf:psmodule.obj
 0006:00013d1c       ??_C@_0O@BBPAGNEN@newsheqelsign?$AA@ 00511dbc     sdl_ttf:psmodule.obj
 0006:00013d2c       ??_C@_0BE@ODDDLLOD@nekatakanahalfwidth?$AA@ 00511dcc     sdl_ttf:psmodule.obj
 0006:00013d40       ??_C@_0L@OLDLMBHE@nekatakana?$AA@ 00511de0     sdl_ttf:psmodule.obj
 0006:00013d4c       ??_C@_0L@KHHDDODP@nehiragana?$AA@ 00511dec     sdl_ttf:psmodule.obj
 0006:00013d58       ??_C@_09IFNDEIDG@ndotbelow?$AA@ 00511df8     sdl_ttf:psmodule.obj
 0006:00013d64       ??_C@_0L@JNMHOMOJ@ndotaccent?$AA@ 00511e04     sdl_ttf:psmodule.obj
 0006:00013d70       ??_C@_0N@HFNLJAFC@ncommaaccent?$AA@ 00511e10     sdl_ttf:psmodule.obj
 0006:00013d80       ??_C@_0BB@NIEMGNGP@ncircumflexbelow?$AA@ 00511e20     sdl_ttf:psmodule.obj
 0006:00013d94       ??_C@_07DJNPNMBB@ncircle?$AA@ 00511e34     sdl_ttf:psmodule.obj
 0006:00013d9c       ??_C@_08EBCBANBE@ncedilla?$AA@ 00511e3c     sdl_ttf:psmodule.obj
 0006:00013da8       ??_C@_06OKOLJGBD@ncaron?$AA@ 00511e48     sdl_ttf:psmodule.obj
 0006:00013db0       ??_C@_07OGHACKIO@nbspace?$AA@ 00511e50     sdl_ttf:psmodule.obj
 0006:00013db8       ??_C@_09BBBHEBII@nbopomofo?$AA@ 00511e58     sdl_ttf:psmodule.obj
 0006:00013dc4       ??_C@_08HBLPNJJF@nasquare?$AA@ 00511e64     sdl_ttf:psmodule.obj
 0006:00013dd0       ??_C@_0M@PDIBIPGI@napostrophe?$AA@ 00511e70     sdl_ttf:psmodule.obj
 0006:00013ddc       ??_C@_0BE@KFLLGAB@nakatakanahalfwidth?$AA@ 00511e7c     sdl_ttf:psmodule.obj
 0006:00013df0       ??_C@_0L@OCNAGBAO@nakatakana?$AA@ 00511e90     sdl_ttf:psmodule.obj
 0006:00013dfc       ??_C@_0L@KOJIJOEF@nahiragana?$AA@ 00511e9c     sdl_ttf:psmodule.obj
 0006:00013e08       ??_C@_0L@JEDOGHLH@nagurmukhi?$AA@ 00511ea8     sdl_ttf:psmodule.obj
 0006:00013e14       ??_C@_0L@HPGMBDAF@nagujarati?$AA@ 00511eb4     sdl_ttf:psmodule.obj
 0006:00013e20       ??_C@_06DGGCFDHO@nadeva?$AA@ 00511ec0     sdl_ttf:psmodule.obj
 0006:00013e28       ??_C@_06LDLDMJJL@nacute?$AA@ 00511ec8     sdl_ttf:psmodule.obj
 0006:00013e30       ??_C@_05HEJFDJKB@nabla?$AA@ 00511ed0     sdl_ttf:psmodule.obj
 0006:00013e38       ??_C@_09LMIHEFJC@nabengali?$AA@ 00511ed8     sdl_ttf:psmodule.obj
 0006:00013e44       ??_C@_08PCOGNNPM@mwsquare?$AA@ 00511ee4     sdl_ttf:psmodule.obj
 0006:00013e50       ??_C@_0N@IBOCPLLC@mwmegasquare?$AA@ 00511ef0     sdl_ttf:psmodule.obj
 0006:00013e60       ??_C@_08DOEMNNGC@mvsquare?$AA@ 00511f00     sdl_ttf:psmodule.obj
 0006:00013e6c       ??_C@_0N@BKEHLHNN@mvmegasquare?$AA@ 00511f0c     sdl_ttf:psmodule.obj
 0006:00013e7c       ??_C@_09MEGEMOIN@muwsquare?$AA@ 00511f1c     sdl_ttf:psmodule.obj
 0006:00013e88       ??_C@_09IMOMOBD@muvsquare?$AA@ 00511f28     sdl_ttf:psmodule.obj
 0006:00013e94       ??_C@_09EACOMAHH@mussquare?$AA@ 00511f34     sdl_ttf:psmodule.obj
 0006:00013ea0       ??_C@_0P@FLMIGIOO@musicsharpsign?$AA@ 00511f40     sdl_ttf:psmodule.obj
 0006:00013eb0       ??_C@_0O@KLNAAOFB@musicflatsign?$AA@ 00511f50     sdl_ttf:psmodule.obj
 0006:00013ec0       ??_C@_0P@EIPANPBF@musicalnotedbl?$AA@ 00511f60     sdl_ttf:psmodule.obj
 0006:00013ed0       ??_C@_0M@FCLKPNJM@musicalnote?$AA@ 00511f70     sdl_ttf:psmodule.obj
 0006:00013edc       ??_C@_0BA@CKEMEGPD@munahlefthebrew?$AA@ 00511f7c     sdl_ttf:psmodule.obj
 0006:00013eec       ??_C@_0M@NGFMIGEG@munahhebrew?$AA@ 00511f8c     sdl_ttf:psmodule.obj
 0006:00013ef8       ??_C@_09CJBPODGO@mumsquare?$AA@ 00511f98     sdl_ttf:psmodule.obj
 0006:00013f04       ??_C@_09OFLFODPA@mulsquare?$AA@ 00511fa4     sdl_ttf:psmodule.obj
 0006:00013f10       ??_C@_0BE@FPNIMNCD@mukatakanahalfwidth?$AA@ 00511fb0     sdl_ttf:psmodule.obj
 0006:00013f24       ??_C@_0L@FFHHCGJN@mukatakana?$AA@ 00511fc4     sdl_ttf:psmodule.obj
 0006:00013f30       ??_C@_0L@BJDPNJNG@muhiragana?$AA@ 00511fd0     sdl_ttf:psmodule.obj
 0006:00013f3c       ??_C@_09LINPPPKG@mugsquare?$AA@ 00511fdc     sdl_ttf:psmodule.obj
 0006:00013f48       ??_C@_07DNGNFKKL@mugreek?$AA@ 00511fe8     sdl_ttf:psmodule.obj
 0006:00013f50       ??_C@_09HEHFPPDI@mufsquare?$AA@ 00511ff0     sdl_ttf:psmodule.obj
 0006:00013f5c       ??_C@_08MAMKIFI@muchless?$AA@ 00511ffc     sdl_ttf:psmodule.obj
 0006:00013f68       ??_C@_0M@IKDDLLMI@muchgreater?$AA@ 00512008     sdl_ttf:psmodule.obj
 0006:00013f74       ??_C@_09HOLAPGCB@muasquare?$AA@ 00512014     sdl_ttf:psmodule.obj
 0006:00013f80       ??_C@_03IDJAKCDE@mu1?$AA@  00512020     sdl_ttf:psmodule.obj
 0006:00013f84       ??_C@_07IFJNGJEB@mturned?$AA@ 00512024     sdl_ttf:psmodule.obj
 0006:00013f8c       ??_C@_08HGKMNDAG@mssquare?$AA@ 0051202c     sdl_ttf:psmodule.obj
 0006:00013f98       ??_C@_09DECHLDGO@mpasquare?$AA@ 00512038     sdl_ttf:psmodule.obj
 0006:00013fa4       ??_C@_06FDNGHJGN@mparen?$AA@ 00512044     sdl_ttf:psmodule.obj
 0006:00013fac       ??_C@_0BE@MCELFAIL@moverssquaredsquare?$AA@ 0051204c     sdl_ttf:psmodule.obj
 0006:00013fc0       ??_C@_0N@NOOIBCFH@moverssquare?$AA@ 00512060     sdl_ttf:psmodule.obj
 0006:00013fd0       ??_C@_08JLDCCGHF@momathai?$AA@ 00512070     sdl_ttf:psmodule.obj
 0006:00013fdc       ??_C@_09NMFLCLBP@molsquare?$AA@ 0051207c     sdl_ttf:psmodule.obj
 0006:00013fe8       ??_C@_0BE@DBIPONFN@mokatakanahalfwidth?$AA@ 00512088     sdl_ttf:psmodule.obj
 0006:00013ffc       ??_C@_0L@GFPLDHLM@mokatakana?$AA@ 0051209c     sdl_ttf:psmodule.obj
 0006:00014008       ??_C@_0L@GDCIJENA@mohmsquare?$AA@ 005120a8     sdl_ttf:psmodule.obj
 0006:00014014       ??_C@_0L@CJLDMIPH@mohiragana?$AA@ 005120b4     sdl_ttf:psmodule.obj
 0006:00014020       ??_C@_0BA@BBOADHMA@mmsquaredsquare?$AA@ 005120c0     sdl_ttf:psmodule.obj
 0006:00014030       ??_C@_0L@LFIBDPEB@mmonospace?$AA@ 005120d0     sdl_ttf:psmodule.obj
 0006:0001403c       ??_C@_0O@PLOLPFBD@mmcubedsquare?$AA@ 005120dc     sdl_ttf:psmodule.obj
 0006:0001404c       ??_C@_08NDDHPAIB@mlsquare?$AA@ 005120ec     sdl_ttf:psmodule.obj
 0006:00014058       ??_C@_0P@PCJEJDDP@mlonglegturned?$AA@ 005120f8     sdl_ttf:psmodule.obj
 0006:00014068       ??_C@_0L@NDJCCCIC@mirisquare?$AA@ 00512108     sdl_ttf:psmodule.obj
 0006:00014074       ??_C@_0BA@CEDOOGPH@miribaarusquare?$AA@ 00512114     sdl_ttf:psmodule.obj
 0006:00014084       ??_C@_06JGJIJFNK@minute?$AA@ 00512124     sdl_ttf:psmodule.obj
 0006:0001408c       ??_C@_09OACBDFCG@minusplus?$AA@ 0051212c     sdl_ttf:psmodule.obj
 0006:00014098       ??_C@_08MODMAKIH@minusmod?$AA@ 00512138     sdl_ttf:psmodule.obj
 0006:000140a4       ??_C@_0M@CIOIJGOP@minuscircle?$AA@ 00512144     sdl_ttf:psmodule.obj
 0006:000140b0       ??_C@_0O@OFOCHPEH@minusbelowcmb?$AA@ 00512150     sdl_ttf:psmodule.obj
 0006:000140c0       ??_C@_0BE@KMFDOGEO@mikatakanahalfwidth?$AA@ 00512160     sdl_ttf:psmodule.obj
 0006:000140d4       ??_C@_0L@GIOFEHPL@mikatakana?$AA@ 00512174     sdl_ttf:psmodule.obj
 0006:000140e0       ??_C@_0L@CEKNLILA@mihiragana?$AA@ 00512180     sdl_ttf:psmodule.obj
 0006:000140ec       ??_C@_0BA@KIPOFPLD@mieumsioskorean?$AA@ 0051218c     sdl_ttf:psmodule.obj
 0006:000140fc       ??_C@_0BB@IGDAOCCA@mieumpieupkorean?$AA@ 0051219c     sdl_ttf:psmodule.obj
 0006:00014110       ??_C@_0BB@DMHAPIJM@mieumparenkorean?$AA@ 005121b0     sdl_ttf:psmodule.obj
 0006:00014124       ??_C@_0BD@KEBADELK@mieumpansioskorean?$AA@ 005121c4     sdl_ttf:psmodule.obj
 0006:00014138       ??_C@_0M@JCMIPGDP@mieumkorean?$AA@ 005121d8     sdl_ttf:psmodule.obj
 0006:00014144       ??_C@_0BC@CGKBLBAJ@mieumcirclekorean?$AA@ 005121e4     sdl_ttf:psmodule.obj
 0006:00014158       ??_C@_0BC@NJPNDBDO@mieumaparenkorean?$AA@ 005121f8     sdl_ttf:psmodule.obj
 0006:0001416c       ??_C@_0BD@BOJMPOAE@mieumacirclekorean?$AA@ 0051220c     sdl_ttf:psmodule.obj
 0006:00014180       ??_C@_06HHCHNCAA@middot?$AA@ 00512220     sdl_ttf:psmodule.obj
 0006:00014188       ??_C@_0BL@EDJFCNEE@middledotkatakanahalfwidth?$AA@ 00512228     sdl_ttf:psmodule.obj
 0006:000141a4       ??_C@_09COOHOHK@mhzsquare?$AA@ 00512244     sdl_ttf:psmodule.obj
 0006:000141b0       ??_C@_05PFNCKHHA@mhook?$AA@ 00512250     sdl_ttf:psmodule.obj
 0006:000141b8       ??_C@_0BB@BIMOMGEG@merkhalefthebrew?$AA@ 00512258     sdl_ttf:psmodule.obj
 0006:000141cc       ??_C@_0BH@IJBBOPDJ@merkhakefulalefthebrew?$AA@ 0051226c     sdl_ttf:psmodule.obj
 0006:000141e4       ??_C@_0BD@IOAMACON@merkhakefulahebrew?$AA@ 00512284     sdl_ttf:psmodule.obj
 0006:000141f8       ??_C@_0N@JBNALJMC@merkhahebrew?$AA@ 00512298     sdl_ttf:psmodule.obj
 0006:00014208       ??_C@_0M@BJAIHMJC@menarmenian?$AA@ 005122a8     sdl_ttf:psmodule.obj
 0006:00014214       ??_C@_09IJLAFPGD@memhebrew?$AA@ 005122b4     sdl_ttf:psmodule.obj
 0006:00014220       ??_C@_0BA@HMKLNBPL@memdageshhebrew?$AA@ 005122c0     sdl_ttf:psmodule.obj
 0006:00014230       ??_C@_09FFOEGAL@memdagesh?$AA@ 005122d0     sdl_ttf:psmodule.obj
 0006:0001423c       ??_C@_03IJLIBDBM@mem?$AA@  005122dc     sdl_ttf:psmodule.obj
 0006:00014240       ??_C@_0BE@EMJKPGCJ@mekatakanahalfwidth?$AA@ 005122e0     sdl_ttf:psmodule.obj
 0006:00014254       ??_C@_0L@HCNJKHHF@mekatakana?$AA@ 005122f4     sdl_ttf:psmodule.obj
 0006:00014260       ??_C@_0P@OHJDHHLI@meizierasquare?$AA@ 00512300     sdl_ttf:psmodule.obj
 0006:00014270       ??_C@_0L@DOJBFIDO@mehiragana?$AA@ 00512310     sdl_ttf:psmodule.obj
 0006:0001427c       ??_C@_0O@CBFMJOD@meetorusquare?$AA@ 0051231c     sdl_ttf:psmodule.obj
 0006:0001428c       ??_C@_0BH@FKIDOAIH@meemmeemisolatedarabic?$AA@ 0051232c     sdl_ttf:psmodule.obj
 0006:000142a4       ??_C@_0BG@KEFNKMHC@meemmeeminitialarabic?$AA@ 00512344     sdl_ttf:psmodule.obj
 0006:000142bc       ??_C@_0BB@PBMAKHNL@meemmedialarabic?$AA@ 0051235c     sdl_ttf:psmodule.obj
 0006:000142d0       ??_C@_0BC@GNFHHHBG@meeminitialarabic?$AA@ 00512370     sdl_ttf:psmodule.obj
 0006:000142e4       ??_C@_0BA@KLFDOMNI@meemfinalarabic?$AA@ 00512384     sdl_ttf:psmodule.obj
 0006:000142f4       ??_C@_0L@DCGMGJLM@meemarabic?$AA@ 00512394     sdl_ttf:psmodule.obj
 0006:00014300       ??_C@_09GOOEPDDF@mdotbelow?$AA@ 005123a0     sdl_ttf:psmodule.obj
 0006:0001430c       ??_C@_0L@ECFIKOI@mdotaccent?$AA@ 005123ac     sdl_ttf:psmodule.obj
 0006:00014318       ??_C@_0N@BOADDFCE@mcubedsquare?$AA@ 005123b8     sdl_ttf:psmodule.obj
 0006:00014328       ??_C@_07LHFANLPC@mcircle?$AA@ 005123c8     sdl_ttf:psmodule.obj
 0006:00014330       ??_C@_08MGLNOCLD@mbsquare?$AA@ 005123d0     sdl_ttf:psmodule.obj
 0006:0001433c       ??_C@_09PKCAPKIL@mbopomofo?$AA@ 005123dc     sdl_ttf:psmodule.obj
 0006:00014348       ??_C@_08EIDCOFFA@masquare?$AA@ 005123e8     sdl_ttf:psmodule.obj
 0006:00014354       ??_C@_0BD@BKICGGIG@masoracirclehebrew?$AA@ 005123f4     sdl_ttf:psmodule.obj
 0006:00014368       ??_C@_04IIICLNHD@mars?$AA@ 00512408     sdl_ttf:psmodule.obj
 0006:00014370       ??_C@_0M@LFMPJFI@maqafhebrew?$AA@ 00512410     sdl_ttf:psmodule.obj
 0006:0001437c       ??_C@_0O@MMOLGLAM@mansyonsquare?$AA@ 0051241c     sdl_ttf:psmodule.obj
 0006:0001438c       ??_C@_04ICKCIGNO@male?$AA@ 0051242c     sdl_ttf:psmodule.obj
 0006:00014394       ??_C@_0BE@KFPCPLML@makatakanahalfwidth?$AA@ 00512434     sdl_ttf:psmodule.obj
 0006:000143a8       ??_C@_0L@HLDCAHAP@makatakana?$AA@ 00512448     sdl_ttf:psmodule.obj
 0006:000143b4       ??_C@_0N@DLLHCONH@maiyamokthai?$AA@ 00512454     sdl_ttf:psmodule.obj
 0006:000143c4       ??_C@_0BE@MHMBDIKL@maitriupperleftthai?$AA@ 00512464     sdl_ttf:psmodule.obj
 0006:000143d8       ??_C@_0L@LCCBCFHN@maitrithai?$AA@ 00512478     sdl_ttf:psmodule.obj
 0006:000143e4       ??_C@_0BD@CFIMMCA@maitrilowrightthai?$AA@ 00512484     sdl_ttf:psmodule.obj
 0006:000143f8       ??_C@_0BC@DNDIOPGH@maitrilowleftthai?$AA@ 00512498     sdl_ttf:psmodule.obj
 0006:0001440c       ??_C@_0BE@PHKPGIOL@maithoupperleftthai?$AA@ 005124ac     sdl_ttf:psmodule.obj
 0006:00014420       ??_C@_0L@KHNGAFOA@maithothai?$AA@ 005124c0     sdl_ttf:psmodule.obj
 0006:0001442c       ??_C@_0BD@NJPHGFMP@maitholowrightthai?$AA@ 005124cc     sdl_ttf:psmodule.obj
 0006:00014440       ??_C@_0BC@CJFINGEN@maitholowleftthai?$AA@ 005124e0     sdl_ttf:psmodule.obj
 0006:00014454       ??_C@_0O@JCDOJPMP@maitaikhuthai?$AA@ 005124f4     sdl_ttf:psmodule.obj
 0006:00014464       ??_C@_0BC@HOLNNKOB@maitaikhuleftthai?$AA@ 00512504     sdl_ttf:psmodule.obj
 0006:00014478       ??_C@_0P@KIDNLEF@maihanakatthai?$AA@ 00512518     sdl_ttf:psmodule.obj
 0006:00014488       ??_C@_0BD@CEHFGCCB@maihanakatleftthai?$AA@ 00512528     sdl_ttf:psmodule.obj
 0006:0001449c       ??_C@_0BD@MKGGGPIH@maiekupperleftthai?$AA@ 0051253c     sdl_ttf:psmodule.obj
 0006:000144b0       ??_C@_09IIHECPP@maiekthai?$AA@ 00512550     sdl_ttf:psmodule.obj
 0006:000144bc       ??_C@_0BC@MIGFNOKK@maieklowrightthai?$AA@ 0051255c     sdl_ttf:psmodule.obj
 0006:000144d0       ??_C@_0BB@LKOIOPJG@maieklowleftthai?$AA@ 00512570     sdl_ttf:psmodule.obj
 0006:000144e4       ??_C@_0BJ@NFIEONKP@maichattawaupperleftthai?$AA@ 00512584     sdl_ttf:psmodule.obj
 0006:00014500       ??_C@_0BA@FNBNLNNG@maichattawathai?$AA@ 005125a0     sdl_ttf:psmodule.obj
 0006:00014510       ??_C@_0BI@PAGEJIHJ@maichattawalowrightthai?$AA@ 005125b0     sdl_ttf:psmodule.obj
 0006:00014528       ??_C@_0BH@GDGMPIDE@maichattawalowleftthai?$AA@ 005125c8     sdl_ttf:psmodule.obj
 0006:00014540       ??_C@_0L@DHHKPIEE@mahiragana?$AA@ 005125e0     sdl_ttf:psmodule.obj
 0006:0001454c       ??_C@_0BD@CFFKBHHI@mahapakhlefthebrew?$AA@ 005125ec     sdl_ttf:psmodule.obj
 0006:00014560       ??_C@_0P@JBDACDJN@mahapakhhebrew?$AA@ 00512600     sdl_ttf:psmodule.obj
 0006:00014570       ??_C@_0L@NNMABLG@magurmukhi?$AA@ 00512610     sdl_ttf:psmodule.obj
 0006:0001457c       ??_C@_0L@OGIOHFAE@magujarati?$AA@ 0051261c     sdl_ttf:psmodule.obj
 0006:00014588       ??_C@_06HIKEJOD@madeva?$AA@ 00512628     sdl_ttf:psmodule.obj
 0006:00014590       ??_C@_06ICFLNDAG@macute?$AA@ 00512630     sdl_ttf:psmodule.obj
 0006:00014598       ??_C@_0BA@BAEDGCGI@macronmonospace?$AA@ 00512638     sdl_ttf:psmodule.obj
 0006:000145a8       ??_C@_0N@CICNAPL@macronlowmod?$AA@ 00512648     sdl_ttf:psmodule.obj
 0006:000145b8       ??_C@_09LHBAJGOM@macroncmb?$AA@ 00512658     sdl_ttf:psmodule.obj
 0006:000145c4       ??_C@_0P@NKALPDOJ@macronbelowcmb?$AA@ 00512664     sdl_ttf:psmodule.obj
 0006:000145d4       ??_C@_09FHLAPOJB@mabengali?$AA@ 00512674     sdl_ttf:psmodule.obj
 0006:000145e0       ??_C@_08DMLNNLBD@lxsquare?$AA@ 00512680     sdl_ttf:psmodule.obj
 0006:000145ec       ??_C@_0BG@FLFIMFIC@lvocalicvowelsigndeva?$AA@ 0051268c     sdl_ttf:psmodule.obj
 0006:00014604       ??_C@_0BJ@OBEODLGF@lvocalicvowelsignbengali?$AA@ 005126a4     sdl_ttf:psmodule.obj
 0006:00014620       ??_C@_0N@EGILOPCI@lvocalicdeva?$AA@ 005126c0     sdl_ttf:psmodule.obj
 0006:00014630       ??_C@_0BA@EFBAKMII@lvocalicbengali?$AA@ 005126d0     sdl_ttf:psmodule.obj
 0006:00014640       ??_C@_06HKIAHCHI@luthai?$AA@ 005126e0     sdl_ttf:psmodule.obj
 0006:00014648       ??_C@_07PFIEEOMB@ltshade?$AA@ 005126e8     sdl_ttf:psmodule.obj
 0006:00014650       ??_C@_07PNDAFNLF@lsquare?$AA@ 005126f0     sdl_ttf:psmodule.obj
 0006:00014658       ??_C@_06PFKBHCNJ@lparen?$AA@ 005126f8     sdl_ttf:psmodule.obj
 0006:00014660       ??_C@_07BFOHLNID@lozenge?$AA@ 00512700     sdl_ttf:psmodule.obj
 0006:00014668       ??_C@_0O@DJJHHGBC@lowlinedashed?$AA@ 00512708     sdl_ttf:psmodule.obj
 0006:00014678       ??_C@_0L@LOIJJIGD@lowlinecmb?$AA@ 00512718     sdl_ttf:psmodule.obj
 0006:00014684       ??_C@_0BC@IICJBBD@lowlinecenterline?$AA@ 00512724     sdl_ttf:psmodule.obj
 0006:00014698       ??_C@_05LIBKAGEB@longs?$AA@ 00512738     sdl_ttf:psmodule.obj
 0006:000146a0       ??_C@_0L@FKDLDMHB@lolingthai?$AA@ 00512740     sdl_ttf:psmodule.obj
 0006:000146ac       ??_C@_09JFDEGBEN@logicalor?$AA@ 0051274c     sdl_ttf:psmodule.obj
 0006:000146b8       ??_C@_0BD@HLEIHEE@logicalnotreversed?$AA@ 00512758     sdl_ttf:psmodule.obj
 0006:000146cc       ??_C@_0L@PMIKIKMI@logicaland?$AA@ 0051276c     sdl_ttf:psmodule.obj
 0006:000146d8       ??_C@_0M@NDNBGLKI@lochulathai?$AA@ 00512778     sdl_ttf:psmodule.obj
 0006:000146e4       ??_C@_08IOGOEFM@lmsquare?$AA@ 00512784     sdl_ttf:psmodule.obj
 0006:000146f0       ??_C@_0L@HEAPOAIB@lmonospace?$AA@ 00512790     sdl_ttf:psmodule.obj
 0006:000146fc       ??_C@_0N@FMNKFDNJ@lmiddletilde?$AA@ 0051279c     sdl_ttf:psmodule.obj
 0006:0001470c       ??_C@_0BH@IGBLKHDL@llvocalicvowelsigndeva?$AA@ 005127ac     sdl_ttf:psmodule.obj
 0006:00014724       ??_C@_0BK@JDNPOHCI@llvocalicvowelsignbengali?$AA@ 005127c4     sdl_ttf:psmodule.obj
 0006:00014740       ??_C@_0O@DOGMMOGJ@llvocalicdeva?$AA@ 005127e0     sdl_ttf:psmodule.obj
 0006:00014750       ??_C@_0BB@IGLJCJDP@llvocalicbengali?$AA@ 005127f0     sdl_ttf:psmodule.obj
 0006:00014764       ??_C@_08OHILEOMD@llladeva?$AA@ 00512804     sdl_ttf:psmodule.obj
 0006:00014770       ??_C@_0L@KPKJDFNN@llinebelow?$AA@ 00512810     sdl_ttf:psmodule.obj
 0006:0001477c       ??_C@_0M@BKAKPMMO@llagujarati?$AA@ 0051281c     sdl_ttf:psmodule.obj
 0006:00014788       ??_C@_07NOPHPHLE@lladeva?$AA@ 00512828     sdl_ttf:psmodule.obj
 0006:00014790       ??_C@_02IIDLDAAC@ll?$AA@   00512830     sdl_ttf:psmodule.obj
 0006:00014794       ??_C@_0M@IKNOKLOH@ljecyrillic?$AA@ 00512834     sdl_ttf:psmodule.obj
 0006:000147a0       ??_C@_02NOGBJHIE@lj?$AA@   00512840     sdl_ttf:psmodule.obj
 0006:000147a4       ??_C@_0N@MHMNJKP@liwnarmenian?$AA@ 00512844     sdl_ttf:psmodule.obj
 0006:000147b4       ??_C@_04IKCMMPP@lira?$AA@  00512854     sdl_ttf:psmodule.obj
 0006:000147bc       ??_C@_0P@BAKMCOKE@lhookretroflex?$AA@ 0051285c     sdl_ttf:psmodule.obj
 0006:000147cc       ??_C@_07EDNMPIOA@lfblock?$AA@ 0051286c     sdl_ttf:psmodule.obj
 0006:000147d4       ??_C@_04JNKFJJLG@lezh?$AA@ 00512874     sdl_ttf:psmodule.obj
 0006:000147dc       ??_C@_09NJAOKBED@lesssmall?$AA@ 0051287c     sdl_ttf:psmodule.obj
 0006:000147e8       ??_C@_0O@KPDKJOHM@lessoverequal?$AA@ 00512888     sdl_ttf:psmodule.obj
 0006:000147f8       ??_C@_0O@LLOHKPOJ@lessorgreater?$AA@ 00512898     sdl_ttf:psmodule.obj
 0006:00014808       ??_C@_0BB@KLIAEAFK@lessorequivalent?$AA@ 005128a8     sdl_ttf:psmodule.obj
 0006:0001481c       ??_C@_0O@BFBNDMOK@lessmonospace?$AA@ 005128bc     sdl_ttf:psmodule.obj
 0006:0001482c       ??_C@_0BD@DAHLPMFK@lessequalorgreater?$AA@ 005128cc     sdl_ttf:psmodule.obj
 0006:00014840       ??_C@_09HODCGJNN@lessequal?$AA@ 005128e0     sdl_ttf:psmodule.obj
 0006:0001484c       ??_C@_0BB@DPGFMIP@lefttackbelowcmb?$AA@ 005128ec     sdl_ttf:psmodule.obj
 0006:00014860       ??_C@_0BC@MALGIGEM@leftangleabovecmb?$AA@ 00512900     sdl_ttf:psmodule.obj
 0006:00014874       ??_C@_0BA@GAIHEDCD@ldotbelowmacron?$AA@ 00512914     sdl_ttf:psmodule.obj
 0006:00014884       ??_C@_09IBCGJIAL@ldotbelow?$AA@ 00512924     sdl_ttf:psmodule.obj
 0006:00014890       ??_C@_0L@MFKLFFCI@ldotaccent?$AA@ 00512930     sdl_ttf:psmodule.obj
 0006:0001489c       ??_C@_04NJIDMCBF@ldot?$AA@ 0051293c     sdl_ttf:psmodule.obj
 0006:000148a4       ??_C@_0N@BFIHCFBJ@lcommaaccent?$AA@ 00512944     sdl_ttf:psmodule.obj
 0006:000148b4       ??_C@_0BB@MHAPNKI@lcircumflexbelow?$AA@ 00512954     sdl_ttf:psmodule.obj
 0006:000148c8       ??_C@_07HLPKNLGM@lcircle?$AA@ 00512968     sdl_ttf:psmodule.obj
 0006:000148d0       ??_C@_08GPNHCFJC@lcedilla?$AA@ 00512970     sdl_ttf:psmodule.obj
 0006:000148dc       ??_C@_06HNHEIHDK@lcaron?$AA@ 0051297c     sdl_ttf:psmodule.obj
 0006:000148e4       ??_C@_09BFOCJBLF@lbopomofo?$AA@ 00512984     sdl_ttf:psmodule.obj
 0006:000148f0       ??_C@_05NEJPDMNH@lbelt?$AA@ 00512990     sdl_ttf:psmodule.obj
 0006:000148f8       ??_C@_04KACMBHEF@lbar?$AA@ 00512998     sdl_ttf:psmodule.obj
 0006:00014900       ??_C@_0M@MPOAIPI@largecircle?$AA@ 005129a0     sdl_ttf:psmodule.obj
 0006:0001490c       ??_C@_0BJ@HOMIOMO@lammeemkhahinitialarabic?$AA@ 005129ac     sdl_ttf:psmodule.obj
 0006:00014928       ??_C@_0BJ@BNLGGJDB@lammeemjeeminitialarabic?$AA@ 005129c8     sdl_ttf:psmodule.obj
 0006:00014944       ??_C@_0BF@JKONJGM@lammeeminitialarabic?$AA@ 005129e4     sdl_ttf:psmodule.obj
 0006:0001495c       ??_C@_0BI@IJLDMLAN@lammeemhahinitialarabic?$AA@ 005129fc     sdl_ttf:psmodule.obj
 0006:00014974       ??_C@_0BA@OCMIICJC@lammedialarabic?$AA@ 00512a14     sdl_ttf:psmodule.obj
 0006:00014984       ??_C@_0BI@LBKJMJIG@lamlamhehisolatedarabic?$AA@ 00512a24     sdl_ttf:psmodule.obj
 0006:0001499c       ??_C@_0BF@PCNKDEPH@lamkhahinitialarabic?$AA@ 00512a3c     sdl_ttf:psmodule.obj
 0006:000149b4       ??_C@_0BF@OIIANDAI@lamjeeminitialarabic?$AA@ 00512a54     sdl_ttf:psmodule.obj
 0006:000149cc       ??_C@_0BB@GCEEIGAH@laminitialarabic?$AA@ 00512a6c     sdl_ttf:psmodule.obj
 0006:000149e0       ??_C@_0BE@LAMNKFFK@lamhahinitialarabic?$AA@ 00512a80     sdl_ttf:psmodule.obj
 0006:000149f4       ??_C@_0P@MPOOPDMA@lamfinalarabic?$AA@ 00512a94     sdl_ttf:psmodule.obj
 0006:00014a04       ??_C@_0BB@PFFJMBLI@lamedholamhebrew?$AA@ 00512aa4     sdl_ttf:psmodule.obj
 0006:00014a18       ??_C@_0BH@JMPIDLOA@lamedholamdageshhebrew?$AA@ 00512ab8     sdl_ttf:psmodule.obj
 0006:00014a30       ??_C@_0BB@HJLHNINA@lamedholamdagesh?$AA@ 00512ad0     sdl_ttf:psmodule.obj
 0006:00014a44       ??_C@_0L@KNDOBEJF@lamedholam?$AA@ 00512ae4     sdl_ttf:psmodule.obj
 0006:00014a50       ??_C@_0M@LCKCICCA@lamedhebrew?$AA@ 00512af0     sdl_ttf:psmodule.obj
 0006:00014a5c       ??_C@_0BC@FGCMIHLE@lameddageshhebrew?$AA@ 00512afc     sdl_ttf:psmodule.obj
 0006:00014a70       ??_C@_0M@DOEMJLEI@lameddagesh?$AA@ 00512b10     sdl_ttf:psmodule.obj
 0006:00014a7c       ??_C@_05BDJIEHDG@lamed?$AA@ 00512b1c     sdl_ttf:psmodule.obj
 0006:00014a84       ??_C@_0N@HFMFOPPI@lambdastroke?$AA@ 00512b24     sdl_ttf:psmodule.obj
 0006:00014a94       ??_C@_06COJIGPIB@lambda?$AA@ 00512b34     sdl_ttf:psmodule.obj
 0006:00014a9c       ??_C@_09IANIBBNP@lamarabic?$AA@ 00512b3c     sdl_ttf:psmodule.obj
 0006:00014aa8       ??_C@_0CA@BLNJGJDG@lamalefmaddaaboveisolatedarabic?$AA@ 00512b48     sdl_ttf:psmodule.obj
 0006:00014ac8       ??_C@_0BN@MMEOHFGC@lamalefmaddaabovefinalarabic?$AA@ 00512b68     sdl_ttf:psmodule.obj
 0006:00014ae8       ??_C@_0BG@OCDAANKG@lamalefisolatedarabic?$AA@ 00512b88     sdl_ttf:psmodule.obj
 0006:00014b00       ??_C@_0CA@KEBBDBEO@lamalefhamzabelowisolatedarabic?$AA@ 00512ba0     sdl_ttf:psmodule.obj
 0006:00014b20       ??_C@_0BN@FLOFFLPP@lamalefhamzabelowfinalarabic?$AA@ 00512bc0     sdl_ttf:psmodule.obj
 0006:00014b40       ??_C@_0CA@LMGACMPA@lamalefhamzaaboveisolatedarabic?$AA@ 00512be0     sdl_ttf:psmodule.obj
 0006:00014b60       ??_C@_0BN@PIEEECMK@lamalefhamzaabovefinalarabic?$AA@ 00512c00     sdl_ttf:psmodule.obj
 0006:00014b80       ??_C@_0BD@EJPOBFBA@lamaleffinalarabic?$AA@ 00512c20     sdl_ttf:psmodule.obj
 0006:00014b94       ??_C@_0BA@HMIDLGAI@lakkhangyaothai?$AA@ 00512c34     sdl_ttf:psmodule.obj
 0006:00014ba4       ??_C@_0L@MMFCNOHG@lagurmukhi?$AA@ 00512c44     sdl_ttf:psmodule.obj
 0006:00014bb0       ??_C@_0L@CHAAKKME@lagujarati?$AA@ 00512c50     sdl_ttf:psmodule.obj
 0006:00014bbc       ??_C@_06KBPNECFH@ladeva?$AA@ 00512c5c     sdl_ttf:psmodule.obj
 0006:00014bc4       ??_C@_06CECMNILC@lacute?$AA@ 00512c64     sdl_ttf:psmodule.obj
 0006:00014bcc       ??_C@_09LIHCJFKP@labengali?$AA@ 00512c6c     sdl_ttf:psmodule.obj
 0006:00014bd8       ??_C@_08IBPMKEHG@kwsquare?$AA@ 00512c78     sdl_ttf:psmodule.obj
 0006:00014be4       ??_C@_08ENFGKEOI@kvsquare?$AA@ 00512c84     sdl_ttf:psmodule.obj
 0006:00014bf0       ??_C@_0BE@NLPLFAPG@kukatakanahalfwidth?$AA@ 00512c90     sdl_ttf:psmodule.obj
 0006:00014c04       ??_C@_0L@LNMCOMNO@kukatakana?$AA@ 00512ca4     sdl_ttf:psmodule.obj
 0006:00014c10       ??_C@_0L@PBIKBDJF@kuhiragana?$AA@ 00512cb0     sdl_ttf:psmodule.obj
 0006:00014c1c       ??_C@_07EDPCGAMG@kturned?$AA@ 00512cbc     sdl_ttf:psmodule.obj
 0006:00014c24       ??_C@_08PHDKDJF@ktsquare?$AA@ 00512cc4     sdl_ttf:psmodule.obj
 0006:00014c30       ??_C@_0M@DBMBFIKI@ksicyrillic?$AA@ 00512cd0     sdl_ttf:psmodule.obj
 0006:00014c3c       ??_C@_09DJDJMDCJ@kpasquare?$AA@ 00512cdc     sdl_ttf:psmodule.obj
 0006:00014c48       ??_C@_06DAAGEMFH@kparen?$AA@ 00512ce8     sdl_ttf:psmodule.obj
 0006:00014c50       ??_C@_0L@GEKIKDFI@koroniscmb?$AA@ 00512cf0     sdl_ttf:psmodule.obj
 0006:00014c5c       ??_C@_0BF@BLLFPNDI@koreanstandardsymbol?$AA@ 00512cfc     sdl_ttf:psmodule.obj
 0006:00014c74       ??_C@_0O@IGHGDDKI@koppacyrillic?$AA@ 00512d14     sdl_ttf:psmodule.obj
 0006:00014c84       ??_C@_0M@CHOLHFIA@kooposquare?$AA@ 00512d24     sdl_ttf:psmodule.obj
 0006:00014c90       ??_C@_0BE@LFKMHAII@kokatakanahalfwidth?$AA@ 00512d30     sdl_ttf:psmodule.obj
 0006:00014ca4       ??_C@_0L@INEOPNPP@kokatakana?$AA@ 00512d44     sdl_ttf:psmodule.obj
 0006:00014cb0       ??_C@_09DGPJGLEP@kokaithai?$AA@ 00512d50     sdl_ttf:psmodule.obj
 0006:00014cbc       ??_C@_0L@ILJNFOJD@kohmsquare?$AA@ 00512d5c     sdl_ttf:psmodule.obj
 0006:00014cc8       ??_C@_0L@MBAGACLE@kohiragana?$AA@ 00512d68     sdl_ttf:psmodule.obj
 0006:00014cd4       ??_C@_0BA@ECHBFOCE@kmsquaredsquare?$AA@ 00512d74     sdl_ttf:psmodule.obj
 0006:00014ce4       ??_C@_0L@FNDEPFAC@kmonospace?$AA@ 00512d84     sdl_ttf:psmodule.obj
 0006:00014cf0       ??_C@_0O@DCJLOKF@kmcubedsquare?$AA@ 00512d90     sdl_ttf:psmodule.obj
 0006:00014d00       ??_C@_08KACNIJAL@klsquare?$AA@ 00512da0     sdl_ttf:psmodule.obj
 0006:00014d0c       ??_C@_0L@IGJCCAFO@klinebelow?$AA@ 00512dac     sdl_ttf:psmodule.obj
 0006:00014d18       ??_C@_0M@POEGECGI@kjecyrillic?$AA@ 00512db8     sdl_ttf:psmodule.obj
 0006:00014d24       ??_C@_0BB@LKPDBAJL@kiyeoksioskorean?$AA@ 00512dc4     sdl_ttf:psmodule.obj
 0006:00014d38       ??_C@_0BC@JNHFNCJ@kiyeokparenkorean?$AA@ 00512dd8     sdl_ttf:psmodule.obj
 0006:00014d4c       ??_C@_0N@FNCCCNPD@kiyeokkorean?$AA@ 00512dec     sdl_ttf:psmodule.obj
 0006:00014d5c       ??_C@_0BD@JNJPFBKP@kiyeokcirclekorean?$AA@ 00512dfc     sdl_ttf:psmodule.obj
 0006:00014d70       ??_C@_0BD@GCMDNBJI@kiyeokaparenkorean?$AA@ 00512e10     sdl_ttf:psmodule.obj
 0006:00014d84       ??_C@_0BE@CBJCMGDJ@kiyeokacirclekorean?$AA@ 00512e24     sdl_ttf:psmodule.obj
 0006:00014d98       ??_C@_0L@PNEIOBEG@kirosquare?$AA@ 00512e38     sdl_ttf:psmodule.obj
 0006:00014da4       ??_C@_0BC@PCIKAHIA@kiromeetorusquare?$AA@ 00512e44     sdl_ttf:psmodule.obj
 0006:00014db8       ??_C@_0BB@JOOBABKD@kiroguramusquare?$AA@ 00512e58     sdl_ttf:psmodule.obj
 0006:00014dcc       ??_C@_0BE@CIHAHLJL@kikatakanahalfwidth?$AA@ 00512e6c     sdl_ttf:psmodule.obj
 0006:00014de0       ??_C@_0L@IAFAINLI@kikatakana?$AA@ 00512e80     sdl_ttf:psmodule.obj
 0006:00014dec       ??_C@_0L@MMBIHCPD@kihiragana?$AA@ 00512e8c     sdl_ttf:psmodule.obj
 0006:00014df8       ??_C@_09PPAAODN@khzsquare?$AA@ 00512e98     sdl_ttf:psmodule.obj
 0006:00014e04       ??_C@_0P@GIKFELLM@khorakhangthai?$AA@ 00512ea4     sdl_ttf:psmodule.obj
 0006:00014e14       ??_C@_05CDILEEGN@khook?$AA@ 00512eb4     sdl_ttf:psmodule.obj
 0006:00014e1c       ??_C@_0L@MMIALILF@khomutthai?$AA@ 00512ebc     sdl_ttf:psmodule.obj
 0006:00014e28       ??_C@_0N@JBDKBBOD@khokhwaithai?$AA@ 00512ec8     sdl_ttf:psmodule.obj
 0006:00014e38       ??_C@_0N@GMFHAHNL@khokhuatthai?$AA@ 00512ed8     sdl_ttf:psmodule.obj
 0006:00014e48       ??_C@_0M@IKMDMHFN@khokhonthai?$AA@ 00512ee8     sdl_ttf:psmodule.obj
 0006:00014e54       ??_C@_0M@MHPJIMLI@khokhaithai?$AA@ 00512ef4     sdl_ttf:psmodule.obj
 0006:00014e60       ??_C@_0BD@DODIBGLF@khieukhparenkorean?$AA@ 00512f00     sdl_ttf:psmodule.obj
 0006:00014e74       ??_C@_0O@KNODELLH@khieukhkorean?$AA@ 00512f14     sdl_ttf:psmodule.obj
 0006:00014e84       ??_C@_0BE@GEBBGBIL@khieukhcirclekorean?$AA@ 00512f24     sdl_ttf:psmodule.obj
 0006:00014e98       ??_C@_0BE@JLENOBLM@khieukhaparenkorean?$AA@ 00512f38     sdl_ttf:psmodule.obj
 0006:00014eac       ??_C@_0BF@BNGIKMNI@khieukhacirclekorean?$AA@ 00512f4c     sdl_ttf:psmodule.obj
 0006:00014ec4       ??_C@_0N@NPBMCFJB@khhagurmukhi?$AA@ 00512f64     sdl_ttf:psmodule.obj
 0006:00014ed4       ??_C@_08PDOPAJOD@khhadeva?$AA@ 00512f74     sdl_ttf:psmodule.obj
 0006:00014ee0       ??_C@_0L@KLEIJAKI@kheicoptic?$AA@ 00512f80     sdl_ttf:psmodule.obj
 0006:00014eec       ??_C@_0BB@FBGBFJIE@khahmedialarabic?$AA@ 00512f8c     sdl_ttf:psmodule.obj
 0006:00014f00       ??_C@_0BC@JGCDJKIN@khahinitialarabic?$AA@ 00512fa0     sdl_ttf:psmodule.obj
 0006:00014f14       ??_C@_0BA@EPMLDI@khahfinalarabic?$AA@ 00512fb4     sdl_ttf:psmodule.obj
 0006:00014f24       ??_C@_0L@DKCLHHCH@khaharabic?$AA@ 00512fc4     sdl_ttf:psmodule.obj
 0006:00014f30       ??_C@_0M@DFBJBCHB@khagurmukhi?$AA@ 00512fd0     sdl_ttf:psmodule.obj
 0006:00014f3c       ??_C@_0M@NOELGGMD@khagujarati?$AA@ 00512fdc     sdl_ttf:psmodule.obj
 0006:00014f48       ??_C@_07CAHNNKLO@khadeva?$AA@ 00512fe8     sdl_ttf:psmodule.obj
 0006:00014f50       ??_C@_0M@KPMBFLND@khacyrillic?$AA@ 00512ff0     sdl_ttf:psmodule.obj
 0006:00014f5c       ??_C@_0L@EKGBPNDD@khabengali?$AA@ 00512ffc     sdl_ttf:psmodule.obj
 0006:00014f68       ??_C@_0N@BDEAJALO@kgreenlandic?$AA@ 00513008     sdl_ttf:psmodule.obj
 0006:00014f78       ??_C@_0BA@LGHLPIEN@kesmallkatakana?$AA@ 00513018     sdl_ttf:psmodule.obj
 0006:00014f88       ??_C@_0M@PGDFNJHC@kenarmenian?$AA@ 00513028     sdl_ttf:psmodule.obj
 0006:00014f94       ??_C@_0BE@MILJGLPM@kekatakanahalfwidth?$AA@ 00513034     sdl_ttf:psmodule.obj
 0006:00014fa8       ??_C@_0L@JKGMGNDG@kekatakana?$AA@ 00513048     sdl_ttf:psmodule.obj
 0006:00014fb4       ??_C@_0L@NGCEJCHN@kehiragana?$AA@ 00513054     sdl_ttf:psmodule.obj
 0006:00014fc0       ??_C@_0M@PLCLKJDF@keharmenian?$AA@ 00513060     sdl_ttf:psmodule.obj
 0006:00014fcc       ??_C@_09GDPKIDHC@kdotbelow?$AA@ 0051306c     sdl_ttf:psmodule.obj
 0006:00014fd8       ??_C@_0N@GIPECDEB@kcommaaccent?$AA@ 00513078     sdl_ttf:psmodule.obj
 0006:00014fe8       ??_C@_07HBDPNCHF@kcircle?$AA@ 00513088     sdl_ttf:psmodule.obj
 0006:00014ff0       ??_C@_08LLGEIFL@kcedilla?$AA@ 00513090     sdl_ttf:psmodule.obj
 0006:00014ffc       ??_C@_06LINDLJLE@kcaron?$AA@ 0051309c     sdl_ttf:psmodule.obj
 0006:00015004       ??_C@_0L@PBKIAINI@kcalsquare?$AA@ 005130a4     sdl_ttf:psmodule.obj
 0006:00015010       ??_C@_09PHDOIKMM@kbopomofo?$AA@ 005130b0     sdl_ttf:psmodule.obj
 0006:0001501c       ??_C@_0BJ@KGBPAGAI@kaverticalstrokecyrillic?$AA@ 005130bc     sdl_ttf:psmodule.obj
 0006:00015038       ??_C@_0BN@GMAEFEMC@katahiraprolongmarkhalfwidth?$AA@ 005130d8     sdl_ttf:psmodule.obj
 0006:00015058       ??_C@_0BB@OBPIILED@kastrokecyrillic?$AA@ 005130f8     sdl_ttf:psmodule.obj
 0006:0001506c       ??_C@_0P@NNHKHHCK@kasratanarabic?$AA@ 0051310c     sdl_ttf:psmodule.obj
 0006:0001507c       ??_C@_0M@MEFKIPKG@kasraarabic?$AA@ 0051311c     sdl_ttf:psmodule.obj
 0006:00015088       ??_C@_08DLCIJMNK@kasquare?$AA@ 00513128     sdl_ttf:psmodule.obj
 0006:00015094       ??_C@_0BA@DMAHJNCO@kasmallkatakana?$AA@ 00513134     sdl_ttf:psmodule.obj
 0006:000150a4       ??_C@_0BP@CHPDMPDL@kashidaautonosidebearingarabic?$AA@ 00513144     sdl_ttf:psmodule.obj
 0006:000150c4       ??_C@_0BC@CAKKBMEH@kashidaautoarabic?$AA@ 00513164     sdl_ttf:psmodule.obj
 0006:000150d8       ??_C@_0O@BIOIFNKP@karoriisquare?$AA@ 00513178     sdl_ttf:psmodule.obj
 0006:000150e8       ??_C@_0BJ@HGLBNOKC@kapyeounssangpieupkorean?$AA@ 00513188     sdl_ttf:psmodule.obj
 0006:00015104       ??_C@_0BE@DBMEBBPL@kapyeounpieupkorean?$AA@ 005131a4     sdl_ttf:psmodule.obj
 0006:00015118       ??_C@_0BG@DIBMBAGI@kapyeounphieuphkorean?$AA@ 005131b8     sdl_ttf:psmodule.obj
 0006:00015130       ??_C@_0BE@EEMNNJBD@kapyeounmieumkorean?$AA@ 005131d0     sdl_ttf:psmodule.obj
 0006:00015144       ??_C@_0BB@MPOEIGLP@kappasymbolgreek?$AA@ 005131e4     sdl_ttf:psmodule.obj
 0006:00015158       ??_C@_05MLHEGNBC@kappa?$AA@ 005131f8     sdl_ttf:psmodule.obj
 0006:00015160       ??_C@_0BE@CBNBGGBO@kakatakanahalfwidth?$AA@ 00513200     sdl_ttf:psmodule.obj
 0006:00015174       ??_C@_0L@JDIHMNEM@kakatakana?$AA@ 00513214     sdl_ttf:psmodule.obj
 0006:00015180       ??_C@_0P@OHDAKEBP@kahookcyrillic?$AA@ 00513220     sdl_ttf:psmodule.obj
 0006:00015190       ??_C@_0L@NPMPDCAH@kahiragana?$AA@ 00513230     sdl_ttf:psmodule.obj
 0006:0001519c       ??_C@_0L@OFGJMLPF@kagurmukhi?$AA@ 0051323c     sdl_ttf:psmodule.obj
 0006:000151a8       ??_C@_0L@ODLLPEH@kagujarati?$AA@ 00513248     sdl_ttf:psmodule.obj
 0006:000151b4       ??_C@_0O@DKHEBMOJ@kafrafehebrew?$AA@ 00513254     sdl_ttf:psmodule.obj
 0006:000151c4       ??_C@_0BA@FAAJEBAK@kafmedialarabic?$AA@ 00513264     sdl_ttf:psmodule.obj
 0006:000151d4       ??_C@_0BB@JMCCFMLC@kafinitialarabic?$AA@ 00513274     sdl_ttf:psmodule.obj
 0006:000151e8       ??_C@_09IECIGCHO@kafhebrew?$AA@ 00513288     sdl_ttf:psmodule.obj
 0006:000151f4       ??_C@_0P@LDCGEDHJ@kaffinalarabic?$AA@ 00513294     sdl_ttf:psmodule.obj
 0006:00015204       ??_C@_0BA@OKHOOGJB@kafdageshhebrew?$AA@ 005132a4     sdl_ttf:psmodule.obj
 0006:00015214       ??_C@_09IMGHLBG@kafdagesh?$AA@ 005132b4     sdl_ttf:psmodule.obj
 0006:00015220       ??_C@_09DPGOBGPA@kafarabic?$AA@ 005132c0     sdl_ttf:psmodule.obj
 0006:0001522c       ??_C@_03EICODNNH@kaf?$AA@  005132cc     sdl_ttf:psmodule.obj
 0006:00015230       ??_C@_06GEFKHMNJ@kadeva?$AA@ 005132d0     sdl_ttf:psmodule.obj
 0006:00015238       ??_C@_0BE@DNOOCEKC@kadescendercyrillic?$AA@ 005132d8     sdl_ttf:psmodule.obj
 0006:0001524c       ??_C@_0L@HPLBICFH@kacyrillic?$AA@ 005132ec     sdl_ttf:psmodule.obj
 0006:00015258       ??_C@_06OBILOGDM@kacute?$AA@ 005132f8     sdl_ttf:psmodule.obj
 0006:00015260       ??_C@_09FKKOIONG@kabengali?$AA@ 00513300     sdl_ttf:psmodule.obj
 0006:0001526c       ??_C@_0BC@NHJNDJOL@kabashkircyrillic?$AA@ 0051330c     sdl_ttf:psmodule.obj
 0006:00015280       ??_C@_09NIMBLBFJ@jsuperior?$AA@ 00513320     sdl_ttf:psmodule.obj
 0006:0001528c       ??_C@_06JGHBEHOD@jparen?$AA@ 0051332c     sdl_ttf:psmodule.obj
 0006:00015294       ??_C@_0L@JMLKCKMC@jmonospace?$AA@ 00513334     sdl_ttf:psmodule.obj
 0006:000152a0       ??_C@_03MJDEONBO@jis?$AA@  00513340     sdl_ttf:psmodule.obj
 0006:000152a4       ??_C@_0N@MMLIEHFA@jheharmenian?$AA@ 00513344     sdl_ttf:psmodule.obj
 0006:000152b4       ??_C@_0M@KOLMFOBO@jhagurmukhi?$AA@ 00513354     sdl_ttf:psmodule.obj
 0006:000152c0       ??_C@_0M@EFOOCKKM@jhagujarati?$AA@ 00513360     sdl_ttf:psmodule.obj
 0006:000152cc       ??_C@_07OMNHNKCA@jhadeva?$AA@ 0051336c     sdl_ttf:psmodule.obj
 0006:000152d4       ??_C@_0L@ILOPCCPD@jhabengali?$AA@ 00513374     sdl_ttf:psmodule.obj
 0006:000152e0       ??_C@_0P@OJJHBLDK@jehfinalarabic?$AA@ 00513380     sdl_ttf:psmodule.obj
 0006:000152f0       ??_C@_09JIMKDOPA@jeharabic?$AA@ 00513390     sdl_ttf:psmodule.obj
 0006:000152fc       ??_C@_0BB@NBFCNLJA@jeemmedialarabic?$AA@ 0051339c     sdl_ttf:psmodule.obj
 0006:00015310       ??_C@_0BC@IMHJHNHC@jeeminitialarabic?$AA@ 005133b0     sdl_ttf:psmodule.obj
 0006:00015324       ??_C@_0BA@FGKKBEKN@jeemfinalarabic?$AA@ 005133c4     sdl_ttf:psmodule.obj
 0006:00015334       ??_C@_0L@BLFHHMDP@jeemarabic?$AA@ 005133d4     sdl_ttf:psmodule.obj
 0006:00015340       ??_C@_0L@LHNEPNON@jecyrillic?$AA@ 005133e0     sdl_ttf:psmodule.obj
 0006:0001534c       ??_C@_0P@OBDOLJCP@jdotlessstroke?$AA@ 005133ec     sdl_ttf:psmodule.obj
 0006:0001535c       ??_C@_0N@LNNFEKDC@jcrossedtail?$AA@ 005133fc     sdl_ttf:psmodule.obj
 0006:0001536c       ??_C@_0M@OGPIPNBK@jcircumflex?$AA@ 0051340c     sdl_ttf:psmodule.obj
 0006:00015378       ??_C@_07LNJFNCOL@jcircle?$AA@ 00513418     sdl_ttf:psmodule.obj
 0006:00015380       ??_C@_06BOKELCAA@jcaron?$AA@ 00513420     sdl_ttf:psmodule.obj
 0006:00015388       ??_C@_09BIPMOBPC@jbopomofo?$AA@ 00513428     sdl_ttf:psmodule.obj
 0006:00015394       ??_C@_0L@CEOHBEDF@jagurmukhi?$AA@ 00513434     sdl_ttf:psmodule.obj
 0006:000153a0       ??_C@_0L@MPLFGAIH@jagujarati?$AA@ 00513440     sdl_ttf:psmodule.obj
 0006:000153ac       ??_C@_06MCCNHHGN@jadeva?$AA@ 0051344c     sdl_ttf:psmodule.obj
 0006:000153b4       ??_C@_09LFGMOFOI@jabengali?$AA@ 00513454     sdl_ttf:psmodule.obj
 0006:000153c0       ??_C@_0L@NNFEMJLM@jaarmenian?$AA@ 00513460     sdl_ttf:psmodule.obj
 0006:000153cc       ??_C@_0BI@PCBLOKLJ@izhitsadblgravecyrillic?$AA@ 0051346c     sdl_ttf:psmodule.obj
 0006:000153e4       ??_C@_0BA@HIHPICKB@izhitsacyrillic?$AA@ 00513484     sdl_ttf:psmodule.obj
 0006:000153f4       ??_C@_0BD@MENCKNKK@ivowelsigngujarati?$AA@ 00513494     sdl_ttf:psmodule.obj
 0006:00015408       ??_C@_0P@KLHBCPIK@ivowelsigndeva?$AA@ 005134a8     sdl_ttf:psmodule.obj
 0006:00015418       ??_C@_0BC@JHOOJCH@ivowelsignbengali?$AA@ 005134b8     sdl_ttf:psmodule.obj
 0006:0001542c       ??_C@_0L@JJIBKAE@iucyrillic?$AA@ 005134cc     sdl_ttf:psmodule.obj
 0006:00015438       ??_C@_0L@GNMNEKLA@iubopomofo?$AA@ 005134d8     sdl_ttf:psmodule.obj
 0006:00015444       ??_C@_0M@CDELKDIK@itildebelow?$AA@ 005134e4     sdl_ttf:psmodule.obj
 0006:00015450       ??_C@_06FOIIMHPJ@itilde?$AA@ 005134f0     sdl_ttf:psmodule.obj
 0006:00015458       ??_C@_0BC@OFBLLHJL@iterationkatakana?$AA@ 005134f8     sdl_ttf:psmodule.obj
 0006:0001546c       ??_C@_0BC@KJFDEINA@iterationhiragana?$AA@ 0051350c     sdl_ttf:psmodule.obj
 0006:00015480       ??_C@_07KEBFPBLO@istroke?$AA@ 00513520     sdl_ttf:psmodule.obj
 0006:00015488       ??_C@_0O@HGIGDFEA@issharbengali?$AA@ 00513528     sdl_ttf:psmodule.obj
 0006:00015498       ??_C@_0BI@OMNIHNOD@ismallkatakanahalfwidth?$AA@ 00513538     sdl_ttf:psmodule.obj
 0006:000154b0       ??_C@_0P@KLHMLPCB@ismallkatakana?$AA@ 00513550     sdl_ttf:psmodule.obj
 0006:000154c0       ??_C@_0P@OHDEEAGK@ismallhiragana?$AA@ 00513560     sdl_ttf:psmodule.obj
 0006:000154d0       ??_C@_0M@IGKMFAFF@irigurmukhi?$AA@ 00513570     sdl_ttf:psmodule.obj
 0006:000154dc       ??_C@_06KHJJFNHO@iparen?$AA@ 0051357c     sdl_ttf:psmodule.obj
 0006:000154e4       ??_C@_09KADHKHCO@iotatonos?$AA@ 00513584     sdl_ttf:psmodule.obj
 0006:000154f0       ??_C@_09DEMHDOOM@iotalatin?$AA@ 00513590     sdl_ttf:psmodule.obj
 0006:000154fc       ??_C@_0BC@DDAEANLO@iotadieresistonos?$AA@ 0051359c     sdl_ttf:psmodule.obj
 0006:00015510       ??_C@_0N@GJPGFNOI@iotadieresis?$AA@ 005135b0     sdl_ttf:psmodule.obj
 0006:00015520       ??_C@_04OBKEGAOB@iota?$AA@ 005135c0     sdl_ttf:psmodule.obj
 0006:00015528       ??_C@_07DFPIEDOD@iogonek?$AA@ 005135c8     sdl_ttf:psmodule.obj
 0006:00015530       ??_C@_0L@DJBEALCF@iocyrillic?$AA@ 005135d0     sdl_ttf:psmodule.obj
 0006:0001553c       ??_C@_0N@CDDONPN@invsmileface?$AA@ 005135dc     sdl_ttf:psmodule.obj
 0006:0001554c       ??_C@_09KJHKDEBM@invcircle?$AA@ 005135ec     sdl_ttf:psmodule.obj
 0006:00015558       ??_C@_09KAKCNMGC@invbullet?$AA@ 005135f8     sdl_ttf:psmodule.obj
 0006:00015564       ??_C@_0L@PCINDDPD@intisquare?$AA@ 00513604     sdl_ttf:psmodule.obj
 0006:00015570       ??_C@_0N@JIFGGPLM@intersection?$AA@ 00513610     sdl_ttf:psmodule.obj
 0006:00015580       ??_C@_0L@OEBFJPPG@integraltp?$AA@ 00513620     sdl_ttf:psmodule.obj
 0006:0001558c       ??_C@_0M@GMHPNPAN@integraltop?$AA@ 0051362c     sdl_ttf:psmodule.obj
 0006:00015598       ??_C@_0L@DBCINMLJ@integralex?$AA@ 00513638     sdl_ttf:psmodule.obj
 0006:000155a4       ??_C@_0L@JINCIFDA@integralbt?$AA@ 00513644     sdl_ttf:psmodule.obj
 0006:000155b0       ??_C@_0P@EIMJIHEK@integralbottom?$AA@ 00513650     sdl_ttf:psmodule.obj
 0006:000155c0       ??_C@_08GDAECAA@integral?$AA@ 00513660     sdl_ttf:psmodule.obj
 0006:000155cc       ??_C@_0M@NLPDNLNA@iniarmenian?$AA@ 0051366c     sdl_ttf:psmodule.obj
 0006:000155d8       ??_C@_08CGODDKPM@infinity?$AA@ 00513678     sdl_ttf:psmodule.obj
 0006:000155e4       ??_C@_09LMMMPEKD@increment?$AA@ 00513684     sdl_ttf:psmodule.obj
 0006:000155f0       ??_C@_0L@FFIEMMD@imonospace?$AA@ 00513690     sdl_ttf:psmodule.obj
 0006:000155fc       ??_C@_0P@HHMEJHBO@imatragurmukhi?$AA@ 0051369c     sdl_ttf:psmodule.obj
 0006:0001560c       ??_C@_0BK@KECHKLIL@imageorapproximatelyequal?$AA@ 005136ac     sdl_ttf:psmodule.obj
 0006:00015628       ??_C@_0BA@IJMPCDPD@imacroncyrillic?$AA@ 005136c8     sdl_ttf:psmodule.obj
 0006:00015638       ??_C@_07NLOBMFGC@imacron?$AA@ 005136d8     sdl_ttf:psmodule.obj
 0006:00015640       ??_C@_0L@JBNHDINK@iluyhebrew?$AA@ 005136e0     sdl_ttf:psmodule.obj
 0006:0001564c       ??_C@_04ILFLKJHL@ilde?$AA@ 005136ec     sdl_ttf:psmodule.obj
 0006:00015654       ??_C@_07BIOLGNDG@ikorean?$AA@ 005136f4     sdl_ttf:psmodule.obj
 0006:0001565c       ??_C@_0BD@OANLECBM@ikatakanahalfwidth?$AA@ 005136fc     sdl_ttf:psmodule.obj
 0006:00015670       ??_C@_09HLKIEFFO@ikatakana?$AA@ 00513710     sdl_ttf:psmodule.obj
 0006:0001567c       ??_C@_02NIKKFFGP@ij?$AA@   0051371c     sdl_ttf:psmodule.obj
 0006:00015680       ??_C@_0BE@MGLHOCKB@iivowelsigngujarati?$AA@ 00513720     sdl_ttf:psmodule.obj
 0006:00015694       ??_C@_0BA@HECDOEGB@iivowelsigndeva?$AA@ 00513734     sdl_ttf:psmodule.obj
 0006:000156a4       ??_C@_0BD@BKCOIOE@iivowelsignbengali?$AA@ 00513744     sdl_ttf:psmodule.obj
 0006:000156b8       ??_C@_0BA@KEPPHFAN@iishortcyrillic?$AA@ 00513758     sdl_ttf:psmodule.obj
 0006:000156c8       ??_C@_0P@BKCLIGOH@iinvertedbreve?$AA@ 00513768     sdl_ttf:psmodule.obj
 0006:000156d8       ??_C@_0BA@KIJGFMPF@iimatragurmukhi?$AA@ 00513778     sdl_ttf:psmodule.obj
 0006:000156e8       ??_C@_0L@KONCDCMA@iigurmukhi?$AA@ 00513788     sdl_ttf:psmodule.obj
 0006:000156f4       ??_C@_0L@EFIAEGHC@iigujarati?$AA@ 00513794     sdl_ttf:psmodule.obj
 0006:00015700       ??_C@_06BPJGOPJN@iideva?$AA@ 005137a0     sdl_ttf:psmodule.obj
 0006:00015708       ??_C@_0L@DEAKHLGC@iicyrillic?$AA@ 005137a8     sdl_ttf:psmodule.obj
 0006:00015714       ??_C@_09OFIDPMPD@iibengali?$AA@ 005137b4     sdl_ttf:psmodule.obj
 0006:00015720       ??_C@_0L@HFJINCNA@ihookabove?$AA@ 005137c0     sdl_ttf:psmodule.obj
 0006:0001572c       ??_C@_09DHOALKBF@ihiragana?$AA@ 005137cc     sdl_ttf:psmodule.obj
 0006:00015738       ??_C@_09NEGEDOH@igurmukhi?$AA@ 005137d8     sdl_ttf:psmodule.obj
 0006:00015744       ??_C@_09OGBEDHFF@igujarati?$AA@ 005137e4     sdl_ttf:psmodule.obj
 0006:00015750       ??_C@_0BB@LPONPCHD@ieungparenkorean?$AA@ 005137f0     sdl_ttf:psmodule.obj
 0006:00015764       ??_C@_0M@DCPBOAL@ieungkorean?$AA@ 00513804     sdl_ttf:psmodule.obj
 0006:00015770       ??_C@_0BC@BGJHNDOK@ieungcirclekorean?$AA@ 00513810     sdl_ttf:psmodule.obj
 0006:00015784       ??_C@_0BC@OJMLFDNN@ieungaparenkorean?$AA@ 00513824     sdl_ttf:psmodule.obj
 0006:00015798       ??_C@_0BD@CHKPHLKE@ieungacirclekorean?$AA@ 00513838     sdl_ttf:psmodule.obj
 0006:000157ac       ??_C@_0L@CODGJLOM@iecyrillic?$AA@ 0051384c     sdl_ttf:psmodule.obj
 0006:000157b8       ??_C@_0BA@GGNLADK@iebrevecyrillic?$AA@ 00513858     sdl_ttf:psmodule.obj
 0006:000157c8       ??_C@_09GHAPFDEP@idotbelow?$AA@ 00513868     sdl_ttf:psmodule.obj
 0006:000157d4       ??_C@_0BC@MJLFIBAO@idieresiscyrillic?$AA@ 00513874     sdl_ttf:psmodule.obj
 0006:000157e8       ??_C@_0P@PAKFBBJK@idieresisacute?$AA@ 00513888     sdl_ttf:psmodule.obj
 0006:000157f8       ??_C@_05CNBGJIHG@ideva?$AA@ 00513898     sdl_ttf:psmodule.obj
 0006:00015800       ??_C@_0BE@LKNHIDHM@ideographwoodcircle?$AA@ 005138a0     sdl_ttf:psmodule.obj
 0006:00015814       ??_C@_0BF@KMICDJGE@ideographwatercircle?$AA@ 005138b4     sdl_ttf:psmodule.obj
 0006:0001582c       ??_C@_0BD@IHPFPDNN@ideographsuncircle?$AA@ 005138cc     sdl_ttf:psmodule.obj
 0006:00015840       ??_C@_0BE@JDPJGBJJ@ideographnamecircle?$AA@ 005138e0     sdl_ttf:psmodule.obj
 0006:00015854       ??_C@_0BE@GHEOADPL@ideographmooncircle?$AA@ 005138f4     sdl_ttf:psmodule.obj
 0006:00015868       ??_C@_0BF@MOKJDNGO@ideographmetalcircle?$AA@ 00513908     sdl_ttf:psmodule.obj
 0006:00015880       ??_C@_0BA@LDAJMALH@ideographiczero?$AA@ 00513920     sdl_ttf:psmodule.obj
 0006:00015890       ??_C@_0BF@EKNOPJBB@ideographicwoodparen?$AA@ 00513930     sdl_ttf:psmodule.obj
 0006:000158a8       ??_C@_0BG@NELMPJCB@ideographicwaterparen?$AA@ 00513948     sdl_ttf:psmodule.obj
 0006:000158c0       ??_C@_0BK@MNDIADNN@ideographicsuperviseparen?$AA@ 00513960     sdl_ttf:psmodule.obj
 0006:000158dc       ??_C@_0BE@MAEAABJA@ideographicsunparen?$AA@ 0051397c     sdl_ttf:psmodule.obj
 0006:000158f0       ??_C@_0BG@HMDEIACI@ideographicstudyparen?$AA@ 00513990     sdl_ttf:psmodule.obj
 0006:00015908       ??_C@_0BG@LPFOMMDJ@ideographicstockparen?$AA@ 005139a8     sdl_ttf:psmodule.obj
 0006:00015920       ??_C@_0BI@JFCKAHHJ@ideographicspecialparen?$AA@ 005139c0     sdl_ttf:psmodule.obj
 0006:00015938       ??_C@_0BB@IJIFPICC@ideographicspace?$AA@ 005139d8     sdl_ttf:psmodule.obj
 0006:0001594c       ??_C@_0BI@PDLIFAEM@ideographicsocietyparen?$AA@ 005139ec     sdl_ttf:psmodule.obj
 0006:00015964       ??_C@_0BF@MPALMFDP@ideographicselfparen?$AA@ 00513a04     sdl_ttf:psmodule.obj
 0006:0001597c       ??_C@_0BI@CHGGNAN@ideographicsecretcircle?$AA@ 00513a1c     sdl_ttf:psmodule.obj
 0006:00015994       ??_C@_0BH@BBGEPOKH@ideographicrightcircle?$AA@ 00513a34     sdl_ttf:psmodule.obj
 0006:000159ac       ??_C@_0BJ@GFGCIJGO@ideographicresourceparen?$AA@ 00513a4c     sdl_ttf:psmodule.obj
 0006:000159c8       ??_C@_0BK@MLDGLKLC@ideographicrepresentparen?$AA@ 00513a68     sdl_ttf:psmodule.obj
 0006:000159e4       ??_C@_0BG@EPJGDICA@ideographicreachparen?$AA@ 00513a84     sdl_ttf:psmodule.obj
 0006:000159fc       ??_C@_0BH@BNFLGKIO@ideographicprintcircle?$AA@ 00513a9c     sdl_ttf:psmodule.obj
 0006:00015a14       ??_C@_0BC@PDOBGLOK@ideographicperiod?$AA@ 00513ab4     sdl_ttf:psmodule.obj
 0006:00015a28       ??_C@_0BF@LNPFIEGI@ideographicnameparen?$AA@ 00513ac8     sdl_ttf:psmodule.obj
 0006:00015a40       ??_C@_0BF@NOCCLHHO@ideographicmoonparen?$AA@ 00513ae0     sdl_ttf:psmodule.obj
 0006:00015a58       ??_C@_0BG@CCKFCMHN@ideographicmetalparen?$AA@ 00513af8     sdl_ttf:psmodule.obj
 0006:00015a70       ??_C@_0BK@HAIOPEMI@ideographicmedicinecircle?$AA@ 00513b10     sdl_ttf:psmodule.obj
 0006:00015a8c       ??_C@_0BF@PIHAPLKB@ideographiclowcircle?$AA@ 00513b2c     sdl_ttf:psmodule.obj
 0006:00015aa4       ??_C@_0BG@KEBHLKFD@ideographicleftcircle?$AA@ 00513b44     sdl_ttf:psmodule.obj
 0006:00015abc       ??_C@_0BG@BHHBJNJN@ideographiclaborparen?$AA@ 00513b5c     sdl_ttf:psmodule.obj
 0006:00015ad4       ??_C@_0BH@KKJIOAK@ideographiclaborcircle?$AA@ 00513b74     sdl_ttf:psmodule.obj
 0006:00015aec       ??_C@_0BJ@BBEPBMNF@ideographiciterationmark?$AA@ 00513b8c     sdl_ttf:psmodule.obj
 0006:00015b08       ??_C@_0BG@DCJNBJHI@ideographichighcircle?$AA@ 00513ba8     sdl_ttf:psmodule.obj
 0006:00015b20       ??_C@_0BF@JBDKNJFC@ideographichaveparen?$AA@ 00513bc0     sdl_ttf:psmodule.obj
 0006:00015b38       ??_C@_0BF@LAGBEFAD@ideographicfireparen?$AA@ 00513bd8     sdl_ttf:psmodule.obj
 0006:00015b50       ??_C@_0BK@HFBAHBGI@ideographicfinancialparen?$AA@ 00513bf0     sdl_ttf:psmodule.obj
 0006:00015b6c       ??_C@_0BL@MHBMOJHF@ideographicfinancialcircle?$AA@ 00513c0c     sdl_ttf:psmodule.obj
 0006:00015b88       ??_C@_0BJ@CAGIALFC@ideographicfestivalparen?$AA@ 00513c28     sdl_ttf:psmodule.obj
 0006:00015ba4       ??_C@_0BL@HBBGGMHF@ideographicexcellentcircle?$AA@ 00513c44     sdl_ttf:psmodule.obj
 0006:00015bc0       ??_C@_0BL@JKCLHOEO@ideographicenterpriseparen?$AA@ 00513c60     sdl_ttf:psmodule.obj
 0006:00015bdc       ??_C@_0BG@CCIDAPJE@ideographicearthparen?$AA@ 00513c7c     sdl_ttf:psmodule.obj
 0006:00015bf4       ??_C@_0BJ@NEOFEBJM@ideographiccorrectcircle?$AA@ 00513c94     sdl_ttf:psmodule.obj
 0006:00015c10       ??_C@_0BP@KDDGIAAE@ideographiccongratulationparen?$AA@ 00513cb0     sdl_ttf:psmodule.obj
 0006:00015c30       ??_C@_0BF@PMJJKEAG@ideographiccommaleft?$AA@ 00513cd0     sdl_ttf:psmodule.obj
 0006:00015c48       ??_C@_0BB@EMMHKNFM@ideographiccomma?$AA@ 00513ce8     sdl_ttf:psmodule.obj
 0006:00015c5c       ??_C@_0BB@NDLKFEHJ@ideographicclose?$AA@ 00513cfc     sdl_ttf:psmodule.obj
 0006:00015c70       ??_C@_0BI@IELOIJK@ideographiccentrecircle?$AA@ 00513d10     sdl_ttf:psmodule.obj
 0006:00015c88       ??_C@_0BF@BBDJEKJF@ideographiccallparen?$AA@ 00513d28     sdl_ttf:psmodule.obj
 0006:00015ca0       ??_C@_0BJ@KKMLCAI@ideographicallianceparen?$AA@ 00513d40     sdl_ttf:psmodule.obj
 0006:00015cbc       ??_C@_0BE@EJJEENII@ideographfirecircle?$AA@ 00513d5c     sdl_ttf:psmodule.obj
 0006:00015cd0       ??_C@_0BF@BHHPEBJB@ideographearthcircle?$AA@ 00513d70     sdl_ttf:psmodule.obj
 0006:00015ce8       ??_C@_09LDFPHOOH@idblgrave?$AA@ 00513d88     sdl_ttf:psmodule.obj
 0006:00015cf4       ??_C@_09JHJOAKEF@icyrillic?$AA@ 00513d94     sdl_ttf:psmodule.obj
 0006:00015d00       ??_C@_07DDBKNFAI@icircle?$AA@ 00513da0     sdl_ttf:psmodule.obj
 0006:00015d08       ??_C@_06CPEMKIJN@icaron?$AA@ 00513da8     sdl_ttf:psmodule.obj
 0006:00015d10       ??_C@_06POJNLIHI@ibreve?$AA@ 00513db0     sdl_ttf:psmodule.obj
 0006:00015d18       ??_C@_09PDMLFKPB@ibopomofo?$AA@ 00513db8     sdl_ttf:psmodule.obj
 0006:00015d24       ??_C@_08MNPCKPJB@ibengali?$AA@ 00513dc4     sdl_ttf:psmodule.obj
 0006:00015d30       ??_C@_0L@CHNNDLJG@iacyrillic?$AA@ 00513dd0     sdl_ttf:psmodule.obj
 0006:00015d3c       ??_C@_09LPPBFMCC@hyphentwo?$AA@ 00513ddc     sdl_ttf:psmodule.obj
 0006:00015d48       ??_C@_0M@JKGADKEJ@hyphensmall?$AA@ 00513de8     sdl_ttf:psmodule.obj
 0006:00015d54       ??_C@_0BA@JPENNNJM@hyphenmonospace?$AA@ 00513df4     sdl_ttf:psmodule.obj
 0006:00015d64       ??_C@_02DPBPGCAF@hv?$AA@   00513e04     sdl_ttf:psmodule.obj
 0006:00015d68       ??_C@_0BA@DDJBAGPD@hungarumlautcmb?$AA@ 00513e08     sdl_ttf:psmodule.obj
 0006:00015d78       ??_C@_0BE@HEFCBNDM@hukatakanahalfwidth?$AA@ 00513e18     sdl_ttf:psmodule.obj
 0006:00015d8c       ??_C@_0L@CECAIKNP@hukatakana?$AA@ 00513e2c     sdl_ttf:psmodule.obj
 0006:00015d98       ??_C@_0N@FKNECJLE@huiitosquare?$AA@ 00513e38     sdl_ttf:psmodule.obj
 0006:00015da8       ??_C@_0L@GIGIHFJE@huhiragana?$AA@ 00513e48     sdl_ttf:psmodule.obj
 0006:00015db4       ??_C@_07MNHNGHCF@hturned?$AA@ 00513e54     sdl_ttf:psmodule.obj
 0006:00015dbc       ??_C@_09NMDEGBGE@hsuperior?$AA@ 00513e5c     sdl_ttf:psmodule.obj
 0006:00015dc8       ??_C@_06BOOFGMK@hparen?$AA@ 00513e68     sdl_ttf:psmodule.obj
 0006:00015dd0       ??_C@_05KDCECKLC@house?$AA@ 00513e70     sdl_ttf:psmodule.obj
 0006:00015dd8       ??_C@_0L@HNMAHMEE@hotsprings?$AA@ 00513e78     sdl_ttf:psmodule.obj
 0006:00015de4       ??_C@_07LKJCMLMJ@horncmb?$AA@ 00513e84     sdl_ttf:psmodule.obj
 0006:00015dec       ??_C@_0O@LOAFHBFH@horizontalbar?$AA@ 00513e8c     sdl_ttf:psmodule.obj
 0006:00015dfc       ??_C@_0L@BINHMCGI@horicoptic?$AA@ 00513e9c     sdl_ttf:psmodule.obj
 0006:00015e08       ??_C@_0L@PIJBFCLI@hoonsquare?$AA@ 00513ea8     sdl_ttf:psmodule.obj
 0006:00015e14       ??_C@_0BG@EIHHCGJO@hookretroflexbelowcmb?$AA@ 00513eb4     sdl_ttf:psmodule.obj
 0006:00015e2c       ??_C@_0BI@DKOEBEHI@hookpalatalizedbelowcmb?$AA@ 00513ecc     sdl_ttf:psmodule.obj
 0006:00015e44       ??_C@_07MNDKFFPM@hookcmb?$AA@ 00513ee4     sdl_ttf:psmodule.obj
 0006:00015e4c       ??_C@_0O@KJJJEOFE@hookabovecomb?$AA@ 00513eec     sdl_ttf:psmodule.obj
 0006:00015e5c       ??_C@_0N@NCECONIM@honokhukthai?$AA@ 00513efc     sdl_ttf:psmodule.obj
 0006:00015e6c       ??_C@_0BA@DLJHADD@holamwidehebrew?$AA@ 00513f0c     sdl_ttf:psmodule.obj
 0006:00015e7c       ??_C@_0BD@LHGNNOAJ@holamquarterhebrew?$AA@ 00513f1c     sdl_ttf:psmodule.obj
 0006:00015e90       ??_C@_0BC@FJABKFEK@holamnarrowhebrew?$AA@ 00513f30     sdl_ttf:psmodule.obj
 0006:00015ea4       ??_C@_0M@EOLDLDEA@holamhebrew?$AA@ 00513f44     sdl_ttf:psmodule.obj
 0006:00015eb0       ??_C@_07DNFIBGCO@holam32?$AA@ 00513f50     sdl_ttf:psmodule.obj
 0006:00015eb8       ??_C@_07FIPGLJBN@holam26?$AA@ 00513f58     sdl_ttf:psmodule.obj
 0006:00015ec0       ??_C@_07NNCIBLIL@holam19?$AA@ 00513f60     sdl_ttf:psmodule.obj
 0006:00015ec8       ??_C@_05FJEOMPLB@holam?$AA@ 00513f68     sdl_ttf:psmodule.obj
 0006:00015ed0       ??_C@_0BE@BKAFDNEC@hokatakanahalfwidth?$AA@ 00513f70     sdl_ttf:psmodule.obj
 0006:00015ee4       ??_C@_0L@BEKMJLPO@hokatakana?$AA@ 00513f84     sdl_ttf:psmodule.obj
 0006:00015ef0       ??_C@_0L@FIOEGELF@hohiragana?$AA@ 00513f90     sdl_ttf:psmodule.obj
 0006:00015efc       ??_C@_09EEHHMKJL@hohipthai?$AA@ 00513f9c     sdl_ttf:psmodule.obj
 0006:00015f08       ??_C@_0L@JLPBEAMO@hoarmenian?$AA@ 00513fa8     sdl_ttf:psmodule.obj
 0006:00015f14       ??_C@_0L@MENGJDAD@hmonospace?$AA@ 00513fb4     sdl_ttf:psmodule.obj
 0006:00015f20       ??_C@_0L@BPHAEGFP@hlinebelow?$AA@ 00513fc0     sdl_ttf:psmodule.obj
 0006:00015f2c       ??_C@_0BA@NPHLLODN@hiriqwidehebrew?$AA@ 00513fcc     sdl_ttf:psmodule.obj
 0006:00015f3c       ??_C@_0BD@JNOAKKID@hiriqquarterhebrew?$AA@ 00513fdc     sdl_ttf:psmodule.obj
 0006:00015f50       ??_C@_0BC@LLFOLLLB@hiriqnarrowhebrew?$AA@ 00513ff0     sdl_ttf:psmodule.obj
 0006:00015f64       ??_C@_0M@PKNEOCE@hiriqhebrew?$AA@ 00514004     sdl_ttf:psmodule.obj
 0006:00015f70       ??_C@_07KAMIHDPM@hiriq2d?$AA@ 00514010     sdl_ttf:psmodule.obj
 0006:00015f78       ??_C@_07GHAENKON@hiriq21?$AA@ 00514018     sdl_ttf:psmodule.obj
 0006:00015f80       ??_C@_07BIDFJAPB@hiriq14?$AA@ 00514020     sdl_ttf:psmodule.obj
 0006:00015f88       ??_C@_05IOKMBGFI@hiriq?$AA@ 00514028     sdl_ttf:psmodule.obj
 0006:00015f90       ??_C@_0BE@IHNJDGFB@hikatakanahalfwidth?$AA@ 00514030     sdl_ttf:psmodule.obj
 0006:00015fa4       ??_C@_0L@BJLCOLLJ@hikatakana?$AA@ 00514044     sdl_ttf:psmodule.obj
 0006:00015fb0       ??_C@_0L@FFPKBEPC@hihiragana?$AA@ 00514050     sdl_ttf:psmodule.obj
 0006:00015fbc       ??_C@_0BB@NFPBKHAD@hieuhparenkorean?$AA@ 0051405c     sdl_ttf:psmodule.obj
 0006:00015fd0       ??_C@_0M@ECILIPEL@hieuhkorean?$AA@ 00514070     sdl_ttf:psmodule.obj
 0006:00015fdc       ??_C@_0BC@EGPILOID@hieuhcirclekorean?$AA@ 0051407c     sdl_ttf:psmodule.obj
 0006:00015ff0       ??_C@_0BC@LJKEDOLE@hieuhaparenkorean?$AA@ 00514090     sdl_ttf:psmodule.obj
 0006:00016004       ??_C@_0BD@BDJBMNDF@hieuhacirclekorean?$AA@ 005140a4     sdl_ttf:psmodule.obj
 0006:00016018       ??_C@_0O@HHKMMCHN@hhooksuperior?$AA@ 005140b8     sdl_ttf:psmodule.obj
 0006:00016028       ??_C@_05KFBPDGMD@hhook?$AA@ 005140c8     sdl_ttf:psmodule.obj
 0006:00016030       ??_C@_09MGNLOCH@hethebrew?$AA@ 005140d0     sdl_ttf:psmodule.obj
 0006:0001603c       ??_C@_03CFGGEKDG@het?$AA@  005140dc     sdl_ttf:psmodule.obj
 0006:00016040       ??_C@_0N@LPCMLEC@herutusquare?$AA@ 005140e0     sdl_ttf:psmodule.obj
 0006:00016050       ??_C@_08KHLLILMA@henghook?$AA@ 005140f0     sdl_ttf:psmodule.obj
 0006:0001605c       ??_C@_0BA@BOOOAGBE@hekutaarusquare?$AA@ 005140fc     sdl_ttf:psmodule.obj
 0006:0001606c       ??_C@_0BE@GHBACGDG@hekatakanahalfwidth?$AA@ 0051410c     sdl_ttf:psmodule.obj
 0006:00016080       ??_C@_0L@DIOALDH@hekatakana?$AA@ 00514120     sdl_ttf:psmodule.obj
 0006:0001608c       ??_C@_0BA@IDABMCBJ@heiseierasquare?$AA@ 0051412c     sdl_ttf:psmodule.obj
 0006:0001609c       ??_C@_0BA@DICGMFBL@hehmedialarabic?$AA@ 0051413c     sdl_ttf:psmodule.obj
 0006:000160ac       ??_C@_0BG@NNDNCKIJ@hehmedialaltonearabic?$AA@ 0051414c     sdl_ttf:psmodule.obj
 0006:000160c4       ??_C@_0L@EPMGPEHM@hehiragana?$AA@ 00514164     sdl_ttf:psmodule.obj
 0006:000160d0       ??_C@_0BB@PGPKFDME@hehinitialarabic?$AA@ 00514170     sdl_ttf:psmodule.obj
 0006:000160e4       ??_C@_0BH@JHKAOLKI@hehinitialaltonearabic?$AA@ 00514184     sdl_ttf:psmodule.obj
 0006:000160fc       ??_C@_0BM@FNNKIKGL@hehhamzaaboveisolatedarabic?$AA@ 0051419c     sdl_ttf:psmodule.obj
 0006:00016118       ??_C@_0BJ@HAJAEEOC@hehhamzaabovefinalarabic?$AA@ 005141b8     sdl_ttf:psmodule.obj
 0006:00016134       ??_C@_0P@EBBBKKKL@hehfinalarabic?$AA@ 005141d4     sdl_ttf:psmodule.obj
 0006:00016144       ??_C@_0BF@KEKENIFK@hehfinalalttwoarabic?$AA@ 005141e4     sdl_ttf:psmodule.obj
 0006:0001615c       ??_C@_0BF@OKEJEKKH@hehfinalaltonearabic?$AA@ 005141fc     sdl_ttf:psmodule.obj
 0006:00016174       ??_C@_08IKIAFAJJ@hehebrew?$AA@ 00514214     sdl_ttf:psmodule.obj
 0006:00016180       ??_C@_09JMDPOOMN@heharabic?$AA@ 00514220     sdl_ttf:psmodule.obj
 0006:0001618c       ??_C@_0BA@FMCLCGAH@hehaltonearabic?$AA@ 0051422c     sdl_ttf:psmodule.obj
 0006:0001619c       ??_C@_0P@LIJPDKKN@hedageshhebrew?$AA@ 0051423c     sdl_ttf:psmodule.obj
 0006:000161ac       ??_C@_08GGOEJPB@hedagesh?$AA@ 0051424c     sdl_ttf:psmodule.obj
 0006:000161b8       ??_C@_0P@DKPKLIEC@heartsuitwhite?$AA@ 00514258     sdl_ttf:psmodule.obj
 0006:000161c8       ??_C@_0P@NODPDNDO@heartsuitblack?$AA@ 00514268     sdl_ttf:psmodule.obj
 0006:000161d8       ??_C@_05GEPELLPM@heart?$AA@ 00514278     sdl_ttf:psmodule.obj
 0006:000161e0       ??_C@_02FOPACDJH@he?$AA@   00514280     sdl_ttf:psmodule.obj
 0006:000161e4       ??_C@_09IIMNDIHB@hdotbelow?$AA@ 00514284     sdl_ttf:psmodule.obj
 0006:000161f0       ??_C@_0L@HFHCCGKK@hdotaccent?$AA@ 00514290     sdl_ttf:psmodule.obj
 0006:000161fc       ??_C@_09OEEGFKGI@hdieresis?$AA@ 0051429c     sdl_ttf:psmodule.obj
 0006:00016208       ??_C@_0M@KMDGDIF@hcircumflex?$AA@ 005142a8     sdl_ttf:psmodule.obj
 0006:00016214       ??_C@_07PPLANFJG@hcircle?$AA@ 005142b4     sdl_ttf:psmodule.obj
 0006:0001621c       ??_C@_08DCDLHEJO@hcedilla?$AA@ 005142bc     sdl_ttf:psmodule.obj
 0006:00016228       ??_C@_0M@LDNOBLHP@hbrevebelow?$AA@ 005142c8     sdl_ttf:psmodule.obj
 0006:00016234       ??_C@_09BMAJDBMP@hbopomofo?$AA@ 005142d4     sdl_ttf:psmodule.obj
 0006:00016240       ??_C@_04FFKMLBIF@hbar?$AA@ 005142e0     sdl_ttf:psmodule.obj
 0006:00016248       ??_C@_0BF@BKNIHFIN@hatafsegolwidehebrew?$AA@ 005142e8     sdl_ttf:psmodule.obj
 0006:00016260       ??_C@_0BI@DPGPKIIB@hatafsegolquarterhebrew?$AA@ 00514300     sdl_ttf:psmodule.obj
 0006:00016278       ??_C@_0BH@FDCNMLJC@hatafsegolnarrowhebrew?$AA@ 00514318     sdl_ttf:psmodule.obj
 0006:00016290       ??_C@_0BB@KOBMGFIK@hatafsegolhebrew?$AA@ 00514330     sdl_ttf:psmodule.obj
 0006:000162a4       ??_C@_0N@DFHCCJPG@hatafsegol30?$AA@ 00514344     sdl_ttf:psmodule.obj
 0006:000162b4       ??_C@_0N@FANMIGMF@hatafsegol24?$AA@ 00514354     sdl_ttf:psmodule.obj
 0006:000162c4       ??_C@_0N@HJLHGLFP@hatafsegol17?$AA@ 00514364     sdl_ttf:psmodule.obj
 0006:000162d4       ??_C@_0L@OJHEPNFN@hatafsegol?$AA@ 00514374     sdl_ttf:psmodule.obj
 0006:000162e0       ??_C@_0BG@PJKIMJOK@hatafqamatswidehebrew?$AA@ 00514380     sdl_ttf:psmodule.obj
 0006:000162f8       ??_C@_0BJ@GKICOFEP@hatafqamatsquarterhebrew?$AA@ 00514398     sdl_ttf:psmodule.obj
 0006:00016314       ??_C@_0BI@LLEGCKCF@hatafqamatsnarrowhebrew?$AA@ 005143b4     sdl_ttf:psmodule.obj
 0006:0001632c       ??_C@_0BC@KBGGMLP@hatafqamatshebrew?$AA@ 005143cc     sdl_ttf:psmodule.obj
 0006:00016340       ??_C@_0O@BCMFPEJC@hatafqamats34?$AA@ 005143e0     sdl_ttf:psmodule.obj
 0006:00016350       ??_C@_0O@LPLCNBKJ@hatafqamats28?$AA@ 005143f0     sdl_ttf:psmodule.obj
 0006:00016360       ??_C@_0O@PNKANKCO@hatafqamats1b?$AA@ 00514400     sdl_ttf:psmodule.obj
 0006:00016370       ??_C@_0M@KFHFLNOE@hatafqamats?$AA@ 00514410     sdl_ttf:psmodule.obj
 0006:0001637c       ??_C@_0BF@FKFPIKGE@hatafpatahwidehebrew?$AA@ 0051441c     sdl_ttf:psmodule.obj
 0006:00016394       ??_C@_0BI@HJKEKIBP@hatafpatahquarterhebrew?$AA@ 00514434     sdl_ttf:psmodule.obj
 0006:000163ac       ??_C@_0BH@PBJDCMDN@hatafpatahnarrowhebrew?$AA@ 0051444c     sdl_ttf:psmodule.obj
 0006:000163c4       ??_C@_0BB@OJEKCLHL@hatafpatahhebrew?$AA@ 00514464     sdl_ttf:psmodule.obj
 0006:000163d8       ??_C@_0N@BHIBMDOA@hatafpatah2f?$AA@ 00514478     sdl_ttf:psmodule.obj
 0006:000163e8       ??_C@_0N@NAENGKPB@hatafpatah23?$AA@ 00514488     sdl_ttf:psmodule.obj
 0006:000163f8       ??_C@_0N@KPHMCAON@hatafpatah16?$AA@ 00514498     sdl_ttf:psmodule.obj
 0006:00016408       ??_C@_0L@LGDODJEM@hatafpatah?$AA@ 005144a8     sdl_ttf:psmodule.obj
 0006:00016414       ??_C@_08CKFKABP@hasquare?$AA@ 005144b4     sdl_ttf:psmodule.obj
 0006:00016420       ??_C@_0BD@LHIMIDCK@harpoonrightbarbup?$AA@ 005144c0     sdl_ttf:psmodule.obj
 0006:00016434       ??_C@_0BC@CKNEHPAB@harpoonleftbarbup?$AA@ 005144d4     sdl_ttf:psmodule.obj
 0006:00016448       ??_C@_0BB@KNHKCCBG@hardsigncyrillic?$AA@ 005144e8     sdl_ttf:psmodule.obj
 0006:0001645c       ??_C@_0N@KCNPOGHF@hangulfiller?$AA@ 005144fc     sdl_ttf:psmodule.obj
 0006:0001646c       ??_C@_0BB@LMLCHDCK@hamzasukunarabic?$AA@ 0051450c     sdl_ttf:psmodule.obj
 0006:00016480       ??_C@_0BH@KJONEKDG@hamzalowkasratanarabic?$AA@ 00514520     sdl_ttf:psmodule.obj
 0006:00016498       ??_C@_0BE@HBDPEJAM@hamzalowkasraarabic?$AA@ 00514538     sdl_ttf:psmodule.obj
 0006:000164ac       ??_C@_0P@BLKFPBEJ@hamzalowarabic?$AA@ 0051454c     sdl_ttf:psmodule.obj
 0006:000164bc       ??_C@_0BE@LJEOKIMF@hamzafathatanarabic?$AA@ 0051455c     sdl_ttf:psmodule.obj
 0006:000164d0       ??_C@_0BB@GECMDDGA@hamzafathaarabic?$AA@ 00514570     sdl_ttf:psmodule.obj
 0006:000164e4       ??_C@_0BE@LKPJMCHG@hamzadammatanarabic?$AA@ 00514584     sdl_ttf:psmodule.obj
 0006:000164f8       ??_C@_0BB@BJDLECJC@hamzadammaarabic?$AA@ 00514598     sdl_ttf:psmodule.obj
 0006:0001650c       ??_C@_0M@DBHLEOBF@hamzaarabic?$AA@ 005145ac     sdl_ttf:psmodule.obj
 0006:00016518       ??_C@_0P@FCDGDLOJ@halantgurmukhi?$AA@ 005145b8     sdl_ttf:psmodule.obj
 0006:00016528       ??_C@_0BE@IOHICLNE@hakatakanahalfwidth?$AA@ 005145c8     sdl_ttf:psmodule.obj
 0006:0001653c       ??_C@_0L@KGFKLEN@hakatakana?$AA@ 005145dc     sdl_ttf:psmodule.obj
 0006:00016548       ??_C@_0M@LPIKIANO@haitusquare?$AA@ 005145e8     sdl_ttf:psmodule.obj
 0006:00016554       ??_C@_0BA@LCFKKAHI@hahmedialarabic?$AA@ 005145f4     sdl_ttf:psmodule.obj
 0006:00016564       ??_C@_0L@EGCNFEAG@hahiragana?$AA@ 00514604     sdl_ttf:psmodule.obj
 0006:00016570       ??_C@_0BB@CCMLBPED@hahinitialarabic?$AA@ 00514610     sdl_ttf:psmodule.obj
 0006:00016584       ??_C@_0P@FILNCFLA@hahfinalarabic?$AA@ 00514624     sdl_ttf:psmodule.obj
 0006:00016594       ??_C@_09MBNDLPMB@haharabic?$AA@ 00514634     sdl_ttf:psmodule.obj
 0006:000165a0       ??_C@_0L@HMILKNPE@hagurmukhi?$AA@ 00514640     sdl_ttf:psmodule.obj
 0006:000165ac       ??_C@_0L@JHNJNJEG@hagujarati?$AA@ 0051464c     sdl_ttf:psmodule.obj
 0006:000165b8       ??_C@_06FFLCGGEE@hadeva?$AA@ 00514658     sdl_ttf:psmodule.obj
 0006:000165c0       ??_C@_0BE@JCEHGJGI@hadescendercyrillic?$AA@ 00514660     sdl_ttf:psmodule.obj
 0006:000165d4       ??_C@_09LBJJDFNF@habengali?$AA@ 00514674     sdl_ttf:psmodule.obj
 0006:000165e0       ??_C@_0P@HPEJPBDB@haaltonearabic?$AA@ 00514680     sdl_ttf:psmodule.obj
 0006:000165f0       ??_C@_0BE@OEIMCJFO@haabkhasiancyrillic?$AA@ 00514690     sdl_ttf:psmodule.obj
 0006:00016604       ??_C@_08HCECEFFA@gysquare?$AA@ 005146a4     sdl_ttf:psmodule.obj
 0006:00016610       ??_C@_0N@OLMCGDD@guramusquare?$AA@ 005146b0     sdl_ttf:psmodule.obj
 0006:00016620       ??_C@_0L@LHNIHOBJ@gukatakana?$AA@ 005146c0     sdl_ttf:psmodule.obj
 0006:0001662c       ??_C@_0L@PLJAIBFC@guhiragana?$AA@ 005146cc     sdl_ttf:psmodule.obj
 0006:00016638       ??_C@_07LBJPODIM@gstroke?$AA@ 005146d8     sdl_ttf:psmodule.obj
 0006:00016640       ??_C@_07MJINOBPC@gscript?$AA@ 005146e0     sdl_ttf:psmodule.obj
 0006:00016648       ??_C@_0N@PNGEJIDK@greatersmall?$AA@ 005146e8     sdl_ttf:psmodule.obj
 0006:00016658       ??_C@_0BB@DBKGMIIJ@greateroverequal?$AA@ 005146f8     sdl_ttf:psmodule.obj
 0006:0001666c       ??_C@_0O@CPPLOJN@greaterorless?$AA@ 0051470c     sdl_ttf:psmodule.obj
 0006:0001667c       ??_C@_0BE@NNHNEEC@greaterorequivalent?$AA@ 0051471c     sdl_ttf:psmodule.obj
 0006:00016690       ??_C@_0BB@ILIBGKBP@greatermonospace?$AA@ 00514730     sdl_ttf:psmodule.obj
 0006:000166a4       ??_C@_0BD@OMIHOBJP@greaterequalorless?$AA@ 00514744     sdl_ttf:psmodule.obj
 0006:000166b8       ??_C@_0N@FKFIFAKE@greaterequal?$AA@ 00514758     sdl_ttf:psmodule.obj
 0006:000166c8       ??_C@_0N@DPBMDOBG@gravetonecmb?$AA@ 00514768     sdl_ttf:psmodule.obj
 0006:000166d8       ??_C@_0P@HJDKHGNB@gravemonospace?$AA@ 00514778     sdl_ttf:psmodule.obj
 0006:000166e8       ??_C@_0M@COCJIGEK@gravelowmod?$AA@ 00514788     sdl_ttf:psmodule.obj
 0006:000166f4       ??_C@_09HGALCALG@gravedeva?$AA@ 00514794     sdl_ttf:psmodule.obj
 0006:00016700       ??_C@_09JAMIADJA@gravecomb?$AA@ 005147a0     sdl_ttf:psmodule.obj
 0006:0001670c       ??_C@_08FALOMJNK@gravecmb?$AA@ 005147ac     sdl_ttf:psmodule.obj
 0006:00016718       ??_C@_0O@KFNNLEHK@gravebelowcmb?$AA@ 005147b8     sdl_ttf:psmodule.obj
 0006:00016728       ??_C@_08OAOFNDBJ@gradient?$AA@ 005147c8     sdl_ttf:psmodule.obj
 0006:00016734       ??_C@_09CDAFCDKH@gpasquare?$AA@ 005147d4     sdl_ttf:psmodule.obj
 0006:00016740       ??_C@_06PHKGCGCD@gparen?$AA@ 005147e0     sdl_ttf:psmodule.obj
 0006:00016748       ??_C@_0L@IHFEGPDI@gokatakana?$AA@ 005147e8     sdl_ttf:psmodule.obj
 0006:00016754       ??_C@_0L@MLBMJAHD@gohiragana?$AA@ 005147f4     sdl_ttf:psmodule.obj
 0006:00016760       ??_C@_0L@FHCOGHMF@gmonospace?$AA@ 00514800     sdl_ttf:psmodule.obj
 0006:0001676c       ??_C@_07MOGLNHFA@gmacron?$AA@ 0051480c     sdl_ttf:psmodule.obj
 0006:00016774       ??_C@_0BK@OCBGGMMC@glottalstopstrokereversed?$AA@ 00514814     sdl_ttf:psmodule.obj
 0006:00016790       ??_C@_0BC@IANCCOK@glottalstopstroke?$AA@ 00514830     sdl_ttf:psmodule.obj
 0006:000167a4       ??_C@_0BM@JIMGHPKI@glottalstopreversedsuperior?$AA@ 00514844     sdl_ttf:psmodule.obj
 0006:000167c0       ??_C@_0BH@BIGBBNOA@glottalstopreversedmod?$AA@ 00514860     sdl_ttf:psmodule.obj
 0006:000167d8       ??_C@_0BE@NEEACKNE@glottalstopreversed?$AA@ 00514878     sdl_ttf:psmodule.obj
 0006:000167ec       ??_C@_0P@CCKDBDOB@glottalstopmod?$AA@ 0051488c     sdl_ttf:psmodule.obj
 0006:000167fc       ??_C@_0BE@DKGINCJH@glottalstopinverted?$AA@ 0051489c     sdl_ttf:psmodule.obj
 0006:00016810       ??_C@_0M@EDPLDKOJ@glottalstop?$AA@ 005148b0     sdl_ttf:psmodule.obj
 0006:0001681c       ??_C@_0BG@HNBOPHLN@glottalinvertedstroke?$AA@ 005148bc     sdl_ttf:psmodule.obj
 0006:00016834       ??_C@_0M@PLEMAPOJ@gjecyrillic?$AA@ 005148d4     sdl_ttf:psmodule.obj
 0006:00016840       ??_C@_0M@KKBGNMNO@gimelhebrew?$AA@ 005148e0     sdl_ttf:psmodule.obj
 0006:0001684c       ??_C@_0BC@HOLCKFHC@gimeldageshhebrew?$AA@ 005148ec     sdl_ttf:psmodule.obj
 0006:00016860       ??_C@_0M@CGPIMFLG@gimeldagesh?$AA@ 00514900     sdl_ttf:psmodule.obj
 0006:0001686c       ??_C@_05IBPGHGDM@gimel?$AA@ 0051490c     sdl_ttf:psmodule.obj
 0006:00016874       ??_C@_0M@BCBCLNDH@gimarmenian?$AA@ 00514914     sdl_ttf:psmodule.obj
 0006:00016880       ??_C@_0L@IKEKBPHP@gikatakana?$AA@ 00514920     sdl_ttf:psmodule.obj
 0006:0001688c       ??_C@_0L@MGACOADE@gihiragana?$AA@ 0051492c     sdl_ttf:psmodule.obj
 0006:00016898       ??_C@_09BFMMOOLD@ghzsquare?$AA@ 00514938     sdl_ttf:psmodule.obj
 0006:000168a4       ??_C@_05FEEJIEBG@ghook?$AA@ 00514944     sdl_ttf:psmodule.obj
 0006:000168ac       ??_C@_0N@EFKGJMGK@ghhagurmukhi?$AA@ 0051494c     sdl_ttf:psmodule.obj
 0006:000168bc       ??_C@_08BFNLPKPH@ghhadeva?$AA@ 0051495c     sdl_ttf:psmodule.obj
 0006:000168c8       ??_C@_0BC@JOIFOAJE@gheupturncyrillic?$AA@ 00514968     sdl_ttf:psmodule.obj
 0006:000168dc       ??_C@_0BC@MOECGAIE@ghestrokecyrillic?$AA@ 0051497c     sdl_ttf:psmodule.obj
 0006:000168f0       ??_C@_0BG@NBMIDDHP@ghemiddlehookcyrillic?$AA@ 00514990     sdl_ttf:psmodule.obj
 0006:00016908       ??_C@_0BC@EANKHHCL@ghainmedialarabic?$AA@ 005149a8     sdl_ttf:psmodule.obj
 0006:0001691c       ??_C@_0BD@NAFLJPNK@ghaininitialarabic?$AA@ 005149bc     sdl_ttf:psmodule.obj
 0006:00016930       ??_C@_0BB@LKGKDIOD@ghainfinalarabic?$AA@ 005149d0     sdl_ttf:psmodule.obj
 0006:00016944       ??_C@_0M@GOPDGDHH@ghainarabic?$AA@ 005149e4     sdl_ttf:psmodule.obj
 0006:00016950       ??_C@_0M@DABDFPPA@ghagurmukhi?$AA@ 005149f0     sdl_ttf:psmodule.obj
 0006:0001695c       ??_C@_0M@NLEBCLEC@ghagujarati?$AA@ 005149fc     sdl_ttf:psmodule.obj
 0006:00016968       ??_C@_07HHNCMPPB@ghadeva?$AA@ 00514a08     sdl_ttf:psmodule.obj
 0006:00016970       ??_C@_0N@CBHBLECC@ghadarmenian?$AA@ 00514a10     sdl_ttf:psmodule.obj
 0006:00016980       ??_C@_0L@EAHLGPPE@ghabengali?$AA@ 00514a20     sdl_ttf:psmodule.obj
 0006:0001698c       ??_C@_08FBDEKMOM@getamark?$AA@ 00514a2c     sdl_ttf:psmodule.obj
 0006:00016998       ??_C@_0BA@EIMKBEPA@gershayimhebrew?$AA@ 00514a38     sdl_ttf:psmodule.obj
 0006:000169a8       ??_C@_0BG@GLMDLPIN@gershayimaccenthebrew?$AA@ 00514a48     sdl_ttf:psmodule.obj
 0006:000169c0       ??_C@_0BD@KCOHNCGE@gereshmuqdamhebrew?$AA@ 00514a60     sdl_ttf:psmodule.obj
 0006:000169d4       ??_C@_0N@IEJMCINA@gereshhebrew?$AA@ 00514a74     sdl_ttf:psmodule.obj
 0006:000169e4       ??_C@_0BD@HOGNNAGG@gereshaccenthebrew?$AA@ 00514a84     sdl_ttf:psmodule.obj
 0006:000169f8       ??_C@_0BD@JMPGDCHK@geometricallyequal?$AA@ 00514a98     sdl_ttf:psmodule.obj
 0006:00016a0c       ??_C@_0L@JAHGPPPB@gekatakana?$AA@ 00514aac     sdl_ttf:psmodule.obj
 0006:00016a18       ??_C@_0L@NMDOAALK@gehiragana?$AA@ 00514ab8     sdl_ttf:psmodule.obj
 0006:00016a24       ??_C@_0L@HMEALAOK@gecyrillic?$AA@ 00514ac4     sdl_ttf:psmodule.obj
 0006:00016a30       ??_C@_0L@OGIKNCGM@gdotaccent?$AA@ 00514ad0     sdl_ttf:psmodule.obj
 0006:00016a3c       ??_C@_04KOFDPDAE@gdot?$AA@ 00514adc     sdl_ttf:psmodule.obj
 0006:00016a44       ??_C@_0N@PCEOJKLK@gcommaaccent?$AA@ 00514ae4     sdl_ttf:psmodule.obj
 0006:00016a54       ??_C@_0M@HIFHPMPE@gcircumflex?$AA@ 00514af4     sdl_ttf:psmodule.obj
 0006:00016a60       ??_C@_07CGJAMHDK@gcircle?$AA@ 00514b00     sdl_ttf:psmodule.obj
 0006:00016a68       ??_C@_08ONICLLEP@gcedilla?$AA@ 00514b08     sdl_ttf:psmodule.obj
 0006:00016a74       ??_C@_06HPHDNDMA@gcaron?$AA@ 00514b14     sdl_ttf:psmodule.obj
 0006:00016a7c       ??_C@_06KOKCMDCF@gbreve?$AA@ 00514b1c     sdl_ttf:psmodule.obj
 0006:00016a84       ??_C@_09ONACGKEC@gbopomofo?$AA@ 00514b24     sdl_ttf:psmodule.obj
 0006:00016a90       ??_C@_0N@LKEBIEMJ@gangiacoptic?$AA@ 00514b30     sdl_ttf:psmodule.obj
 0006:00016aa0       ??_C@_0O@FNIMLPE@gammasuperior?$AA@ 00514b40     sdl_ttf:psmodule.obj
 0006:00016ab0       ??_C@_0BA@NHLEAFDM@gammalatinsmall?$AA@ 00514b50     sdl_ttf:psmodule.obj
 0006:00016ac0       ??_C@_05KDLBCAI@gamma?$AA@ 00514b60     sdl_ttf:psmodule.obj
 0006:00016ac8       ??_C@_0L@JJJNFPIL@gakatakana?$AA@ 00514b68     sdl_ttf:psmodule.obj
 0006:00016ad4       ??_C@_0L@NFNFKAMA@gahiragana?$AA@ 00514b74     sdl_ttf:psmodule.obj
 0006:00016ae0       ??_C@_0L@OPHDFJDC@gagurmukhi?$AA@ 00514b80     sdl_ttf:psmodule.obj
 0006:00016aec       ??_C@_0L@ECBCNIA@gagujarati?$AA@ 00514b8c     sdl_ttf:psmodule.obj
 0006:00016af8       ??_C@_0BA@PHCLJCMC@gafmedialarabic?$AA@ 00514b98     sdl_ttf:psmodule.obj
 0006:00016b08       ??_C@_0BB@JDKDEOD@gafinitialarabic?$AA@ 00514ba8     sdl_ttf:psmodule.obj
 0006:00016b1c       ??_C@_0P@PGNDOKJN@gaffinalarabic?$AA@ 00514bbc     sdl_ttf:psmodule.obj
 0006:00016b2c       ??_C@_09CFFCPGHO@gafarabic?$AA@ 00514bcc     sdl_ttf:psmodule.obj
 0006:00016b38       ??_C@_06KDPKBGKN@gadeva?$AA@ 00514bd8     sdl_ttf:psmodule.obj
 0006:00016b40       ??_C@_06CGCLIMEI@gacute?$AA@ 00514be0     sdl_ttf:psmodule.obj
 0006:00016b48       ??_C@_09EAJCGOFI@gabengali?$AA@ 00514be8     sdl_ttf:psmodule.obj
 0006:00016b54       ??_C@_05JMIBEPJM@franc?$AA@ 00514bf4     sdl_ttf:psmodule.obj
 0006:00016b5c       ??_C@_06FBNBCNJH@fparen?$AA@ 00514bfc     sdl_ttf:psmodule.obj
 0006:00016b64       ??_C@_0BC@PIFJEEAA@fourthtonechinese?$AA@ 00514c04     sdl_ttf:psmodule.obj
 0006:00016b78       ??_C@_08MIBEBKDE@fourthai?$AA@ 00514c18     sdl_ttf:psmodule.obj
 0006:00016b84       ??_C@_0P@GENMHJFH@fourteenperiod?$AA@ 00514c24     sdl_ttf:psmodule.obj
 0006:00016b94       ??_C@_0O@BIIPFMLN@fourteenparen?$AA@ 00514c34     sdl_ttf:psmodule.obj
 0006:00016ba4       ??_C@_0P@DBMIFAAD@fourteencircle?$AA@ 00514c44     sdl_ttf:psmodule.obj
 0006:00016bb4       ??_C@_09PKLOHHIL@fourroman?$AA@ 00514c54     sdl_ttf:psmodule.obj
 0006:00016bc0       ??_C@_0M@DHFPKMLJ@fourpersian?$AA@ 00514c60     sdl_ttf:psmodule.obj
 0006:00016bcc       ??_C@_0L@GLMDDKLI@fourperiod?$AA@ 00514c6c     sdl_ttf:psmodule.obj
 0006:00016bd8       ??_C@_09HDFIHPE@fourparen?$AA@ 00514c78     sdl_ttf:psmodule.obj
 0006:00016be4       ??_C@_0BF@COOFBMJE@fournumeratorbengali?$AA@ 00514c84     sdl_ttf:psmodule.obj
 0006:00016bfc       ??_C@_0O@NDMGPKHH@fourmonospace?$AA@ 00514c9c     sdl_ttf:psmodule.obj
 0006:00016c0c       ??_C@_0BF@DDNIGDBE@fourideographicparen?$AA@ 00514cac     sdl_ttf:psmodule.obj
 0006:00016c24       ??_C@_0N@BACDEJHM@fourhangzhou?$AA@ 00514cc4     sdl_ttf:psmodule.obj
 0006:00016c34       ??_C@_0P@JGNGNNLA@fourhackarabic?$AA@ 00514cd4     sdl_ttf:psmodule.obj
 0006:00016c44       ??_C@_0N@EFFDBPEH@fourgurmukhi?$AA@ 00514ce4     sdl_ttf:psmodule.obj
 0006:00016c54       ??_C@_0N@KOABGLPF@fourgujarati?$AA@ 00514cf4     sdl_ttf:psmodule.obj
 0006:00016c64       ??_C@_08ILCOGKJG@fourdeva?$AA@ 00514d04     sdl_ttf:psmodule.obj
 0006:00016c70       ??_C@_0BL@DGIMOHB@fourcircleinversesansserif?$AA@ 00514d10     sdl_ttf:psmodule.obj
 0006:00016c8c       ??_C@_0L@DONHBDOM@fourcircle?$AA@ 00514d2c     sdl_ttf:psmodule.obj
 0006:00016c98       ??_C@_0M@GKJIEEDG@fourbengali?$AA@ 00514d38     sdl_ttf:psmodule.obj
 0006:00016ca4       ??_C@_0L@PDEBPMH@fourarabic?$AA@ 00514d44     sdl_ttf:psmodule.obj
 0006:00016cb0       ??_C@_06PLFKNBPH@forall?$AA@ 00514d50     sdl_ttf:psmodule.obj
 0006:00016cb8       ??_C@_0M@CMHODOCD@fongmanthai?$AA@ 00514d58     sdl_ttf:psmodule.obj
 0006:00016cc4       ??_C@_08BLGAOMFC@fofathai?$AA@ 00514d64     sdl_ttf:psmodule.obj
 0006:00016cd0       ??_C@_09EFAHMFJG@fofanthai?$AA@ 00514d70     sdl_ttf:psmodule.obj
 0006:00016cdc       ??_C@_08JNMIGOMC@fmsquare?$AA@ 00514d7c     sdl_ttf:psmodule.obj
 0006:00016ce8       ??_C@_0L@JGKALIAF@fmonospace?$AA@ 00514d88     sdl_ttf:psmodule.obj
 0006:00016cf4       ??_C@_08CBEADLAN@fivethai?$AA@ 00514d94     sdl_ttf:psmodule.obj
 0006:00016d00       ??_C@_09KFFCKLKC@fiveroman?$AA@ 00514da0     sdl_ttf:psmodule.obj
 0006:00016d0c       ??_C@_0M@PMHMPCEB@fivepersian?$AA@ 00514dac     sdl_ttf:psmodule.obj
 0006:00016d18       ??_C@_0L@CJCOEOAI@fiveperiod?$AA@ 00514db8     sdl_ttf:psmodule.obj
 0006:00016d24       ??_C@_09FINJFLNN@fiveparen?$AA@ 00514dc4     sdl_ttf:psmodule.obj
 0006:00016d30       ??_C@_0O@IDHACGBC@fivemonospace?$AA@ 00514dd0     sdl_ttf:psmodule.obj
 0006:00016d40       ??_C@_0BF@NLCACOBE@fiveideographicparen?$AA@ 00514de0     sdl_ttf:psmodule.obj
 0006:00016d58       ??_C@_0N@KDIOBAAM@fivehangzhou?$AA@ 00514df8     sdl_ttf:psmodule.obj
 0006:00016d68       ??_C@_0P@KLFOPOLL@fivehackarabic?$AA@ 00514e08     sdl_ttf:psmodule.obj
 0006:00016d78       ??_C@_0N@PGPOEGDH@fivegurmukhi?$AA@ 00514e18     sdl_ttf:psmodule.obj
 0006:00016d88       ??_C@_0N@BNKMDCIF@fivegujarati?$AA@ 00514e28     sdl_ttf:psmodule.obj
 0006:00016d98       ??_C@_08GCHKELKP@fivedeva?$AA@ 00514e38     sdl_ttf:psmodule.obj
 0006:00016da4       ??_C@_0BL@EHCIONNJ@fivecircleinversesansserif?$AA@ 00514e44     sdl_ttf:psmodule.obj
 0006:00016dc0       ??_C@_0L@HMDKGHFM@fivecircle?$AA@ 00514e60     sdl_ttf:psmodule.obj
 0006:00016dcc       ??_C@_0M@KBLLBKMO@fivebengali?$AA@ 00514e6c     sdl_ttf:psmodule.obj
 0006:00016dd8       ??_C@_0L@ENNJGLHH@fivearabic?$AA@ 00514e78     sdl_ttf:psmodule.obj
 0006:00016de4       ??_C@_0N@DNKBBGCO@fitacyrillic?$AA@ 00514e84     sdl_ttf:psmodule.obj
 0006:00016df4       ??_C@_07PJNBAIHD@fisheye?$AA@ 00514e94     sdl_ttf:psmodule.obj
 0006:00016dfc       ??_C@_0BB@NENJNCEP@firsttonechinese?$AA@ 00514e9c     sdl_ttf:psmodule.obj
 0006:00016e10       ??_C@_0BB@HAGJIBNF@finaltsadihebrew?$AA@ 00514eb0     sdl_ttf:psmodule.obj
 0006:00016e24       ??_C@_0L@JDKHBHOM@finaltsadi?$AA@ 00514ec4     sdl_ttf:psmodule.obj
 0006:00016e30       ??_C@_0O@MMLBNLKA@finalpehebrew?$AA@ 00514ed0     sdl_ttf:psmodule.obj
 0006:00016e40       ??_C@_07DJFAAPEC@finalpe?$AA@ 00514ee0     sdl_ttf:psmodule.obj
 0006:00016e48       ??_C@_0P@CLPCNJGN@finalnunhebrew?$AA@ 00514ee8     sdl_ttf:psmodule.obj
 0006:00016e58       ??_C@_08MPHFLFEG@finalnun?$AA@ 00514ef8     sdl_ttf:psmodule.obj
 0006:00016e64       ??_C@_0P@OCIKCHPM@finalmemhebrew?$AA@ 00514f04     sdl_ttf:psmodule.obj
 0006:00016e74       ??_C@_08OKMLOKBL@finalmem?$AA@ 00514f14     sdl_ttf:psmodule.obj
 0006:00016e80       ??_C@_0BE@KEDJFJNN@finalkafshevahebrew?$AA@ 00514f20     sdl_ttf:psmodule.obj
 0006:00016e94       ??_C@_0O@GGFIEMFE@finalkafsheva?$AA@ 00514f34     sdl_ttf:psmodule.obj
 0006:00016ea4       ??_C@_0BF@BDCEHIIO@finalkafqamatshebrew?$AA@ 00514f44     sdl_ttf:psmodule.obj
 0006:00016ebc       ??_C@_0P@DPLBOCAJ@finalkafqamats?$AA@ 00514f5c     sdl_ttf:psmodule.obj
 0006:00016ecc       ??_C@_0P@OPBCBKOB@finalkafhebrew?$AA@ 00514f6c     sdl_ttf:psmodule.obj
 0006:00016edc       ??_C@_0BF@BEPINFAN@finalkafdageshhebrew?$AA@ 00514f7c     sdl_ttf:psmodule.obj
 0006:00016ef4       ??_C@_0P@GDPMADIJ@finalkafdagesh?$AA@ 00514f94     sdl_ttf:psmodule.obj
 0006:00016f04       ??_C@_08CLFNMENA@finalkaf?$AA@ 00514fa4     sdl_ttf:psmodule.obj
 0006:00016f10       ??_C@_0L@PIDLKJIN@filledrect?$AA@ 00514fb0     sdl_ttf:psmodule.obj
 0006:00016f1c       ??_C@_09PKNHEICL@filledbox?$AA@ 00514fbc     sdl_ttf:psmodule.obj
 0006:00016f28       ??_C@_0O@INIFKEIE@fifteenperiod?$AA@ 00514fc8     sdl_ttf:psmodule.obj
 0006:00016f38       ??_C@_0N@CCPHLKLL@fifteenparen?$AA@ 00514fd8     sdl_ttf:psmodule.obj
 0006:00016f48       ??_C@_0O@NIJBINNA@fifteencircle?$AA@ 00514fe8     sdl_ttf:psmodule.obj
 0006:00016f58       ??_C@_06GJLDEJIL@female?$AA@ 00514ff8     sdl_ttf:psmodule.obj
 0006:00016f60       ??_C@_09EOHJGIPN@feicoptic?$AA@ 00515000     sdl_ttf:psmodule.obj
 0006:00016f6c       ??_C@_0BA@BIKEDDLA@fehmedialarabic?$AA@ 0051500c     sdl_ttf:psmodule.obj
 0006:00016f7c       ??_C@_0BB@LHNOKLFC@fehinitialarabic?$AA@ 0051501c     sdl_ttf:psmodule.obj
 0006:00016f90       ??_C@_0P@KMGCLCNO@fehfinalarabic?$AA@ 00515030     sdl_ttf:psmodule.obj
 0006:00016fa0       ??_C@_0M@GFIEKINL@feharmenian?$AA@ 00515040     sdl_ttf:psmodule.obj
 0006:00016fac       ??_C@_09ICPGNOHO@feharabic?$AA@ 0051504c     sdl_ttf:psmodule.obj
 0006:00016fb8       ??_C@_0L@CHAEANKM@fdotaccent?$AA@ 00515058     sdl_ttf:psmodule.obj
 0006:00016fc4       ??_C@_07OKDKMHKE@fcircle?$AA@ 00515064     sdl_ttf:psmodule.obj
 0006:00016fcc       ??_C@_09CMAABHM@fbopomofo?$AA@ 0051506c     sdl_ttf:psmodule.obj
 0006:00016fd8       ??_C@_0P@LKCIAGOD@fathatanarabic?$AA@ 00515078     sdl_ttf:psmodule.obj
 0006:00016fe8       ??_C@_0P@CFGHDGGN@fathalowarabic?$AA@ 00515088     sdl_ttf:psmodule.obj
 0006:00016ff8       ??_C@_0M@IBMHFNNO@fathaarabic?$AA@ 00515098     sdl_ttf:psmodule.obj
 0006:00017004       ??_C@_0L@FJGNLCPP@fahrenheit?$AA@ 005150a4     sdl_ttf:psmodule.obj
 0006:00017010       ??_C@_0L@COPNIGPC@fagurmukhi?$AA@ 005150b0     sdl_ttf:psmodule.obj
 0006:0001701c       ??_C@_06FINBNBJ@fadeva?$AA@ 005150bc     sdl_ttf:psmodule.obj
 0006:00017024       ??_C@_07KPOPIOHG@ezhtail?$AA@ 005150c4     sdl_ttf:psmodule.obj
 0006:0001702c       ??_C@_0M@MOKMEJLK@ezhreversed?$AA@ 005150cc     sdl_ttf:psmodule.obj
 0006:00017038       ??_C@_07LCCHEJLN@ezhcurl?$AA@ 005150d8     sdl_ttf:psmodule.obj
 0006:00017040       ??_C@_08NJDKCBEK@ezhcaron?$AA@ 005150e0     sdl_ttf:psmodule.obj
 0006:0001704c       ??_C@_03CGABCLPL@ezh?$AA@  005150ec     sdl_ttf:psmodule.obj
 0006:00017050       ??_C@_0M@JNKNKIKM@existential?$AA@ 005150f0     sdl_ttf:psmodule.obj
 0006:0001705c       ??_C@_0BA@GPHCGKHC@exclammonospace?$AA@ 005150fc     sdl_ttf:psmodule.obj
 0006:0001706c       ??_C@_09OGOHIMAL@exclamdbl?$AA@ 0051510c     sdl_ttf:psmodule.obj
 0006:00017078       ??_C@_0P@GOPDNNHP@exclamarmenian?$AA@ 00515118     sdl_ttf:psmodule.obj
 0006:00017088       ??_C@_0BD@CEBLLNMN@evowelsigngujarati?$AA@ 00515128     sdl_ttf:psmodule.obj
 0006:0001709c       ??_C@_0P@OOIEIGGO@evowelsigndeva?$AA@ 0051513c     sdl_ttf:psmodule.obj
 0006:000170ac       ??_C@_0BC@BFIHJACN@evowelsignbengali?$AA@ 0051514c     sdl_ttf:psmodule.obj
 0006:000170c0       ??_C@_08KGCAEGHO@eukorean?$AA@ 00515160     sdl_ttf:psmodule.obj
 0006:000170cc       ??_C@_07FGHIHCPE@eturned?$AA@ 0051516c     sdl_ttf:psmodule.obj
 0006:000170d4       ??_C@_0BC@JOPEKINA@etnahtalefthebrew?$AA@ 00515174     sdl_ttf:psmodule.obj
 0006:000170e8       ??_C@_0O@JDLGMHFD@etnahtahebrew?$AA@ 00515188     sdl_ttf:psmodule.obj
 0006:000170f8       ??_C@_0BH@FLJIEAHD@etnahtafoukhlefthebrew?$AA@ 00515198     sdl_ttf:psmodule.obj
 0006:00017110       ??_C@_0BD@JPBFBACB@etnahtafoukhhebrew?$AA@ 005151b0     sdl_ttf:psmodule.obj
 0006:00017124       ??_C@_0M@CGEBOOAL@etildebelow?$AA@ 005151c4     sdl_ttf:psmodule.obj
 0006:00017130       ??_C@_06JJCIKNIN@etilde?$AA@ 005151d0     sdl_ttf:psmodule.obj
 0006:00017138       ??_C@_08BNGIHONC@etatonos?$AA@ 005151d8     sdl_ttf:psmodule.obj
 0006:00017144       ??_C@_0L@IPCLHHNG@etarmenian?$AA@ 005151e4     sdl_ttf:psmodule.obj
 0006:00017150       ??_C@_03PNFNLNLI@eta?$AA@  005151f0     sdl_ttf:psmodule.obj
 0006:00017154       ??_C@_09GPEJODCL@estimated?$AA@ 005151f4     sdl_ttf:psmodule.obj
 0006:00017160       ??_C@_0BI@FHNDNPAC@esmallkatakanahalfwidth?$AA@ 00515200     sdl_ttf:psmodule.obj
 0006:00017178       ??_C@_0P@OOIJBGMF@esmallkatakana?$AA@ 00515218     sdl_ttf:psmodule.obj
 0006:00017188       ??_C@_0P@KCMBOJIO@esmallhiragana?$AA@ 00515228     sdl_ttf:psmodule.obj
 0006:00017198       ??_C@_0BB@MNPFLHOP@eshsquatreversed?$AA@ 00515238     sdl_ttf:psmodule.obj
 0006:000171ac       ??_C@_0BA@FGKLJLHO@eshreversedloop?$AA@ 0051524c     sdl_ttf:psmodule.obj
 0006:000171bc       ??_C@_0BE@JDGMJMD@eshortvowelsigndeva?$AA@ 0051525c     sdl_ttf:psmodule.obj
 0006:000171d0       ??_C@_0L@OBGBMNDE@eshortdeva?$AA@ 00515270     sdl_ttf:psmodule.obj
 0006:000171dc       ??_C@_07CHLPAMGO@eshcurl?$AA@ 0051527c     sdl_ttf:psmodule.obj
 0006:000171e4       ??_C@_03CJNABAHE@esh?$AA@  00515284     sdl_ttf:psmodule.obj
 0006:000171e8       ??_C@_0BE@EDOAFCDO@esdescendercyrillic?$AA@ 00515288     sdl_ttf:psmodule.obj
 0006:000171fc       ??_C@_0L@OJMPIIE@escyrillic?$AA@ 0051529c     sdl_ttf:psmodule.obj
 0006:00017208       ??_C@_0BC@JCHHMOPH@ereversedcyrillic?$AA@ 005152a8     sdl_ttf:psmodule.obj
 0006:0001721c       ??_C@_09PHBHNHM@ereversed?$AA@ 005152bc     sdl_ttf:psmodule.obj
 0006:00017228       ??_C@_0L@OBFOJDLK@ercyrillic?$AA@ 005152c8     sdl_ttf:psmodule.obj
 0006:00017234       ??_C@_0L@IFALMDAO@erbopomofo?$AA@ 005152d4     sdl_ttf:psmodule.obj
 0006:00017240       ??_C@_0M@LCPFEGJ@equivalence?$AA@ 005152e0     sdl_ttf:psmodule.obj
 0006:0001724c       ??_C@_0O@KFEBCLPG@equalsuperior?$AA@ 005152ec     sdl_ttf:psmodule.obj
 0006:0001725c       ??_C@_0L@KBBINAPL@equalsmall?$AA@ 005152fc     sdl_ttf:psmodule.obj
 0006:00017268       ??_C@_0P@NKKOBECB@equalmonospace?$AA@ 00515308     sdl_ttf:psmodule.obj
 0006:00017278       ??_C@_0N@PCILDEMA@epsilontonos?$AA@ 00515318     sdl_ttf:psmodule.obj
 0006:00017288       ??_C@_07DOCPLGLO@epsilon?$AA@ 00515328     sdl_ttf:psmodule.obj
 0006:00017290       ??_C@_06GADJDHAK@eparen?$AA@ 00515330     sdl_ttf:psmodule.obj
 0006:00017298       ??_C@_0BC@DFMPFMND@eopenreversedhook?$AA@ 00515338     sdl_ttf:psmodule.obj
 0006:000172ac       ??_C@_0BE@JGHLEAIA@eopenreversedclosed?$AA@ 0051534c     sdl_ttf:psmodule.obj
 0006:000172c0       ??_C@_0O@OBJEMCJL@eopenreversed?$AA@ 00515360     sdl_ttf:psmodule.obj
 0006:000172d0       ??_C@_0M@DKCGGCFD@eopenclosed?$AA@ 00515370     sdl_ttf:psmodule.obj
 0006:000172dc       ??_C@_05NDDLMPFH@eopen?$AA@ 0051537c     sdl_ttf:psmodule.obj
 0006:000172e4       ??_C@_08ELFLGLJN@eokorean?$AA@ 00515384     sdl_ttf:psmodule.obj
 0006:000172f0       ??_C@_07GCFHFGKM@eogonek?$AA@ 00515390     sdl_ttf:psmodule.obj
 0006:000172f8       ??_C@_07HMLKFMKM@enspace?$AA@ 00515398     sdl_ttf:psmodule.obj
 0006:00017300       ??_C@_0P@FMNHAIJM@enhookcyrillic?$AA@ 005153a0     sdl_ttf:psmodule.obj
 0006:00017310       ??_C@_0O@PFCFDOCK@enghecyrillic?$AA@ 005153b0     sdl_ttf:psmodule.obj
 0006:00017320       ??_C@_0M@MHAOGCHN@engbopomofo?$AA@ 005153c0     sdl_ttf:psmodule.obj
 0006:0001732c       ??_C@_03LKLGDMJI@eng?$AA@  005153cc     sdl_ttf:psmodule.obj
 0006:00017330       ??_C@_0BE@GHIJPJAL@endescendercyrillic?$AA@ 005153d0     sdl_ttf:psmodule.obj
 0006:00017344       ??_C@_0P@LIEGPDI@endashvertical?$AA@ 005153e4     sdl_ttf:psmodule.obj
 0006:00017354       ??_C@_0L@NMMMPCNM@encyrillic?$AA@ 005153f4     sdl_ttf:psmodule.obj
 0006:00017360       ??_C@_0L@LIJJKCGI@enbopomofo?$AA@ 00515400     sdl_ttf:psmodule.obj
 0006:0001736c       ??_C@_08LADADNNJ@emptyset?$AA@ 0051540c     sdl_ttf:psmodule.obj
 0006:00017378       ??_C@_0BF@FBEMBDLJ@emphasismarkarmenian?$AA@ 00515418     sdl_ttf:psmodule.obj
 0006:00017390       ??_C@_0L@PECNOAE@emonospace?$AA@ 00515430     sdl_ttf:psmodule.obj
 0006:0001739c       ??_C@_0P@HHOFEKOD@emdashvertical?$AA@ 0051543c     sdl_ttf:psmodule.obj
 0006:000173ac       ??_C@_0L@DHPLEJNP@emcyrillic?$AA@ 0051544c     sdl_ttf:psmodule.obj
 0006:000173b8       ??_C@_0N@KPLILCIK@emacrongrave?$AA@ 00515458     sdl_ttf:psmodule.obj
 0006:000173c8       ??_C@_0N@PIJOPLAD@emacronacute?$AA@ 00515468     sdl_ttf:psmodule.obj
 0006:000173d8       ??_C@_07IMEONACN@emacron?$AA@ 00515478     sdl_ttf:psmodule.obj
 0006:000173e0       ??_C@_0BB@BIKFJMHP@ellipsisvertical?$AA@ 00515480     sdl_ttf:psmodule.obj
 0006:000173f4       ??_C@_0M@LPEPEOMN@elevenroman?$AA@ 00515494     sdl_ttf:psmodule.obj
 0006:00017400       ??_C@_0N@PEDJCPCE@elevenperiod?$AA@ 005154a0     sdl_ttf:psmodule.obj
 0006:00017410       ??_C@_0M@ECMELOLC@elevenparen?$AA@ 005154b0     sdl_ttf:psmodule.obj
 0006:0001741c       ??_C@_0N@KBCNAGHA@elevencircle?$AA@ 005154bc     sdl_ttf:psmodule.obj
 0006:0001742c       ??_C@_07HCLJNICE@element?$AA@ 005154cc     sdl_ttf:psmodule.obj
 0006:00017434       ??_C@_0L@NIDJCCOB@elcyrillic?$AA@ 005154d4     sdl_ttf:psmodule.obj
 0006:00017440       ??_C@_07EPEEHIHJ@ekorean?$AA@ 005154e0     sdl_ttf:psmodule.obj
 0006:00017448       ??_C@_0BA@OECNMFJI@ekonkargurmukhi?$AA@ 005154e8     sdl_ttf:psmodule.obj
 0006:00017458       ??_C@_0BD@BCFCHL@ekatakanahalfwidth?$AA@ 005154f8     sdl_ttf:psmodule.obj
 0006:0001746c       ??_C@_09GBJEKFNA@ekatakana?$AA@ 0051550c     sdl_ttf:psmodule.obj
 0006:00017478       ??_C@_0BC@NEPNBANB@eiotifiedcyrillic?$AA@ 00515518     sdl_ttf:psmodule.obj
 0006:0001748c       ??_C@_0P@FPNOCPAD@einvertedbreve?$AA@ 0051552c     sdl_ttf:psmodule.obj
 0006:0001749c       ??_C@_09CGFFGDKP@eightthai?$AA@ 0051553c     sdl_ttf:psmodule.obj
 0006:000174a8       ??_C@_0L@JNINHMDO@eightroman?$AA@ 00515548     sdl_ttf:psmodule.obj
 0006:000174b4       ??_C@_0N@DJDPEIPP@eightpersian?$AA@ 00515554     sdl_ttf:psmodule.obj
 0006:000174c4       ??_C@_0M@NAKPEOLA@eightperiod?$AA@ 00515564     sdl_ttf:psmodule.obj
 0006:000174d0       ??_C@_0L@GAAGIMEB@eightparen?$AA@ 00515570     sdl_ttf:psmodule.obj
 0006:000174dc       ??_C@_0P@NCICDKPF@eightmonospace?$AA@ 0051557c     sdl_ttf:psmodule.obj
 0006:000174ec       ??_C@_0BG@CIHGBPJH@eightideographicparen?$AA@ 0051558c     sdl_ttf:psmodule.obj
 0006:00017504       ??_C@_0BB@BGEACKDA@eighthnotebeamed?$AA@ 005155a4     sdl_ttf:psmodule.obj
 0006:00017518       ??_C@_0O@IPJCMNDN@eighthangzhou?$AA@ 005155b8     sdl_ttf:psmodule.obj
 0006:00017528       ??_C@_0BA@JFGBHLHM@eighthackarabic?$AA@ 005155c8     sdl_ttf:psmodule.obj
 0006:00017538       ??_C@_0O@NKOCJLAG@eightgurmukhi?$AA@ 005155d8     sdl_ttf:psmodule.obj
 0006:00017548       ??_C@_0O@DBLAOPLE@eightgujarati?$AA@ 005155e8     sdl_ttf:psmodule.obj
 0006:00017558       ??_C@_0P@LPBHEOJE@eighteenperiod?$AA@ 005155f8     sdl_ttf:psmodule.obj
 0006:00017568       ??_C@_0O@GIHBEJJH@eighteenparen?$AA@ 00515608     sdl_ttf:psmodule.obj
 0006:00017578       ??_C@_0P@OKADGHMA@eighteencircle?$AA@ 00515618     sdl_ttf:psmodule.obj
 0006:00017588       ??_C@_09GFGPBDAN@eightdeva?$AA@ 00515628     sdl_ttf:psmodule.obj
 0006:00017594       ??_C@_0BM@BKKJIHGO@eightcircleinversesansserif?$AA@ 00515634     sdl_ttf:psmodule.obj
 0006:000175b0       ??_C@_0M@IFLLGHOE@eightcircle?$AA@ 00515650     sdl_ttf:psmodule.obj
 0006:000175bc       ??_C@_0N@GEPIKAHA@eightbengali?$AA@ 0051565c     sdl_ttf:psmodule.obj
 0006:000175cc       ??_C@_0M@LEFIGLMP@eightarabic?$AA@ 0051566c     sdl_ttf:psmodule.obj
 0006:000175d8       ??_C@_0L@FKEFLJBB@eibopomofo?$AA@ 00515678     sdl_ttf:psmodule.obj
 0006:000175e4       ??_C@_0L@HPICEABH@ehookabove?$AA@ 00515684     sdl_ttf:psmodule.obj
 0006:000175f0       ??_C@_09CNNMFKJL@ehiragana?$AA@ 00515690     sdl_ttf:psmodule.obj
 0006:000175fc       ??_C@_0L@LFIHNCCP@ehbopomofo?$AA@ 0051569c     sdl_ttf:psmodule.obj
 0006:00017608       ??_C@_0L@LCLJBGLA@eharmenian?$AA@ 005156a8     sdl_ttf:psmodule.obj
 0006:00017614       ??_C@_09PMCINHNL@egujarati?$AA@ 005156b4     sdl_ttf:psmodule.obj
 0006:00017620       ??_C@_0L@MPBLLCCI@efcyrillic?$AA@ 005156c0     sdl_ttf:psmodule.obj
 0006:0001762c       ??_C@_0BA@EKEBCGNJ@eematragurmukhi?$AA@ 005156cc     sdl_ttf:psmodule.obj
 0006:0001763c       ??_C@_0L@LOPEEAIJ@eegurmukhi?$AA@ 005156dc     sdl_ttf:psmodule.obj
 0006:00017648       ??_C@_09HNDDLDMB@edotbelow?$AA@ 005156e8     sdl_ttf:psmodule.obj
 0006:00017654       ??_C@_0L@LOOGGLKN@edotaccent?$AA@ 005156f4     sdl_ttf:psmodule.obj
 0006:00017660       ??_C@_04NEJDKAGE@edot?$AA@ 00515700     sdl_ttf:psmodule.obj
 0006:00017668       ??_C@_05FKNEFIAN@edeva?$AA@ 00515708     sdl_ttf:psmodule.obj
 0006:00017670       ??_C@_09KJGDJOGJ@edblgrave?$AA@ 00515710     sdl_ttf:psmodule.obj
 0006:0001767c       ??_C@_09INKCOKML@ecyrillic?$AA@ 0051571c     sdl_ttf:psmodule.obj
 0006:00017688       ??_C@_0BB@JBIOKMA@ecircumflextilde?$AA@ 00515728     sdl_ttf:psmodule.obj
 0006:0001769c       ??_C@_0BF@EMGAPOAF@ecircumflexhookabove?$AA@ 0051573c     sdl_ttf:psmodule.obj
 0006:000176b4       ??_C@_0BB@HGKCJDKF@ecircumflexgrave?$AA@ 00515754     sdl_ttf:psmodule.obj
 0006:000176c8       ??_C@_0BE@JMJAEEKM@ecircumflexdotbelow?$AA@ 00515768     sdl_ttf:psmodule.obj
 0006:000176dc       ??_C@_0BB@GNMGHJHF@ecircumflexbelow?$AA@ 0051577c     sdl_ttf:psmodule.obj
 0006:000176f0       ??_C@_0BB@CBIENKCM@ecircumflexacute?$AA@ 00515790     sdl_ttf:psmodule.obj
 0006:00017704       ??_C@_07GELFMAEH@ecircle?$AA@ 005157a4     sdl_ttf:psmodule.obj
 0006:0001770c       ??_C@_0BA@OJEECPKF@echyiwnarmenian?$AA@ 005157ac     sdl_ttf:psmodule.obj
 0006:0001771c       ??_C@_0M@PKKPLAGI@echarmenian?$AA@ 005157bc     sdl_ttf:psmodule.obj
 0006:00017728       ??_C@_0O@HKPPBBCO@ecedillabreve?$AA@ 005157c8     sdl_ttf:psmodule.obj
 0006:00017738       ??_C@_06OIOMMCOJ@ecaron?$AA@ 005157d8     sdl_ttf:psmodule.obj
 0006:00017740       ??_C@_0BJ@EKHGKGCG@ecandravowelsigngujarati?$AA@ 005157e0     sdl_ttf:psmodule.obj
 0006:0001775c       ??_C@_0BF@IGCLFBLM@ecandravowelsigndeva?$AA@ 005157fc     sdl_ttf:psmodule.obj
 0006:00017774       ??_C@_0BA@ICHECPHN@ecandragujarati?$AA@ 00515814     sdl_ttf:psmodule.obj
 0006:00017784       ??_C@_0M@PHEHMMMN@ecandradeva?$AA@ 00515824     sdl_ttf:psmodule.obj
 0006:00017790       ??_C@_06DJDNNCAM@ebreve?$AA@ 00515830     sdl_ttf:psmodule.obj
 0006:00017798       ??_C@_09OJPHLKHP@ebopomofo?$AA@ 00515838     sdl_ttf:psmodule.obj
 0006:000177a4       ??_C@_08CLMGFMIF@ebengali?$AA@ 00515844     sdl_ttf:psmodule.obj
 0006:000177b0       ??_C@_05INLMNHHM@earth?$AA@ 00515850     sdl_ttf:psmodule.obj
 0006:000177b8       ??_C@_0N@ILHMGKBP@dzhecyrillic?$AA@ 00515858     sdl_ttf:psmodule.obj
 0006:000177c8       ??_C@_0M@CCCEBJNC@dzecyrillic?$AA@ 00515868     sdl_ttf:psmodule.obj
 0006:000177d4       ??_C@_0BF@BIONMLIB@dzeabkhasiancyrillic?$AA@ 00515874     sdl_ttf:psmodule.obj
 0006:000177ec       ??_C@_06KLJNKDHG@dzcurl?$AA@ 0051588c     sdl_ttf:psmodule.obj
 0006:000177f4       ??_C@_07NFJFIAJI@dzcaron?$AA@ 00515894     sdl_ttf:psmodule.obj
 0006:000177fc       ??_C@_08ECMKOGED@dzaltone?$AA@ 0051589c     sdl_ttf:psmodule.obj
 0006:00017808       ??_C@_02JKLANEGN@dz?$AA@   005158a8     sdl_ttf:psmodule.obj
 0006:0001780c       ??_C@_0L@CODKBIBI@dukatakana?$AA@ 005158ac     sdl_ttf:psmodule.obj
 0006:00017818       ??_C@_0L@GCHCOHFD@duhiragana?$AA@ 005158b8     sdl_ttf:psmodule.obj
 0006:00017824       ??_C@_07BDBIKCEE@dtopbar?$AA@ 005158c4     sdl_ttf:psmodule.obj
 0006:0001782c       ??_C@_05NMNOBBHN@dtail?$AA@ 005158cc     sdl_ttf:psmodule.obj
 0006:00017834       ??_C@_06MGEODMLO@dparen?$AA@ 005158d4     sdl_ttf:psmodule.obj
 0006:0001783c       ??_C@_0M@CGJCGDN@downtackmod?$AA@ 005158dc     sdl_ttf:psmodule.obj
 0006:00017848       ??_C@_0BB@FIEJALGN@downtackbelowcmb?$AA@ 005158e8     sdl_ttf:psmodule.obj
 0006:0001785c       ??_C@_0BF@BHEBIFDD@doubleyodpatahhebrew?$AA@ 005158fc     sdl_ttf:psmodule.obj
 0006:00017874       ??_C@_0P@LBLLJKKM@doubleyodpatah?$AA@ 00515914     sdl_ttf:psmodule.obj
 0006:00017884       ??_C@_0N@PBGINKPL@dottedcircle?$AA@ 00515924     sdl_ttf:psmodule.obj
 0006:00017894       ??_C@_07DPNFPPLF@dotmath?$AA@ 00515934     sdl_ttf:psmodule.obj
 0006:0001789c       ??_C@_0BD@IMGFKIFK@dotlessjstrokehook?$AA@ 0051593c     sdl_ttf:psmodule.obj
 0006:000178b0       ??_C@_08JHFOBAJM@dotlessj?$AA@ 00515950     sdl_ttf:psmodule.obj
 0006:000178bc       ??_C@_0M@NJNPNEJG@dotkatakana?$AA@ 0051595c     sdl_ttf:psmodule.obj
 0006:000178c8       ??_C@_0N@KPJEMEAE@dotbelowcomb?$AA@ 00515968     sdl_ttf:psmodule.obj
 0006:000178d8       ??_C@_0M@LJHPIAHM@dotbelowcmb?$AA@ 00515978     sdl_ttf:psmodule.obj
 0006:000178e4       ??_C@_0N@PGCGOMBG@dotaccentcmb?$AA@ 00515984     sdl_ttf:psmodule.obj
 0006:000178f4       ??_C@_0L@IONFEICE@dorusquare?$AA@ 00515994     sdl_ttf:psmodule.obj
 0006:00017900       ??_C@_04FONPCFHA@dong?$AA@ 005159a0     sdl_ttf:psmodule.obj
 0006:00017908       ??_C@_0M@JNGDLBGK@dollarsmall?$AA@ 005159a8     sdl_ttf:psmodule.obj
 0006:00017914       ??_C@_0BA@HFODOPEN@dollarmonospace?$AA@ 005159b4     sdl_ttf:psmodule.obj
 0006:00017924       ??_C@_0L@BOLGAJDJ@dokatakana?$AA@ 005159c4     sdl_ttf:psmodule.obj
 0006:00017930       ??_C@_0L@FCPOPGHC@dohiragana?$AA@ 005159d0     sdl_ttf:psmodule.obj
 0006:0001793c       ??_C@_09KHFFKHHG@dodekthai?$AA@ 005159dc     sdl_ttf:psmodule.obj
 0006:00017948       ??_C@_0M@BOMDGMOA@dochadathai?$AA@ 005159e8     sdl_ttf:psmodule.obj
 0006:00017954       ??_C@_07KDNGKNDC@dnblock?$AA@ 005159f4     sdl_ttf:psmodule.obj
 0006:0001795c       ??_C@_0L@MOMMABME@dmonospace?$AA@ 005159fc     sdl_ttf:psmodule.obj
 0006:00017968       ??_C@_07EAOENALD@dmacron?$AA@ 00515a08     sdl_ttf:psmodule.obj
 0006:00017970       ??_C@_08HPJEEGNK@dlsquare?$AA@ 00515a10     sdl_ttf:psmodule.obj
 0006:0001797c       ??_C@_0L@BFGKNEJI@dlinebelow?$AA@ 00515a1c     sdl_ttf:psmodule.obj
 0006:00017988       ??_C@_07LHPHLJFD@dkshade?$AA@ 00515a28     sdl_ttf:psmodule.obj
 0006:00017990       ??_C@_0M@IMNCNNBJ@djecyrillic?$AA@ 00515a30     sdl_ttf:psmodule.obj
 0006:0001799c       ??_C@_0O@EEDMBEDN@divisionslash?$AA@ 00515a3c     sdl_ttf:psmodule.obj
 0006:000179ac       ??_C@_07GHEBDPKL@divides?$AA@ 00515a4c     sdl_ttf:psmodule.obj
 0006:000179b4       ??_C@_09MOGCPPGJ@dittomark?$AA@ 00515a54     sdl_ttf:psmodule.obj
 0006:000179c0       ??_C@_0L@BDKIHJHO@dikatakana?$AA@ 00515a60     sdl_ttf:psmodule.obj
 0006:000179cc       ??_C@_0L@FPOAIGDF@dihiragana?$AA@ 00515a6c     sdl_ttf:psmodule.obj
 0006:000179d8       ??_C@_0O@NPJJGOMH@dieresistonos?$AA@ 00515a78     sdl_ttf:psmodule.obj
 0006:000179e8       ??_C@_0O@JFKHHALP@dieresisgrave?$AA@ 00515a88     sdl_ttf:psmodule.obj
 0006:000179f8       ??_C@_0M@IHCJELGC@dieresiscmb?$AA@ 00515a98     sdl_ttf:psmodule.obj
 0006:00017a04       ??_C@_0BB@PEBPHELC@dieresisbelowcmb?$AA@ 00515aa4     sdl_ttf:psmodule.obj
 0006:00017a18       ??_C@_0O@MCIBDJDG@dieresisacute?$AA@ 00515ab8     sdl_ttf:psmodule.obj
 0006:00017a28       ??_C@_0BB@NIDININP@diamondsuitwhite?$AA@ 00515ac8     sdl_ttf:psmodule.obj
 0006:00017a3c       ??_C@_07FCMFEHDO@diamond?$AA@ 00515adc     sdl_ttf:psmodule.obj
 0006:00017a44       ??_C@_0BC@DGODEHMH@dialytikatonoscmb?$AA@ 00515ae4     sdl_ttf:psmodule.obj
 0006:00017a58       ??_C@_0P@BCEICCH@dialytikatonos?$AA@ 00515af8     sdl_ttf:psmodule.obj
 0006:00017a68       ??_C@_05NCNNPGLI@dhook?$AA@ 00515b08     sdl_ttf:psmodule.obj
 0006:00017a70       ??_C@_0M@EHININAA@dhagurmukhi?$AA@ 00515b10     sdl_ttf:psmodule.obj
 0006:00017a7c       ??_C@_0M@KMNPPJLC@dhagujarati?$AA@ 00515b1c     sdl_ttf:psmodule.obj
 0006:00017a88       ??_C@_07PJFNMIBC@dhadeva?$AA@ 00515b28     sdl_ttf:psmodule.obj
 0006:00017a90       ??_C@_0L@NJJJAJPF@dhabengali?$AA@ 00515b30     sdl_ttf:psmodule.obj
 0006:00017a9c       ??_C@_04KNNFNCHH@dezh?$AA@ 00515b3c     sdl_ttf:psmodule.obj
 0006:00017aa4       ??_C@_0CE@OFEGOEBK@denominatorminusonenumeratorbeng@ 00515b44     sdl_ttf:psmodule.obj
 0006:00017ac8       ??_C@_0M@KAIGHOCC@deltaturned?$AA@ 00515b68     sdl_ttf:psmodule.obj
 0006:00017ad4       ??_C@_05NCGEDJPM@delta?$AA@ 00515b74     sdl_ttf:psmodule.obj
 0006:00017adc       ??_C@_0M@NLOINIIG@deleteright?$AA@ 00515b7c     sdl_ttf:psmodule.obj
 0006:00017ae8       ??_C@_0L@HGMKEEDO@deleteleft?$AA@ 00515b88     sdl_ttf:psmodule.obj
 0006:00017af4       ??_C@_0L@JJEJJPA@dekatakana?$AA@ 00515b94     sdl_ttf:psmodule.obj
 0006:00017b00       ??_C@_09EKIMLIMA@deicoptic?$AA@ 00515ba0     sdl_ttf:psmodule.obj
 0006:00017b0c       ??_C@_0L@EFNMGGLL@dehiragana?$AA@ 00515bac     sdl_ttf:psmodule.obj
 0006:00017b18       ??_C@_0L@IHGCMKBK@dehihebrew?$AA@ 00515bb8     sdl_ttf:psmodule.obj
 0006:00017b24       ??_C@_0L@OFKCNGOL@decyrillic?$AA@ 00515bc4     sdl_ttf:psmodule.obj
 0006:00017b30       ??_C@_0BI@MODFMEPJ@decimalseparatorpersian?$AA@ 00515bd0     sdl_ttf:psmodule.obj
 0006:00017b48       ??_C@_0BH@NMIDDAFL@decimalseparatorarabic?$AA@ 00515be8     sdl_ttf:psmodule.obj
 0006:00017b60       ??_C@_09JCPBNIPP@ddotbelow?$AA@ 00515c00     sdl_ttf:psmodule.obj
 0006:00017b6c       ??_C@_0L@HPGILEGN@ddotaccent?$AA@ 00515c0c     sdl_ttf:psmodule.obj
 0006:00017b78       ??_C@_0N@PNGGLNCF@ddhagurmukhi?$AA@ 00515c18     sdl_ttf:psmodule.obj
 0006:00017b88       ??_C@_0N@BGDEMJJH@ddhagujarati?$AA@ 00515c28     sdl_ttf:psmodule.obj
 0006:00017b98       ??_C@_08HLPJNDHN@ddhadeva?$AA@ 00515c38     sdl_ttf:psmodule.obj
 0006:00017ba4       ??_C@_0M@OCJPCJAB@ddhabengali?$AA@ 00515c44     sdl_ttf:psmodule.obj
 0006:00017bb0       ??_C@_09KGHGALKP@dddhadeva?$AA@ 00515c50     sdl_ttf:psmodule.obj
 0006:00017bbc       ??_C@_0BA@LOJGPHA@ddalfinalarabic?$AA@ 00515c5c     sdl_ttf:psmodule.obj
 0006:00017bcc       ??_C@_0L@DHKFGNJF@ddalarabic?$AA@ 00515c6c     sdl_ttf:psmodule.obj
 0006:00017bd8       ??_C@_0M@ENJHBPMH@ddagurmukhi?$AA@ 00515c78     sdl_ttf:psmodule.obj
 0006:00017be4       ??_C@_0M@KGMFGLHF@ddagujarati?$AA@ 00515c84     sdl_ttf:psmodule.obj
 0006:00017bf0       ??_C@_07DOPNKCGG@ddadeva?$AA@ 00515c90     sdl_ttf:psmodule.obj
 0006:00017bf8       ??_C@_0L@MDKFOJHL@ddabengali?$AA@ 00515c98     sdl_ttf:psmodule.obj
 0006:00017c04       ??_C@_06HBBLHMJM@dcroat?$AA@ 00515ca4     sdl_ttf:psmodule.obj
 0006:00017c0c       ??_C@_0BB@OKGALCDG@dcircumflexbelow?$AA@ 00515cac     sdl_ttf:psmodule.obj
 0006:00017c20       ??_C@_07KIBPMANJ@dcircle?$AA@ 00515cc0     sdl_ttf:psmodule.obj
 0006:00017c28       ??_C@_08NEAPIHIK@dcedilla?$AA@ 00515cc8     sdl_ttf:psmodule.obj
 0006:00017c34       ??_C@_06EOJLMJFN@dcaron?$AA@ 00515cd4     sdl_ttf:psmodule.obj
 0006:00017c3c       ??_C@_08GKBOFEOI@dbsquare?$AA@ 00515cdc     sdl_ttf:psmodule.obj
 0006:00017c48       ??_C@_09GDFNBEB@dbopomofo?$AA@ 00515ce8     sdl_ttf:psmodule.obj
 0006:00017c54       ??_C@_0BI@OJEDOKGK@dblverticallineabovecmb?$AA@ 00515cf4     sdl_ttf:psmodule.obj
 0006:00017c6c       ??_C@_0P@IDDAADBL@dblverticalbar?$AA@ 00515d0c     sdl_ttf:psmodule.obj
 0006:00017c7c       ??_C@_0M@CALBADH@dblprimemod?$AA@ 00515d1c     sdl_ttf:psmodule.obj
 0006:00017c88       ??_C@_0P@HIEPJIHJ@dbloverlinecmb?$AA@ 00515d28     sdl_ttf:psmodule.obj
 0006:00017c98       ??_C@_0O@NCDDBOOG@dbllowlinecmb?$AA@ 00515d38     sdl_ttf:psmodule.obj
 0006:00017ca8       ??_C@_0L@LHICOCNI@dbllowline?$AA@ 00515d48     sdl_ttf:psmodule.obj
 0006:00017cb4       ??_C@_0M@HDNLAMLB@dblintegral?$AA@ 00515d54     sdl_ttf:psmodule.obj
 0006:00017cc0       ??_C@_0M@CFFFIHGL@dblgravecmb?$AA@ 00515d60     sdl_ttf:psmodule.obj
 0006:00017ccc       ??_C@_08JLCOCNIF@dblgrave?$AA@ 00515d6c     sdl_ttf:psmodule.obj
 0006:00017cd8       ??_C@_08BJFHBADF@dbldanda?$AA@ 00515d78     sdl_ttf:psmodule.obj
 0006:00017ce4       ??_C@_0O@BMNLDDAM@dblarrowright?$AA@ 00515d84     sdl_ttf:psmodule.obj
 0006:00017cf4       ??_C@_0N@JCIJHKEF@dblarrowleft?$AA@ 00515d94     sdl_ttf:psmodule.obj
 0006:00017d04       ??_C@_0BI@GIKLNCJG@dblarchinvertedbelowcmb?$AA@ 00515da4     sdl_ttf:psmodule.obj
 0006:00017d1c       ??_C@_0BN@NNGADIOM@dblanglebracketrightvertical?$AA@ 00515dbc     sdl_ttf:psmodule.obj
 0006:00017d3c       ??_C@_0BF@HKBBGAPJ@dblanglebracketright?$AA@ 00515ddc     sdl_ttf:psmodule.obj
 0006:00017d54       ??_C@_0BM@HHLCBHDG@dblanglebracketleftvertical?$AA@ 00515df4     sdl_ttf:psmodule.obj
 0006:00017d70       ??_C@_0BE@FOOBEFJP@dblanglebracketleft?$AA@ 00515e10     sdl_ttf:psmodule.obj
 0006:00017d84       ??_C@_08JMICCILD@dblGrave?$AA@ 00515e24     sdl_ttf:psmodule.obj
 0006:00017d90       ??_C@_0BJ@ELJDPGGD@dasiapneumatacyrilliccmb?$AA@ 00515e30     sdl_ttf:psmodule.obj
 0006:00017dac       ??_C@_0BA@EICCPKAM@dargalefthebrew?$AA@ 00515e4c     sdl_ttf:psmodule.obj
 0006:00017dbc       ??_C@_0M@EBNAIFJ@dargahebrew?$AA@ 00515e5c     sdl_ttf:psmodule.obj
 0006:00017dc8       ??_C@_05JBMLPEMH@danda?$AA@ 00515e68     sdl_ttf:psmodule.obj
 0006:00017dd0       ??_C@_0P@LJJPGMFA@dammatanarabic?$AA@ 00515e70     sdl_ttf:psmodule.obj
 0006:00017de0       ??_C@_0BF@EFBIFNGG@dammatanaltonearabic?$AA@ 00515e80     sdl_ttf:psmodule.obj
 0006:00017df8       ??_C@_0P@CGNAFMNO@dammalowarabic?$AA@ 00515e98     sdl_ttf:psmodule.obj
 0006:00017e08       ??_C@_0M@PMNACMCM@dammaarabic?$AA@ 00515ea8     sdl_ttf:psmodule.obj
 0006:00017e14       ??_C@_0P@NNPBOGMC@dalfinalarabic?$AA@ 00515eb4     sdl_ttf:psmodule.obj
 0006:00017e24       ??_C@_0BB@JPGELKO@dalettserehebrew?$AA@ 00515ec4     sdl_ttf:psmodule.obj
 0006:00017e38       ??_C@_0L@BNONBNJF@dalettsere?$AA@ 00515ed8     sdl_ttf:psmodule.obj
 0006:00017e44       ??_C@_0BB@CJBPLOFI@daletshevahebrew?$AA@ 00515ee4     sdl_ttf:psmodule.obj
 0006:00017e58       ??_C@_0L@HELNOGGG@daletsheva?$AA@ 00515ef8     sdl_ttf:psmodule.obj
 0006:00017e64       ??_C@_0BB@HNBIMCJJ@daletsegolhebrew?$AA@ 00515f04     sdl_ttf:psmodule.obj
 0006:00017e78       ??_C@_0L@IAHNAMOO@daletsegol?$AA@ 00515f18     sdl_ttf:psmodule.obj
 0006:00017e84       ??_C@_0BC@DMNICKBB@daletqubutshebrew?$AA@ 00515f24     sdl_ttf:psmodule.obj
 0006:00017e98       ??_C@_0M@DCBIEBLH@daletqubuts?$AA@ 00515f38     sdl_ttf:psmodule.obj
 0006:00017ea4       ??_C@_0BC@IOHLCJMG@daletqamatshebrew?$AA@ 00515f44     sdl_ttf:psmodule.obj
 0006:00017eb8       ??_C@_0M@PHHEFGCD@daletqamats?$AA@ 00515f58     sdl_ttf:psmodule.obj
 0006:00017ec4       ??_C@_0BB@DKEOIMGI@daletpatahhebrew?$AA@ 00515f64     sdl_ttf:psmodule.obj
 0006:00017ed8       ??_C@_0L@NPDHMIPP@daletpatah?$AA@ 00515f78     sdl_ttf:psmodule.obj
 0006:00017ee4       ??_C@_0BB@BOLFPDBE@daletholamhebrew?$AA@ 00515f84     sdl_ttf:psmodule.obj
 0006:00017ef8       ??_C@_0L@GHFIHNFN@daletholam?$AA@ 00515f98     sdl_ttf:psmodule.obj
 0006:00017f04       ??_C@_0BB@FPKLAOHA@dalethiriqhebrew?$AA@ 00515fa4     sdl_ttf:psmodule.obj
 0006:00017f18       ??_C@_0L@LALKKELE@dalethiriq?$AA@ 00515fb8     sdl_ttf:psmodule.obj
 0006:00017f24       ??_C@_0M@CHNHKOML@dalethebrew?$AA@ 00515fc4     sdl_ttf:psmodule.obj
 0006:00017f30       ??_C@_0BG@EGKNHFFK@dalethatafsegolhebrew?$AA@ 00515fd0     sdl_ttf:psmodule.obj
 0006:00017f48       ??_C@_0BA@OKEFJFCN@dalethatafsegol?$AA@ 00515fe8     sdl_ttf:psmodule.obj
 0006:00017f58       ??_C@_0BG@BPLDLKL@dalethatafpatahhebrew?$AA@ 00515ff8     sdl_ttf:psmodule.obj
 0006:00017f70       ??_C@_0BA@LFAPFBDM@dalethatafpatah?$AA@ 00516010     sdl_ttf:psmodule.obj
 0006:00017f80       ??_C@_0BC@IJKHIEEF@daletdageshhebrew?$AA@ 00516020     sdl_ttf:psmodule.obj
 0006:00017f94       ??_C@_0M@KLDJLHKD@daletdagesh?$AA@ 00516034     sdl_ttf:psmodule.obj
 0006:00017fa0       ??_C@_05NLFLAGP@dalet?$AA@ 00516040     sdl_ttf:psmodule.obj
 0006:00017fa8       ??_C@_09FPKFFBLF@dalarabic?$AA@ 00516048     sdl_ttf:psmodule.obj
 0006:00017fb4       ??_C@_0L@HPDJIK@dakatakana?$AA@ 00516054     sdl_ttf:psmodule.obj
 0006:00017fc0       ??_C@_0L@EMDHMGMB@dahiragana?$AA@ 00516060     sdl_ttf:psmodule.obj
 0006:00017fcc       ??_C@_0L@HGJBDPDD@dagurmukhi?$AA@ 0051606c     sdl_ttf:psmodule.obj
 0006:00017fd8       ??_C@_0L@JNMDELIB@dagujarati?$AA@ 00516078     sdl_ttf:psmodule.obj
 0006:00017fe4       ??_C@_0N@OFPBBHOI@dageshhebrew?$AA@ 00516084     sdl_ttf:psmodule.obj
 0006:00017ff4       ??_C@_06CLLAPEC@dagesh?$AA@ 00516094     sdl_ttf:psmodule.obj
 0006:00017ffc       ??_C@_0BA@DPINOCJN@dadmedialarabic?$AA@ 0051609c     sdl_ttf:psmodule.obj
 0006:0001800c       ??_C@_0BB@PCCGNOPG@dadinitialarabic?$AA@ 005160ac     sdl_ttf:psmodule.obj
 0006:00018020       ??_C@_0P@IHPCDFKP@dadfinalarabic?$AA@ 005160c0     sdl_ttf:psmodule.obj
 0006:00018030       ??_C@_06JCBCAMDA@dadeva?$AA@ 005160d0     sdl_ttf:psmodule.obj
 0006:00018038       ??_C@_09IMEAEKAA@dadarabic?$AA@ 005160d8     sdl_ttf:psmodule.obj
 0006:00018044       ??_C@_09KLKFNFFL@dabengali?$AA@ 005160e4     sdl_ttf:psmodule.obj
 0006:00018050       ??_C@_0L@IPCCOCLK@daarmenian?$AA@ 005160f0     sdl_ttf:psmodule.obj
 0006:0001805c       ??_C@_07DFNLIOJP@cyrflex?$AA@ 005160fc     sdl_ttf:psmodule.obj
 0006:00018064       ??_C@_08DGNAIMEG@cyrbreve?$AA@ 00516104     sdl_ttf:psmodule.obj
 0006:00018070       ??_C@_07PEBKKBJL@cyrFlex?$AA@ 00516110     sdl_ttf:psmodule.obj
 0006:00018078       ??_C@_08DBHMIJHA@cyrBreve?$AA@ 00516118     sdl_ttf:psmodule.obj
 0006:00018084       ??_C@_07CIHEDGLL@curlyor?$AA@ 00516124     sdl_ttf:psmodule.obj
 0006:0001808c       ??_C@_08KIOJJNLG@curlyand?$AA@ 0051612c     sdl_ttf:psmodule.obj
 0006:00018098       ??_C@_0L@CFLKNNAJ@cstretched?$AA@ 00516138     sdl_ttf:psmodule.obj
 0006:000180a4       ??_C@_08CEGIJKBE@cruzeiro?$AA@ 00516144     sdl_ttf:psmodule.obj
 0006:000180b0       ??_C@_06DOJACDA@cparen?$AA@ 00516150     sdl_ttf:psmodule.obj
 0006:000180b8       ??_C@_0O@LICBGGG@coverkgsquare?$AA@ 00516158     sdl_ttf:psmodule.obj
 0006:000180c8       ??_C@_08JFHKCMPA@cosquare?$AA@ 00516168     sdl_ttf:psmodule.obj
 0006:000180d4       ??_C@_0BC@IFJOFBK@corporationsquare?$AA@ 00516174     sdl_ttf:psmodule.obj
 0006:000180e8       ??_C@_0BL@JCBHOLKH@cornerbracketrightvertical?$AA@ 00516188     sdl_ttf:psmodule.obj
 0006:00018104       ??_C@_0BM@EOHIPHBG@cornerbracketrighthalfwidth?$AA@ 005161a4     sdl_ttf:psmodule.obj
 0006:00018120       ??_C@_0BD@FIKHMGI@cornerbracketright?$AA@ 005161c0     sdl_ttf:psmodule.obj
 0006:00018134       ??_C@_0BK@NPJDAOJF@cornerbracketleftvertical?$AA@ 005161d4     sdl_ttf:psmodule.obj
 0006:00018150       ??_C@_0BL@IGOCCCHD@cornerbracketlefthalfwidth?$AA@ 005161f0     sdl_ttf:psmodule.obj
 0006:0001816c       ??_C@_0BC@KPPAGPND@cornerbracketleft?$AA@ 0051620c     sdl_ttf:psmodule.obj
 0006:00018180       ??_C@_0P@GDFFJLKE@copyrightserif?$AA@ 00516220     sdl_ttf:psmodule.obj
 0006:00018190       ??_C@_0O@NNFFIOOI@copyrightsans?$AA@ 00516230     sdl_ttf:psmodule.obj
 0006:000181a0       ??_C@_09OCKHOOIB@controlVT?$AA@ 00516240     sdl_ttf:psmodule.obj
 0006:000181ac       ??_C@_09KPKAMGBP@controlUS?$AA@ 0051624c     sdl_ttf:psmodule.obj
 0006:000181b8       ??_C@_0L@MLKBBFLC@controlSYN?$AA@ 00516258     sdl_ttf:psmodule.obj
 0006:000181c4       ??_C@_0L@GOAOKDNK@controlSUB?$AA@ 00516264     sdl_ttf:psmodule.obj
 0006:000181d0       ??_C@_0L@NPOBDDDG@controlSTX?$AA@ 00516270     sdl_ttf:psmodule.obj
 0006:000181dc       ??_C@_0L@GDCHDAKL@controlSOT?$AA@ 0051627c     sdl_ttf:psmodule.obj
 0006:000181e8       ??_C@_09ENFKOHPA@controlSO?$AA@ 00516288     sdl_ttf:psmodule.obj
 0006:000181f4       ??_C@_09BLAAEAHG@controlSI?$AA@ 00516294     sdl_ttf:psmodule.obj
 0006:00018200       ??_C@_09KKOPNAJK@controlRS?$AA@ 005162a0     sdl_ttf:psmodule.obj
 0006:0001820c       ??_C@_0L@GJAJMHN@controlNAK?$AA@ 005162ac     sdl_ttf:psmodule.obj
 0006:00018218       ??_C@_09ILOCLIPE@controlLF?$AA@ 005162b8     sdl_ttf:psmodule.obj
 0006:00018224       ??_C@_09PEBPGAPL@controlHT?$AA@ 005162c4     sdl_ttf:psmodule.obj
 0006:00018230       ??_C@_09LAACLBAB@controlGS?$AA@ 005162d0     sdl_ttf:psmodule.obj
 0006:0001823c       ??_C@_09LBMANLDG@controlFS?$AA@ 005162dc     sdl_ttf:psmodule.obj
 0006:00018248       ??_C@_09IGHFDNCC@controlFF?$AA@ 005162e8     sdl_ttf:psmodule.obj
 0006:00018254       ??_C@_0L@KKJDDLHF@controlETX?$AA@ 005162f4     sdl_ttf:psmodule.obj
 0006:00018260       ??_C@_0L@BKLOMBKO@controlETB?$AA@ 00516300     sdl_ttf:psmodule.obj
 0006:0001826c       ??_C@_0L@GOKOGGK@controlESC?$AA@ 0051630c     sdl_ttf:psmodule.obj
 0006:00018278       ??_C@_0L@BGFFDIOI@controlEOT?$AA@ 00516318     sdl_ttf:psmodule.obj
 0006:00018284       ??_C@_0L@GKOAKGJK@controlENQ?$AA@ 00516324     sdl_ttf:psmodule.obj
 0006:00018290       ??_C@_09GHMHFKLA@controlEM?$AA@ 00516330     sdl_ttf:psmodule.obj
 0006:0001829c       ??_C@_0L@PPHGMCME@controlDLE?$AA@ 0051633c     sdl_ttf:psmodule.obj
 0006:000182a8       ??_C@_0L@CBGFECAC@controlDEL?$AA@ 00516348     sdl_ttf:psmodule.obj
 0006:000182b4       ??_C@_0L@MCAOMNEO@controlDC4?$AA@ 00516354     sdl_ttf:psmodule.obj
 0006:000182c0       ??_C@_0L@INEPFLIJ@controlDC3?$AA@ 00516360     sdl_ttf:psmodule.obj
 0006:000182cc       ??_C@_0L@JEFEGKMI@controlDC2?$AA@ 0051636c     sdl_ttf:psmodule.obj
 0006:000182d8       ??_C@_0L@LPHJDJAL@controlDC1?$AA@ 00516378     sdl_ttf:psmodule.obj
 0006:000182e4       ??_C@_09KOBACIJM@controlCR?$AA@ 00516384     sdl_ttf:psmodule.obj
 0006:000182f0       ??_C@_0L@IJINLAOF@controlCAN?$AA@ 00516390     sdl_ttf:psmodule.obj
 0006:000182fc       ??_C@_09LGMJHDOK@controlBS?$AA@ 0051639c     sdl_ttf:psmodule.obj
 0006:00018308       ??_C@_0L@EAOBNNO@controlBEL?$AA@ 005163a8     sdl_ttf:psmodule.obj
 0006:00018314       ??_C@_0L@FNHHFIEF@controlACK?$AA@ 005163b4     sdl_ttf:psmodule.obj
 0006:00018320       ??_C@_07MMBOFDEG@control?$AA@ 005163c0     sdl_ttf:psmodule.obj
 0006:00018328       ??_C@_0BA@BALJDGCG@contourintegral?$AA@ 005163c8     sdl_ttf:psmodule.obj
 0006:00018338       ??_C@_09FMDFDIPB@congruent?$AA@ 005163d8     sdl_ttf:psmodule.obj
 0006:00018344       ??_C@_07CFMACLND@compass?$AA@ 005163e4     sdl_ttf:psmodule.obj
 0006:0001834c       ??_C@_0P@OJDGEK@commaturnedmod?$AA@ 005163ec     sdl_ttf:psmodule.obj
 0006:0001835c       ??_C@_0BE@KMPIKBNP@commaturnedabovecmb?$AA@ 005163fc     sdl_ttf:psmodule.obj
 0006:00018370       ??_C@_0L@FBKKDPAF@commasmall?$AA@ 00516410     sdl_ttf:psmodule.obj
 0006:0001837c       ??_C@_0BB@HPMPCJEJ@commareversedmod?$AA@ 0051641c     sdl_ttf:psmodule.obj
 0006:00018390       ??_C@_0BG@HHEFMDKN@commareversedabovecmb?$AA@ 00516430     sdl_ttf:psmodule.obj
 0006:000183a8       ??_C@_0P@HFOHNMAO@commamonospace?$AA@ 00516448     sdl_ttf:psmodule.obj
 0006:000183b8       ??_C@_0O@CBJBNMGL@commaarmenian?$AA@ 00516458     sdl_ttf:psmodule.obj
 0006:000183c8       ??_C@_0M@NKDOOOKF@commaarabic?$AA@ 00516468     sdl_ttf:psmodule.obj
 0006:000183d4       ??_C@_0M@PFGPMGFB@commaaccent?$AA@ 00516474     sdl_ttf:psmodule.obj
 0006:000183e0       ??_C@_0BD@NLKMKGGI@commaaboverightcmb?$AA@ 00516480     sdl_ttf:psmodule.obj
 0006:000183f4       ??_C@_0O@PCDFOLEB@commaabovecmb?$AA@ 00516494     sdl_ttf:psmodule.obj
 0006:00018404       ??_C@_0BD@JLCOCHEC@colontriangularmod?$AA@ 005164a4     sdl_ttf:psmodule.obj
 0006:00018418       ??_C@_0BH@JGNPLOK@colontriangularhalfmod?$AA@ 005164b8     sdl_ttf:psmodule.obj
 0006:00018430       ??_C@_0L@PCLMFMNC@colonsmall?$AA@ 005164d0     sdl_ttf:psmodule.obj
 0006:0001843c       ??_C@_09CDIBDIEH@colonsign?$AA@ 005164dc     sdl_ttf:psmodule.obj
 0006:00018448       ??_C@_0P@NHLCGPNC@colonmonospace?$AA@ 005164e8     sdl_ttf:psmodule.obj
 0006:00018458       ??_C@_0L@LINAMHIK@coarmenian?$AA@ 005164f8     sdl_ttf:psmodule.obj
 0006:00018464       ??_C@_0BA@DBGCMBGL@cmsquaredsquare?$AA@ 00516504     sdl_ttf:psmodule.obj
 0006:00018474       ??_C@_0L@OHPHBEEH@cmonospace?$AA@ 00516514     sdl_ttf:psmodule.obj
 0006:00018480       ??_C@_0O@DAHAKAJD@cmcubedsquare?$AA@ 00516520     sdl_ttf:psmodule.obj
 0006:00018490       ??_C@_0O@DMBAIHMJ@clubsuitwhite?$AA@ 00516530     sdl_ttf:psmodule.obj
 0006:000184a0       ??_C@_0O@NINFACLF@clubsuitblack?$AA@ 00516540     sdl_ttf:psmodule.obj
 0006:000184b0       ??_C@_04JDEOOOFK@club?$AA@ 00516550     sdl_ttf:psmodule.obj
 0006:000184b8       ??_C@_0P@PIGHPAHO@clickretroflex?$AA@ 00516558     sdl_ttf:psmodule.obj
 0006:000184c8       ??_C@_0N@ILBKIODH@clicklateral?$AA@ 00516568     sdl_ttf:psmodule.obj
 0006:000184d8       ??_C@_0M@CBHHCAOF@clickdental?$AA@ 00516578     sdl_ttf:psmodule.obj
 0006:000184e4       ??_C@_0O@DKCIFPOH@clickalveolar?$AA@ 00516584     sdl_ttf:psmodule.obj
 0006:000184f4       ??_C@_0O@BOMLIIPA@circumflexcmb?$AA@ 00516594     sdl_ttf:psmodule.obj
 0006:00018504       ??_C@_0BD@DBMEHELH@circumflexbelowcmb?$AA@ 005165a4     sdl_ttf:psmodule.obj
 0006:00018518       ??_C@_0BJ@DMGGFFLI@circlewithrighthalfblack?$AA@ 005165b8     sdl_ttf:psmodule.obj
 0006:00018534       ??_C@_0BI@ENJPMOO@circlewithlefthalfblack?$AA@ 005165d4     sdl_ttf:psmodule.obj
 0006:0001854c       ??_C@_0BB@NGMCPACP@circlepostalmark?$AA@ 005165ec     sdl_ttf:psmodule.obj
 0006:00018560       ??_C@_0L@DKKIENBJ@circleplus?$AA@ 00516600     sdl_ttf:psmodule.obj
 0006:0001856c       ??_C@_08BOMJPMME@circleot?$AA@ 0051660c     sdl_ttf:psmodule.obj
 0006:00018578       ??_C@_0P@GEJEMKAN@circlemultiply?$AA@ 00516618     sdl_ttf:psmodule.obj
 0006:00018588       ??_C@_06EPAGOIP@circle?$AA@ 00516628     sdl_ttf:psmodule.obj
 0006:00018590       ??_C@_0BC@HPPFLKHL@cieucuparenkorean?$AA@ 00516630     sdl_ttf:psmodule.obj
 0006:000185a4       ??_C@_0BB@IHLCAMLK@cieucparenkorean?$AA@ 00516644     sdl_ttf:psmodule.obj
 0006:000185b8       ??_C@_0M@GOHDDHBD@cieuckorean?$AA@ 00516658     sdl_ttf:psmodule.obj
 0006:000185c4       ??_C@_0BC@PEBHPGAA@cieuccirclekorean?$AA@ 00516664     sdl_ttf:psmodule.obj
 0006:000185d8       ??_C@_0BC@LELHGDH@cieucaparenkorean?$AA@ 00516678     sdl_ttf:psmodule.obj
 0006:000185ec       ??_C@_0BD@GHJCPAOH@cieucacirclekorean?$AA@ 0051668c     sdl_ttf:psmodule.obj
 0006:00018600       ??_C@_05MPNIMGAA@chook?$AA@ 005166a0     sdl_ttf:psmodule.obj
 0006:00018608       ??_C@_0M@FNNAODHI@chochoethai?$AA@ 005166a8     sdl_ttf:psmodule.obj
 0006:00018614       ??_C@_0N@HNJNLAPK@chochingthai?$AA@ 005166b4     sdl_ttf:psmodule.obj
 0006:00018624       ??_C@_0M@GHCIGIOG@chochanthai?$AA@ 005166c4     sdl_ttf:psmodule.obj
 0006:00018630       ??_C@_0N@KOHIKLEP@chochangthai?$AA@ 005166d0     sdl_ttf:psmodule.obj
 0006:00018640       ??_C@_0BD@EMABFAG@chieuchparenkorean?$AA@ 005166e0     sdl_ttf:psmodule.obj
 0006:00018654       ??_C@_0O@CFGCPHJJ@chieuchkorean?$AA@ 005166f4     sdl_ttf:psmodule.obj
 0006:00018664       ??_C@_0BE@DGEDHLLO@chieuchcirclekorean?$AA@ 00516704     sdl_ttf:psmodule.obj
 0006:00018678       ??_C@_0BE@MJBPPLIJ@chieuchaparenkorean?$AA@ 00516718     sdl_ttf:psmodule.obj
 0006:0001868c       ??_C@_0BF@ELIJDKOB@chieuchacirclekorean?$AA@ 0051672c     sdl_ttf:psmodule.obj
 0006:000186a4       ??_C@_03FNDDCHI@chi?$AA@   00516744     sdl_ttf:psmodule.obj
 0006:000186a8       ??_C@_0BK@FIPKEND@cheverticalstrokecyrillic?$AA@ 00516748     sdl_ttf:psmodule.obj
 0006:000186c4       ??_C@_0BG@OPHBMPDG@chekhakassiancyrillic?$AA@ 00516764     sdl_ttf:psmodule.obj
 0006:000186dc       ??_C@_0N@ELCNENLI@cheharmenian?$AA@ 0051677c     sdl_ttf:psmodule.obj
 0006:000186ec       ??_C@_0BE@FPACJGKK@chedieresiscyrillic?$AA@ 0051678c     sdl_ttf:psmodule.obj
 0006:00018700       ??_C@_0BF@CNMJNAEG@chedescendercyrillic?$AA@ 005167a0     sdl_ttf:psmodule.obj
 0006:00018718       ??_C@_0BO@HJFMPBKN@chedescenderabkhasiancyrillic?$AA@ 005167b8     sdl_ttf:psmodule.obj
 0006:00018738       ??_C@_0M@KACGINFH@checyrillic?$AA@ 005167d8     sdl_ttf:psmodule.obj
 0006:00018744       ??_C@_09LCDMCBLA@checkmark?$AA@ 005167e4     sdl_ttf:psmodule.obj
 0006:00018750       ??_C@_0BF@FLACJAHA@cheabkhasiancyrillic?$AA@ 005167f0     sdl_ttf:psmodule.obj
 0006:00018768       ??_C@_0L@FNDCBIGM@chbopomofo?$AA@ 00516808     sdl_ttf:psmodule.obj
 0006:00018774       ??_C@_0M@DDBFGEIP@chagurmukhi?$AA@ 00516814     sdl_ttf:psmodule.obj
 0006:00018780       ??_C@_0M@NIEHBADN@chagujarati?$AA@ 00516820     sdl_ttf:psmodule.obj
 0006:0001878c       ??_C@_07PDJIMBAL@chadeva?$AA@ 0051682c     sdl_ttf:psmodule.obj
 0006:00018794       ??_C@_0L@PAKCBMHG@chabengali?$AA@ 00516834     sdl_ttf:psmodule.obj
 0006:000187a0       ??_C@_0M@MKKGLJAG@chaarmenian?$AA@ 00516840     sdl_ttf:psmodule.obj
 0006:000187ac       ??_C@_0O@PIAFHBIN@centmonospace?$AA@ 0051684c     sdl_ttf:psmodule.obj
 0006:000187bc       ??_C@_0L@IKDIFNEB@centigrade?$AA@ 0051685c     sdl_ttf:psmodule.obj
 0006:000187c8       ??_C@_0L@NIOKENA@cedillacmb?$AA@ 00516868     sdl_ttf:psmodule.obj
 0006:000187d4       ??_C@_08MIBADAKG@cdsquare?$AA@ 00516874     sdl_ttf:psmodule.obj
 0006:000187e0       ??_C@_0L@FGFDKBOO@cdotaccent?$AA@ 00516880     sdl_ttf:psmodule.obj
 0006:000187ec       ??_C@_04FLNDFFME@cdot?$AA@ 0051688c     sdl_ttf:psmodule.obj
 0006:000187f4       ??_C@_05NMBDOGAO@ccurl?$AA@ 00516894     sdl_ttf:psmodule.obj
 0006:000187fc       ??_C@_0M@HLFBMHIL@ccircumflex?$AA@ 0051689c     sdl_ttf:psmodule.obj
 0006:00018808       ??_C@_07KCNKMJMA@ccircle?$AA@ 005168a8     sdl_ttf:psmodule.obj
 0006:00018810       ??_C@_0O@KLEBFPF@ccedillaacute?$AA@ 005168b0     sdl_ttf:psmodule.obj
 0006:00018820       ??_C@_06ILDMPHND@ccaron?$AA@ 005168c0     sdl_ttf:psmodule.obj
 0006:00018828       ??_C@_09OEOJMKDI@cbopomofo?$AA@ 005168c8     sdl_ttf:psmodule.obj
 0006:00018834       ??_C@_0P@BCKHFNGF@carriagereturn?$AA@ 005168d4     sdl_ttf:psmodule.obj
 0006:00018844       ??_C@_08PKFJEKAP@caroncmb?$AA@ 005168e4     sdl_ttf:psmodule.obj
 0006:00018850       ??_C@_0O@ODGBMPMA@caronbelowcmb?$AA@ 005168f0     sdl_ttf:psmodule.obj
 0006:00018860       ??_C@_06OEKDFOKE@careof?$AA@ 00516900     sdl_ttf:psmodule.obj
 0006:00018868       ??_C@_08PCJIODFN@capslock?$AA@ 00516908     sdl_ttf:psmodule.obj
 0006:00018874       ??_C@_0BE@JDKJGBIM@candrabindugujarati?$AA@ 00516914     sdl_ttf:psmodule.obj
 0006:00018888       ??_C@_0BA@KAFKBCCB@candrabindudeva?$AA@ 00516928     sdl_ttf:psmodule.obj
 0006:00018898       ??_C@_0P@NHCPLGHK@candrabinducmb?$AA@ 00516938     sdl_ttf:psmodule.obj
 0006:000188a8       ??_C@_0BD@BKAHOKFD@candrabindubengali?$AA@ 00516948     sdl_ttf:psmodule.obj
 0006:000188bc       ??_C@_09KFAMADO@calsquare?$AA@ 0051695c     sdl_ttf:psmodule.obj
 0006:000188c8       ??_C@_0L@FPKKCKLA@cagurmukhi?$AA@ 00516968     sdl_ttf:psmodule.obj
 0006:000188d4       ??_C@_0L@LEPIFOAC@cagujarati?$AA@ 00516974     sdl_ttf:psmodule.obj
 0006:000188e0       ??_C@_06FHLFDCLO@cadeva?$AA@ 00516980     sdl_ttf:psmodule.obj
 0006:000188e8       ??_C@_06NCGEKIFL@cacute?$AA@ 00516988     sdl_ttf:psmodule.obj
 0006:000188f0       ??_C@_09EJHJMOCC@cabengali?$AA@ 00516990     sdl_ttf:psmodule.obj
 0006:000188fc       ??_C@_0L@KGBJPHDJ@caarmenian?$AA@ 0051699c     sdl_ttf:psmodule.obj
 0006:00018908       ??_C@_08ENNDGFCE@bullseye?$AA@ 005169a8     sdl_ttf:psmodule.obj
 0006:00018914       ??_C@_0P@GFALGGME@bulletoperator?$AA@ 005169b4     sdl_ttf:psmodule.obj
 0006:00018924       ??_C@_0O@BOLEMBIF@bulletinverse?$AA@ 005169c4     sdl_ttf:psmodule.obj
 0006:00018934       ??_C@_0L@MGIPNCFL@bukatakana?$AA@ 005169d4     sdl_ttf:psmodule.obj
 0006:00018940       ??_C@_0L@IKMHCNBA@buhiragana?$AA@ 005169e0     sdl_ttf:psmodule.obj
 0006:0001894c       ??_C@_07NFHHKLMD@btopbar?$AA@ 005169ec     sdl_ttf:psmodule.obj
 0006:00018954       ??_C@_07PJHPONOI@bstroke?$AA@ 005169f4     sdl_ttf:psmodule.obj
 0006:0001895c       ??_C@_0BH@DBFHGNCM@bridgeinvertedbelowcmb?$AA@ 005169fc     sdl_ttf:psmodule.obj
 0006:00018974       ??_C@_0P@PAJBNEL@bridgebelowcmb?$AA@ 00516a14     sdl_ttf:psmodule.obj
 0006:00018984       ??_C@_0BH@BAHGMGFA@breveinverteddoublecmb?$AA@ 00516a24     sdl_ttf:psmodule.obj
 0006:0001899c       ??_C@_0BB@BPLDMLLO@breveinvertedcmb?$AA@ 00516a3c     sdl_ttf:psmodule.obj
 0006:000189b0       ??_C@_0BG@BMFPGNOF@breveinvertedbelowcmb?$AA@ 00516a50     sdl_ttf:psmodule.obj
 0006:000189c8       ??_C@_08OOGGKIIG@brevecmb?$AA@ 00516a68     sdl_ttf:psmodule.obj
 0006:000189d4       ??_C@_0O@CCHIOBGI@brevebelowcmb?$AA@ 00516a74     sdl_ttf:psmodule.obj
 0006:000189e4       ??_C@_0P@HIDKJMDE@bracketrighttp?$AA@ 00516a84     sdl_ttf:psmodule.obj
 0006:000189f4       ??_C@_0BG@MGCKDDHH@bracketrightmonospace?$AA@ 00516a94     sdl_ttf:psmodule.obj
 0006:00018a0c       ??_C@_0P@KNAHNPHL@bracketrightex?$AA@ 00516aac     sdl_ttf:psmodule.obj
 0006:00018a1c       ??_C@_0P@EPNIGPC@bracketrightbt?$AA@ 00516abc     sdl_ttf:psmodule.obj
 0006:00018a2c       ??_C@_0O@GOLAMEAP@bracketlefttp?$AA@ 00516acc     sdl_ttf:psmodule.obj
 0006:00018a3c       ??_C@_0BF@CLHOIDF@bracketleftmonospace?$AA@ 00516adc     sdl_ttf:psmodule.obj
 0006:00018a54       ??_C@_0O@LLINIHEA@bracketleftex?$AA@ 00516af4     sdl_ttf:psmodule.obj
 0006:00018a64       ??_C@_0O@BCHHNOMJ@bracketleftbt?$AA@ 00516b04     sdl_ttf:psmodule.obj
 0006:00018a74       ??_C@_0BD@GFACCJLI@bracerightvertical?$AA@ 00516b14     sdl_ttf:psmodule.obj
 0006:00018a88       ??_C@_0N@DPFJOJGH@bracerighttp?$AA@ 00516b28     sdl_ttf:psmodule.obj
 0006:00018a98       ??_C@_0BA@FOPJJJGN@bracerightsmall?$AA@ 00516b38     sdl_ttf:psmodule.obj
 0006:00018aa8       ??_C@_0BE@FHKJDBDG@bracerightmonospace?$AA@ 00516b48     sdl_ttf:psmodule.obj
 0006:00018abc       ??_C@_0O@OMJOIDFL@bracerightmid?$AA@ 00516b5c     sdl_ttf:psmodule.obj
 0006:00018acc       ??_C@_0N@EDJOPDKB@bracerightbt?$AA@ 00516b6c     sdl_ttf:psmodule.obj
 0006:00018adc       ??_C@_0BC@KIAGEMAB@braceleftvertical?$AA@ 00516b7c     sdl_ttf:psmodule.obj
 0006:00018af0       ??_C@_0M@LPAKOIOB@bracelefttp?$AA@ 00516b90     sdl_ttf:psmodule.obj
 0006:00018afc       ??_C@_0P@FADIMPNA@braceleftsmall?$AA@ 00516b9c     sdl_ttf:psmodule.obj
 0006:00018b0c       ??_C@_0BD@OFNJDOHL@braceleftmonospace?$AA@ 00516bac     sdl_ttf:psmodule.obj
 0006:00018b20       ??_C@_0N@OIMFPGEP@braceleftmid?$AA@ 00516bc0     sdl_ttf:psmodule.obj
 0006:00018b30       ??_C@_0M@MDMNPCCH@braceleftbt?$AA@ 00516bd0     sdl_ttf:psmodule.obj
 0006:00018b3c       ??_C@_07MLNMGKDE@braceex?$AA@ 00516bdc     sdl_ttf:psmodule.obj
 0006:00018b44       ??_C@_08OLDABLKK@bqsquare?$AA@ 00516be4     sdl_ttf:psmodule.obj
 0006:00018b50       ??_C@_06KFJOAJIE@bparen?$AA@ 00516bf0     sdl_ttf:psmodule.obj
 0006:00018b58       ??_C@_0L@PGADMDHK@bokatakana?$AA@ 00516bf8     sdl_ttf:psmodule.obj
 0006:00018b64       ??_C@_0L@LKELDMDB@bohiragana?$AA@ 00516c04     sdl_ttf:psmodule.obj
 0006:00018b70       ??_C@_0N@EEIBBGOK@bobaimaithai?$AA@ 00516c10     sdl_ttf:psmodule.obj
 0006:00018b80       ??_C@_0L@CGHJMLIH@bmonospace?$AA@ 00516c20     sdl_ttf:psmodule.obj
 0006:00018b8c       ??_C@_05PIBOEKAB@block?$AA@ 00516c2c     sdl_ttf:psmodule.obj
 0006:00018b94       ??_C@_0L@PNNPBONL@blinebelow?$AA@ 00516c34     sdl_ttf:psmodule.obj
 0006:00018ba0       ??_C@_05BABJKOGB@blank?$AA@ 00516c40     sdl_ttf:psmodule.obj
 0006:00018ba8       ??_C@_0BI@JMGDNCDH@blackuppointingtriangle?$AA@ 00516c48     sdl_ttf:psmodule.obj
 0006:00018bc0       ??_C@_0BN@BGCONHBG@blackuppointingsmalltriangle?$AA@ 00516c60     sdl_ttf:psmodule.obj
 0006:00018be0       ??_C@_0BI@IADHBJPJ@blackupperrighttriangle?$AA@ 00516c80     sdl_ttf:psmodule.obj
 0006:00018bf8       ??_C@_0BH@LFHLDBCC@blackupperlefttriangle?$AA@ 00516c98     sdl_ttf:psmodule.obj
 0006:00018c10       ??_C@_09LJCPCPAH@blackstar?$AA@ 00516cb0     sdl_ttf:psmodule.obj
 0006:00018c1c       ??_C@_0M@CMGOGJON@blacksquare?$AA@ 00516cbc     sdl_ttf:psmodule.obj
 0006:00018c28       ??_C@_0BB@HEPHFICL@blacksmilingface?$AA@ 00516cc8     sdl_ttf:psmodule.obj
 0006:00018c3c       ??_C@_0BB@MGOCCOCG@blacksmallsquare?$AA@ 00516cdc     sdl_ttf:psmodule.obj
 0006:00018c50       ??_C@_0BL@CGGCPLBJ@blackrightpointingtriangle?$AA@ 00516cf0     sdl_ttf:psmodule.obj
 0006:00018c6c       ??_C@_0BK@GOGBBIII@blackrightpointingpointer?$AA@ 00516d0c     sdl_ttf:psmodule.obj
 0006:00018c88       ??_C@_0P@CDPHAPNA@blackrectangle?$AA@ 00516d28     sdl_ttf:psmodule.obj
 0006:00018c98       ??_C@_0BI@LFHIDLBF@blacklowerrighttriangle?$AA@ 00516d38     sdl_ttf:psmodule.obj
 0006:00018cb0       ??_C@_0BH@EPPBCHAK@blacklowerlefttriangle?$AA@ 00516d50     sdl_ttf:psmodule.obj
 0006:00018cc8       ??_C@_0CE@KAECHOFB@blacklenticularbracketrightverti@ 00516d68     sdl_ttf:psmodule.obj
 0006:00018cec       ??_C@_0BM@JMMCEHK@blacklenticularbracketright?$AA@ 00516d8c     sdl_ttf:psmodule.obj
 0006:00018d08       ??_C@_0CD@FCGKBLLJ@blacklenticularbracketleftvertic@ 00516da8     sdl_ttf:psmodule.obj
 0006:00018d2c       ??_C@_0BL@FPLDEFBI@blacklenticularbracketleft?$AA@ 00516dcc     sdl_ttf:psmodule.obj
 0006:00018d48       ??_C@_0BK@EFOCAFHN@blackleftpointingtriangle?$AA@ 00516de8     sdl_ttf:psmodule.obj
 0006:00018d64       ??_C@_0BJ@OIPDKFJF@blackleftpointingpointer?$AA@ 00516e04     sdl_ttf:psmodule.obj
 0006:00018d80       ??_C@_0BK@MPIDIOPA@blackdownpointingtriangle?$AA@ 00516e20     sdl_ttf:psmodule.obj
 0006:00018d9c       ??_C@_0N@ONIHJLL@blackdiamond?$AA@ 00516e3c     sdl_ttf:psmodule.obj
 0006:00018dac       ??_C@_0M@KKKEOPDE@blackcircle?$AA@ 00516e4c     sdl_ttf:psmodule.obj
 0006:00018db8       ??_C@_0L@GLHOPCCA@birusquare?$AA@ 00516e58     sdl_ttf:psmodule.obj
 0006:00018dc4       ??_C@_0O@PKMMJDMI@bindigurmukhi?$AA@ 00516e64     sdl_ttf:psmodule.obj
 0006:00018dd4       ??_C@_0O@FLACIIFJ@bilabialclick?$AA@ 00516e74     sdl_ttf:psmodule.obj
 0006:00018de4       ??_C@_0L@PLBNLDDN@bikatakana?$AA@ 00516e84     sdl_ttf:psmodule.obj
 0006:00018df0       ??_C@_0L@LHFFEMHG@bihiragana?$AA@ 00516e90     sdl_ttf:psmodule.obj
 0006:00018dfc       ??_C@_05EIEBFKF@bhook?$AA@ 00516e9c     sdl_ttf:psmodule.obj
 0006:00018e04       ??_C@_0M@KILACIOA@bhagurmukhi?$AA@ 00516ea4     sdl_ttf:psmodule.obj
 0006:00018e10       ??_C@_0M@EDOCFMFC@bhagujarati?$AA@ 00516eb0     sdl_ttf:psmodule.obj
 0006:00018e1c       ??_C@_07DPDCMBJF@bhadeva?$AA@ 00516ebc     sdl_ttf:psmodule.obj
 0006:00018e24       ??_C@_0L@DBCMMDLG@bhabengali?$AA@ 00516ec4     sdl_ttf:psmodule.obj
 0006:00018e30       ??_C@_0O@LELIPKFM@betrafehebrew?$AA@ 00516ed0     sdl_ttf:psmodule.obj
 0006:00018e40       ??_C@_09BLEPCOOO@bethebrew?$AA@ 00516ee0     sdl_ttf:psmodule.obj
 0006:00018e4c       ??_C@_0BA@DKKFHFON@betdageshhebrew?$AA@ 00516eec     sdl_ttf:psmodule.obj
 0006:00018e5c       ??_C@_09JHKBDHIG@betdagesh?$AA@ 00516efc     sdl_ttf:psmodule.obj
 0006:00018e68       ??_C@_0BA@GLFOGFGO@betasymbolgreek?$AA@ 00516f08     sdl_ttf:psmodule.obj
 0006:00018e78       ??_C@_04PJMJLBJE@beta?$AA@ 00516f18     sdl_ttf:psmodule.obj
 0006:00018e80       ??_C@_03EKNLKKFC@bet?$AA@  00516f20     sdl_ttf:psmodule.obj
 0006:00018e84       ??_C@_0M@GLJMODOD@benarmenian?$AA@ 00516f24     sdl_ttf:psmodule.obj
 0006:00018e90       ??_C@_0L@OBCBFDLD@bekatakana?$AA@ 00516f30     sdl_ttf:psmodule.obj
 0006:00018e9c       ??_C@_0BD@DFCGDMLJ@behnoonfinalarabic?$AA@ 00516f3c     sdl_ttf:psmodule.obj
 0006:00018eb0       ??_C@_0BG@FCOAIGLF@behmeemisolatedarabic?$AA@ 00516f50     sdl_ttf:psmodule.obj
 0006:00018ec8       ??_C@_0BF@KKAGLDDP@behmeeminitialarabic?$AA@ 00516f68     sdl_ttf:psmodule.obj
 0006:00018ee0       ??_C@_0BA@MMJFHPDH@behmedialarabic?$AA@ 00516f80     sdl_ttf:psmodule.obj
 0006:00018ef0       ??_C@_0L@KNGJKMPI@behiragana?$AA@ 00516f90     sdl_ttf:psmodule.obj
 0006:00018efc       ??_C@_0BB@MENGIMJN@behinitialarabic?$AA@ 00516f9c     sdl_ttf:psmodule.obj
 0006:00018f10       ??_C@_0P@CGBONHLN@behfinalarabic?$AA@ 00516fb0     sdl_ttf:psmodule.obj
 0006:00018f20       ??_C@_09ILBNHOAE@beharabic?$AA@ 00516fc0     sdl_ttf:psmodule.obj
 0006:00018f2c       ??_C@_0L@NBHBMKI@becyrillic?$AA@ 00516fcc     sdl_ttf:psmodule.obj
 0006:00018f38       ??_C@_07OJHDNOFO@because?$AA@ 00516fd8     sdl_ttf:psmodule.obj
 0006:00018f40       ??_C@_0BF@JINMGJLC@beamedsixteenthnotes?$AA@ 00516fe0     sdl_ttf:psmodule.obj
 0006:00018f58       ??_C@_09JPOPKILI@bdotbelow?$AA@ 00516ff8     sdl_ttf:psmodule.obj
 0006:00018f64       ??_C@_0L@JHNNHOCO@bdotaccent?$AA@ 00517004     sdl_ttf:psmodule.obj
 0006:00018f70       ??_C@_07GOHAMJFO@bcircle?$AA@ 00517010     sdl_ttf:psmodule.obj
 0006:00018f78       ??_C@_09LCLKBAG@bbopomofo?$AA@ 00517018     sdl_ttf:psmodule.obj
 0006:00018f84       ??_C@_0N@DBCELHFA@barmonospace?$AA@ 00517024     sdl_ttf:psmodule.obj
 0006:00018f94       ??_C@_0L@OIMKPDMJ@bakatakana?$AA@ 00517034     sdl_ttf:psmodule.obj
 0006:00018fa0       ??_C@_08FACCEHBJ@bahtthai?$AA@ 00517040     sdl_ttf:psmodule.obj
 0006:00018fac       ??_C@_0L@KEICAMIC@bahiragana?$AA@ 0051704c     sdl_ttf:psmodule.obj
 0006:00018fb8       ??_C@_0L@JOCEPFHA@bagurmukhi?$AA@ 00517058     sdl_ttf:psmodule.obj
 0006:00018fc4       ??_C@_0L@HFHGIBMC@bagujarati?$AA@ 00517064     sdl_ttf:psmodule.obj
 0006:00018fd0       ??_C@_06PBMCDJAK@badeva?$AA@ 00517070     sdl_ttf:psmodule.obj
 0006:00018fd8       ??_C@_0BD@BAKFFNEC@backslashmonospace?$AA@ 00517078     sdl_ttf:psmodule.obj
 0006:00018fec       ??_C@_09KGLLKFBM@babengali?$AA@ 0051708c     sdl_ttf:psmodule.obj
 0006:00018ff8       ??_C@_0L@NGBJBKGE@ayinhebrew?$AA@ 00517098     sdl_ttf:psmodule.obj
 0006:00019004       ??_C@_0BB@MDACDJHB@ayinaltonehebrew?$AA@ 005170a4     sdl_ttf:psmodule.obj
 0006:00019018       ??_C@_04DHMAAPIP@ayin?$AA@ 005170b8     sdl_ttf:psmodule.obj
 0006:00019020       ??_C@_0M@KCNCIHJB@aybarmenian?$AA@ 005170c0     sdl_ttf:psmodule.obj
 0006:0001902c       ??_C@_0N@LPMNMFPA@avagrahadeva?$AA@ 005170cc     sdl_ttf:psmodule.obj
 0006:0001903c       ??_C@_0BE@KIOHBPHO@auvowelsigngujarati?$AA@ 005170dc     sdl_ttf:psmodule.obj
 0006:00019050       ??_C@_0BA@GKHENIF@auvowelsigndeva?$AA@ 005170f0     sdl_ttf:psmodule.obj
 0006:00019060       ??_C@_0BD@DKFJNAHD@auvowelsignbengali?$AA@ 00517100     sdl_ttf:psmodule.obj
 0006:00019074       ??_C@_0BA@NKBCPFBB@aumatragurmukhi?$AA@ 00517114     sdl_ttf:psmodule.obj
 0006:00019084       ??_C@_0BE@MIFCJADI@aulengthmarkbengali?$AA@ 00517124     sdl_ttf:psmodule.obj
 0006:00019098       ??_C@_0L@CJIDLCOD@augurmukhi?$AA@ 00517138     sdl_ttf:psmodule.obj
 0006:000190a4       ??_C@_0L@MCNBMGFB@augujarati?$AA@ 00517144     sdl_ttf:psmodule.obj
 0006:000190b0       ??_C@_06FIGNGDBK@audeva?$AA@ 00517150     sdl_ttf:psmodule.obj
 0006:000190b8       ??_C@_0L@NHAOKLPF@aubopomofo?$AA@ 00517158     sdl_ttf:psmodule.obj
 0006:000190c4       ??_C@_09LMKAANGC@aubengali?$AA@ 00517164     sdl_ttf:psmodule.obj
 0006:000190d0       ??_C@_07NCDCHMAO@aturned?$AA@ 00517170     sdl_ttf:psmodule.obj
 0006:000190d8       ??_C@_07HJLADOJB@atsmall?$AA@ 00517178     sdl_ttf:psmodule.obj
 0006:000190e0       ??_C@_0M@MDJPJCOL@atmonospace?$AA@ 00517180     sdl_ttf:psmodule.obj
 0006:000190ec       ??_C@_0BE@IEJPMIMC@asymptoticallyequal?$AA@ 0051718c     sdl_ttf:psmodule.obj
 0006:00019100       ??_C@_08HDPHEKNB@asterism?$AA@ 005171a0     sdl_ttf:psmodule.obj
 0006:0001910c       ??_C@_0O@HAHONOPA@asterisksmall?$AA@ 005171ac     sdl_ttf:psmodule.obj
 0006:0001911c       ??_C@_0BC@MFECJAEJ@asteriskmonospace?$AA@ 005171bc     sdl_ttf:psmodule.obj
 0006:00019130       ??_C@_0N@LLKJGALC@asteriskmath?$AA@ 005171d0     sdl_ttf:psmodule.obj
 0006:00019140       ??_C@_0P@BHMIDMNH@asteriskarabic?$AA@ 005171e0     sdl_ttf:psmodule.obj
 0006:00019150       ??_C@_0BF@PLICPBLM@asteriskaltonearabic?$AA@ 005171f0     sdl_ttf:psmodule.obj
 0006:00019168       ??_C@_0BI@DONFEBFN@asmallkatakanahalfwidth?$AA@ 00517208     sdl_ttf:psmodule.obj
 0006:00019180       ??_C@_0P@GEPFHDKG@asmallkatakana?$AA@ 00517220     sdl_ttf:psmodule.obj
 0006:00019190       ??_C@_0P@CILNIMON@asmallhiragana?$AA@ 00517230     sdl_ttf:psmodule.obj
 0006:000191a0       ??_C@_0O@GAMPCCFP@ascriptturned?$AA@ 00517240     sdl_ttf:psmodule.obj
 0006:000191b0       ??_C@_07POCOIHF@ascript?$AA@ 00517250     sdl_ttf:psmodule.obj
 0006:000191b8       ??_C@_0BE@BAHJKGGN@asciitildemonospace?$AA@ 00517258     sdl_ttf:psmodule.obj
 0006:000191cc       ??_C@_0BF@OGMPPFPN@asciicircummonospace?$AA@ 0051726c     sdl_ttf:psmodule.obj
 0006:000191e4       ??_C@_0M@FPFEHEDF@arrowvertex?$AA@ 00517284     sdl_ttf:psmodule.obj
 0006:000191f0       ??_C@_0N@EDBOBGND@arrowupwhite?$AA@ 00517290     sdl_ttf:psmodule.obj
 0006:00019200       ??_C@_0N@IIIJKAOH@arrowupright?$AA@ 005172a0     sdl_ttf:psmodule.obj
 0006:00019210       ??_C@_0BC@OLBCFLF@arrowupleftofdown?$AA@ 005172b0     sdl_ttf:psmodule.obj
 0006:00019224       ??_C@_0M@KECBBFMM@arrowupleft?$AA@ 005172c4     sdl_ttf:psmodule.obj
 0006:00019230       ??_C@_0BA@BMPLLHMA@arrowupdownbase?$AA@ 005172d0     sdl_ttf:psmodule.obj
 0006:00019240       ??_C@_0N@JLFCACMC@arrowupdnbse?$AA@ 005172e0     sdl_ttf:psmodule.obj
 0006:00019250       ??_C@_09JHAEGOPK@arrowupdn?$AA@ 005172f0     sdl_ttf:psmodule.obj
 0006:0001925c       ??_C@_07CLAOEGIP@arrowup?$AA@ 005172fc     sdl_ttf:psmodule.obj
 0006:00019264       ??_C@_0O@COHPPNMK@arrowtabright?$AA@ 00517304     sdl_ttf:psmodule.obj
 0006:00019274       ??_C@_0N@OOCLFPGJ@arrowtableft?$AA@ 00517314     sdl_ttf:psmodule.obj
 0006:00019284       ??_C@_0BA@ECEJFCLI@arrowrightwhite?$AA@ 00517324     sdl_ttf:psmodule.obj
 0006:00019294       ??_C@_0BD@CFPBENDB@arrowrightoverleft?$AA@ 00517334     sdl_ttf:psmodule.obj
 0006:000192a8       ??_C@_0BA@GIBOIHJL@arrowrightheavy?$AA@ 00517348     sdl_ttf:psmodule.obj
 0006:000192b8       ??_C@_0BE@KOLCPGCD@arrowrightdblstroke?$AA@ 00517358     sdl_ttf:psmodule.obj
 0006:000192cc       ??_C@_0L@HAGBLFIJ@arrowright?$AA@ 0051736c     sdl_ttf:psmodule.obj
 0006:000192d8       ??_C@_0P@OOCKPDDO@arrowleftwhite?$AA@ 00517378     sdl_ttf:psmodule.obj
 0006:000192e8       ??_C@_0BD@MKDMPHAJ@arrowleftoverright?$AA@ 00517388     sdl_ttf:psmodule.obj
 0006:000192fc       ??_C@_0BD@CPIKPPDE@arrowleftdblstroke?$AA@ 0051739c     sdl_ttf:psmodule.obj
 0006:00019310       ??_C@_0N@EDJFJIFB@arrowleftdbl?$AA@ 005173b0     sdl_ttf:psmodule.obj
 0006:00019320       ??_C@_09COJKBCBB@arrowleft?$AA@ 005173c0     sdl_ttf:psmodule.obj
 0006:0001932c       ??_C@_0N@PILPDLCH@arrowhorizex?$AA@ 005173cc     sdl_ttf:psmodule.obj
 0006:0001933c       ??_C@_0P@BBIIFBFM@arrowheadupmod?$AA@ 005173dc     sdl_ttf:psmodule.obj
 0006:0001934c       ??_C@_0BC@HADDACBP@arrowheadrightmod?$AA@ 005173ec     sdl_ttf:psmodule.obj
 0006:00019360       ??_C@_0BB@BOJFMALP@arrowheadleftmod?$AA@ 00517400     sdl_ttf:psmodule.obj
 0006:00019374       ??_C@_0BB@ILNKNKFJ@arrowheaddownmod?$AA@ 00517414     sdl_ttf:psmodule.obj
 0006:00019388       ??_C@_0P@BLGMMLGB@arrowdownwhite?$AA@ 00517428     sdl_ttf:psmodule.obj
 0006:00019398       ??_C@_0P@NAPLHNFF@arrowdownright?$AA@ 00517438     sdl_ttf:psmodule.obj
 0006:000193a8       ??_C@_0O@LOLALGPB@arrowdownleft?$AA@ 00517448     sdl_ttf:psmodule.obj
 0006:000193b8       ??_C@_09NMJOIKCI@arrowdown?$AA@ 00517458     sdl_ttf:psmodule.obj
 0006:000193c4       ??_C@_0L@HFKNBHDI@arrowdblup?$AA@ 00517464     sdl_ttf:psmodule.obj
 0006:000193d0       ??_C@_0O@FMAPMDAF@arrowdblright?$AA@ 00517470     sdl_ttf:psmodule.obj
 0006:000193e0       ??_C@_0N@JJHCBFKP@arrowdblleft?$AA@ 00517480     sdl_ttf:psmodule.obj
 0006:000193f0       ??_C@_0N@GLHGINJG@arrowdbldown?$AA@ 00517490     sdl_ttf:psmodule.obj
 0006:00019400       ??_C@_0N@LACKGBOJ@arrowdblboth?$AA@ 005174a0     sdl_ttf:psmodule.obj
 0006:00019410       ??_C@_0M@MHNEFDCL@arrowdashup?$AA@ 005174b0     sdl_ttf:psmodule.obj
 0006:0001941c       ??_C@_0P@PPKDJNAH@arrowdashright?$AA@ 005174bc     sdl_ttf:psmodule.obj
 0006:0001942c       ??_C@_0O@IJCMGDMN@arrowdashleft?$AA@ 005174cc     sdl_ttf:psmodule.obj
 0006:0001943c       ??_C@_0O@HLCIPLPE@arrowdashdown?$AA@ 005174dc     sdl_ttf:psmodule.obj
 0006:0001944c       ??_C@_09HMCGGFH@arrowboth?$AA@ 005174ec     sdl_ttf:psmodule.obj
 0006:00019458       ??_C@_0L@MKMFNIKI@aringbelow?$AA@ 005174f8     sdl_ttf:psmodule.obj
 0006:00019464       ??_C@_0L@IGIHHLPB@aringacute?$AA@ 00517504     sdl_ttf:psmodule.obj
 0006:00019470       ??_C@_0P@NMHJELHG@arighthalfring?$AA@ 00517510     sdl_ttf:psmodule.obj
 0006:00019480       ??_C@_03EEIEDENP@arc?$AA@  00517520     sdl_ttf:psmodule.obj
 0006:00019484       ??_C@_0M@OIJBAPHF@araeakorean?$AA@ 00517524     sdl_ttf:psmodule.obj
 0006:00019490       ??_C@_0N@NDIKOOAJ@araeaekorean?$AA@ 00517530     sdl_ttf:psmodule.obj
 0006:000194a0       ??_C@_0BD@FKBHHMJB@approximatelyequal?$AA@ 00517540     sdl_ttf:psmodule.obj
 0006:000194b4       ??_C@_0BD@OONKMAHL@approxequalorimage?$AA@ 00517554     sdl_ttf:psmodule.obj
 0006:000194c8       ??_C@_0M@HHJIILBA@approxequal?$AA@ 00517568     sdl_ttf:psmodule.obj
 0006:000194d4       ??_C@_0L@DJOFMGDH@approaches?$AA@ 00517574     sdl_ttf:psmodule.obj
 0006:000194e0       ??_C@_05EGDPGPFG@apple?$AA@ 00517580     sdl_ttf:psmodule.obj
 0006:000194e8       ??_C@_0O@ECBDIHIP@apostrophemod?$AA@ 00517588     sdl_ttf:psmodule.obj
 0006:000194f8       ??_C@_0BD@IBHLADCA@apostrophearmenian?$AA@ 00517598     sdl_ttf:psmodule.obj
 0006:0001950c       ??_C@_06JEHGBDBJ@aparen?$AA@ 005175ac     sdl_ttf:psmodule.obj
 0006:00019514       ??_C@_0N@OMPGPFPN@apaatosquare?$AA@ 005175b4     sdl_ttf:psmodule.obj
 0006:00019524       ??_C@_07OGBNFIFG@aogonek?$AA@ 005175c4     sdl_ttf:psmodule.obj
 0006:0001952c       ??_C@_0BB@JOFLJDLO@anusvaragujarati?$AA@ 005175cc     sdl_ttf:psmodule.obj
 0006:00019540       ??_C@_0N@BLPBFKKF@anusvaradeva?$AA@ 005175e0     sdl_ttf:psmodule.obj
 0006:00019550       ??_C@_0BA@IFJPOGNJ@anusvarabengali?$AA@ 005175f0     sdl_ttf:psmodule.obj
 0006:00019560       ??_C@_0N@EBKJOFPJ@anudattadeva?$AA@ 00517600     sdl_ttf:psmodule.obj
 0006:00019570       ??_C@_09JEPOENAD@anoteleia?$AA@ 00517610     sdl_ttf:psmodule.obj
 0006:0001957c       ??_C@_08KJEHGNE@angstrom?$AA@ 0051761c     sdl_ttf:psmodule.obj
 0006:00019588       ??_C@_0L@NFGKFJNF@angleright?$AA@ 00517628     sdl_ttf:psmodule.obj
 0006:00019594       ??_C@_09CPMDCFDG@angleleft?$AA@ 00517634     sdl_ttf:psmodule.obj
 0006:000195a0       ??_C@_0BK@GLMFFNBP@anglebracketrightvertical?$AA@ 00517640     sdl_ttf:psmodule.obj
 0006:000195bc       ??_C@_0BC@EDFBAKGH@anglebracketright?$AA@ 0051765c     sdl_ttf:psmodule.obj
 0006:000195d0       ??_C@_0BJ@LEPKNJAJ@anglebracketleftvertical?$AA@ 00517670     sdl_ttf:psmodule.obj
 0006:000195ec       ??_C@_0BB@BNDIBJHM@anglebracketleft?$AA@ 0051768c     sdl_ttf:psmodule.obj
 0006:00019600       ??_C@_05FECBCJJD@angle?$AA@ 005176a0     sdl_ttf:psmodule.obj
 0006:00019608       ??_C@_0P@JPKBCELI@angkhankhuthai?$AA@ 005176a8     sdl_ttf:psmodule.obj
 0006:00019618       ??_C@_0M@MEAIFJAC@angbopomofo?$AA@ 005176b8     sdl_ttf:psmodule.obj
 0006:00019624       ??_C@_0L@IEANBOK@anbopomofo?$AA@ 005176c4     sdl_ttf:psmodule.obj
 0006:00019630       ??_C@_08PJKJADAL@amsquare?$AA@ 005176d0     sdl_ttf:psmodule.obj
 0006:0001963c       ??_C@_0BD@NKDDLLBE@ampersandmonospace?$AA@ 005176dc     sdl_ttf:psmodule.obj
 0006:00019650       ??_C@_0L@LPJLKNIG@amonospace?$AA@ 005176f0     sdl_ttf:psmodule.obj
 0006:0001965c       ??_C@_07IAENONH@amacron?$AA@ 005176fc     sdl_ttf:psmodule.obj
 0006:00019664       ??_C@_0L@HCEFFMM@alphatonos?$AA@ 00517704     sdl_ttf:psmodule.obj
 0006:00019670       ??_C@_05IAEKHIAN@alpha?$AA@ 00517710     sdl_ttf:psmodule.obj
 0006:00019678       ??_C@_08NJILGPFH@allequal?$AA@ 00517718     sdl_ttf:psmodule.obj
 0006:00019684       ??_C@_05CEHKJGCB@aleph?$AA@ 00517724     sdl_ttf:psmodule.obj
 0006:0001968c       ??_C@_0BB@ELDAPAKB@alefqamatshebrew?$AA@ 0051772c     sdl_ttf:psmodule.obj
 0006:000196a0       ??_C@_0BA@MLKMFFNA@alefpatahhebrew?$AA@ 00517740     sdl_ttf:psmodule.obj
 0006:000196b0       ??_C@_0BI@CDKECIHP@alefmaksuramedialarabic?$AA@ 00517750     sdl_ttf:psmodule.obj
 0006:000196c8       ??_C@_0BJ@LMDOHEGI@alefmaksurainitialarabic?$AA@ 00517768     sdl_ttf:psmodule.obj
 0006:000196e4       ??_C@_0BH@MCFJLFPO@alefmaksurafinalarabic?$AA@ 00517784     sdl_ttf:psmodule.obj
 0006:000196fc       ??_C@_0BC@GOKPHAO@alefmaksuraarabic?$AA@ 0051779c     sdl_ttf:psmodule.obj
 0006:00019710       ??_C@_0BK@LIGFMJFF@alefmaddaabovefinalarabic?$AA@ 005177b0     sdl_ttf:psmodule.obj
 0006:0001972c       ??_C@_0BF@KNDOLCMD@alefmaddaabovearabic?$AA@ 005177cc     sdl_ttf:psmodule.obj
 0006:00019744       ??_C@_0BA@BDEGBLMM@aleflamedhebrew?$AA@ 005177e4     sdl_ttf:psmodule.obj
 0006:00019754       ??_C@_0L@CCEPLIGJ@alefhebrew?$AA@ 005177f4     sdl_ttf:psmodule.obj
 0006:00019760       ??_C@_0BK@CPMOOHMI@alefhamzabelowfinalarabic?$AA@ 00517800     sdl_ttf:psmodule.obj
 0006:0001977c       ??_C@_0BF@JKEJOMA@alefhamzabelowarabic?$AA@ 0051781c     sdl_ttf:psmodule.obj
 0006:00019794       ??_C@_0BK@IMGPPOPN@alefhamzaabovefinalarabic?$AA@ 00517834     sdl_ttf:psmodule.obj
 0006:000197b0       ??_C@_0BF@ICMLCAMM@alefhamzaabovearabic?$AA@ 00517850     sdl_ttf:psmodule.obj
 0006:000197c8       ??_C@_0BA@JNMKJHNM@aleffinalarabic?$AA@ 00517868     sdl_ttf:psmodule.obj
 0006:000197d8       ??_C@_0BB@EMOMFNCC@alefdageshhebrew?$AA@ 00517878     sdl_ttf:psmodule.obj
 0006:000197ec       ??_C@_0L@JJAJMMOH@alefarabic?$AA@ 0051788c     sdl_ttf:psmodule.obj
 0006:000197f8       ??_C@_04JBMENLEO@alef?$AA@ 00517898     sdl_ttf:psmodule.obj
 0006:00019800       ??_C@_07MLAOHGID@akorean?$AA@ 005178a0     sdl_ttf:psmodule.obj
 0006:00019808       ??_C@_0BD@OJHKFPJJ@akatakanahalfwidth?$AA@ 005178a8     sdl_ttf:psmodule.obj
 0006:0001981c       ??_C@_09GIHPAFKK@akatakana?$AA@ 005178bc     sdl_ttf:psmodule.obj
 0006:00019828       ??_C@_0BE@FLGMDEBD@aivowelsigngujarati?$AA@ 005178c8     sdl_ttf:psmodule.obj
 0006:0001983c       ??_C@_0BA@HDAHLCO@aivowelsigndeva?$AA@ 005178dc     sdl_ttf:psmodule.obj
 0006:0001984c       ??_C@_0BD@IADPFGB@aivowelsignbengali?$AA@ 005178ec     sdl_ttf:psmodule.obj
 0006:00019860       ??_C@_0P@NFKCEKGA@ainvertedbreve?$AA@ 00517900     sdl_ttf:psmodule.obj
 0006:00019870       ??_C@_0BA@FIGKCJJH@ainmedialarabic?$AA@ 00517910     sdl_ttf:psmodule.obj
 0006:00019880       ??_C@_0BB@BCJENACD@aininitialarabic?$AA@ 00517920     sdl_ttf:psmodule.obj
 0006:00019894       ??_C@_0P@LNHDPDDE@ainfinalarabic?$AA@ 00517934     sdl_ttf:psmodule.obj
 0006:000198a4       ??_C@_09EAHBDPJE@ainarabic?$AA@ 00517944     sdl_ttf:psmodule.obj
 0006:000198b0       ??_C@_0BA@NLIFMDLK@aimatragurmukhi?$AA@ 00517950     sdl_ttf:psmodule.obj
 0006:000198c0       ??_C@_0L@BEBBNDIF@aigurmukhi?$AA@ 00517960     sdl_ttf:psmodule.obj
 0006:000198cc       ??_C@_0L@PPEDKHDH@aigujarati?$AA@ 0051796c     sdl_ttf:psmodule.obj
 0006:000198d8       ??_C@_0M@INJDMMAI@aiecyrillic?$AA@ 00517978     sdl_ttf:psmodule.obj
 0006:000198e4       ??_C@_06CMHJKBPK@aideva?$AA@ 00517984     sdl_ttf:psmodule.obj
 0006:000198ec       ??_C@_0L@OKJMMKJD@aibopomofo?$AA@ 0051798c     sdl_ttf:psmodule.obj
 0006:000198f8       ??_C@_09PGFELMAH@aibengali?$AA@ 00517998     sdl_ttf:psmodule.obj
 0006:00019904       ??_C@_0L@MPFLDDJF@ahookabove?$AA@ 005179a4     sdl_ttf:psmodule.obj
 0006:00019910       ??_C@_09CEDHPKOB@ahiragana?$AA@ 005179b0     sdl_ttf:psmodule.obj
 0006:0001991c       ??_C@_09BOJBADBD@agurmukhi?$AA@ 005179bc     sdl_ttf:psmodule.obj
 0006:00019928       ??_C@_09PFMDHHKB@agujarati?$AA@ 005179c8     sdl_ttf:psmodule.obj
 0006:00019934       ??_C@_09GBCIAEGP@afii64937?$AA@ 005179d4     sdl_ttf:psmodule.obj
 0006:00019940       ??_C@_09BAHHDCHL@afii63167?$AA@ 005179e0     sdl_ttf:psmodule.obj
 0006:0001994c       ??_C@_09NMENAKGB@afii61664?$AA@ 005179ec     sdl_ttf:psmodule.obj
 0006:00019958       ??_C@_09NGCBPOPJ@afii61575?$AA@ 005179f8     sdl_ttf:psmodule.obj
 0006:00019964       ??_C@_09MPDKMPLI@afii61574?$AA@ 00517a04     sdl_ttf:psmodule.obj
 0006:00019970       ??_C@_09IAHLFJHP@afii61573?$AA@ 00517a10     sdl_ttf:psmodule.obj
 0006:0001997c       ??_C@_09LPIPODIM@afii61352?$AA@ 00517a1c     sdl_ttf:psmodule.obj
 0006:00019988       ??_C@_09OMBPMOHB@afii61289?$AA@ 00517a28     sdl_ttf:psmodule.obj
 0006:00019994       ??_C@_09PMBOAGFE@afii61248?$AA@ 00517a34     sdl_ttf:psmodule.obj
 0006:000199a0       ??_C@_09DPFNELKI@afii57929?$AA@ 00517a40     sdl_ttf:psmodule.obj
 0006:000199ac       ??_C@_09GAJIIJLE@afii57842?$AA@ 00517a4c     sdl_ttf:psmodule.obj
 0006:000199b8       ??_C@_09ELLFNKHH@afii57841?$AA@ 00517a58     sdl_ttf:psmodule.obj
 0006:000199c4       ??_C@_09IGCDEGPK@afii57839?$AA@ 00517a64     sdl_ttf:psmodule.obj
 0006:000199d0       ??_C@_09BKOGNFCN@afii57807?$AA@ 00517a70     sdl_ttf:psmodule.obj
 0006:000199dc       ??_C@_09DPNOEGM@afii57806?$AA@ 00517a7c     sdl_ttf:psmodule.obj
 0006:000199e8       ??_C@_09DBMLIGOO@afii57804?$AA@ 00517a88     sdl_ttf:psmodule.obj
 0006:000199f4       ??_C@_09HOIKBACJ@afii57803?$AA@ 00517a94     sdl_ttf:psmodule.obj
 0006:00019a00       ??_C@_09GHJBCBGI@afii57802?$AA@ 00517aa0     sdl_ttf:psmodule.obj
 0006:00019a0c       ??_C@_09EMLMHCKL@afii57801?$AA@ 00517aac     sdl_ttf:psmodule.obj
 0006:00019a18       ??_C@_09FFKHEDOK@afii57800?$AA@ 00517ab8     sdl_ttf:psmodule.obj
 0006:00019a24       ??_C@_09NDNHNDHK@afii57799?$AA@ 00517ac4     sdl_ttf:psmodule.obj
 0006:00019a30       ??_C@_09MKMMOCDL@afii57798?$AA@ 00517ad0     sdl_ttf:psmodule.obj
 0006:00019a3c       ??_C@_09ENFEPOPE@afii57797?$AA@ 00517adc     sdl_ttf:psmodule.obj
 0006:00019a48       ??_C@_09FEEPMPLF@afii57796?$AA@ 00517ae8     sdl_ttf:psmodule.obj
 0006:00019a54       ??_C@_09HPGCJMHG@afii57795?$AA@ 00517af4     sdl_ttf:psmodule.obj
 0006:00019a60       ??_C@_09GGHJKNDH@afii57794?$AA@ 00517b00     sdl_ttf:psmodule.obj
 0006:00019a6c       ??_C@_09CJDIDLPA@afii57793?$AA@ 00517b0c     sdl_ttf:psmodule.obj
 0006:00019a78       ??_C@_09CFGNNEBB@afii57723?$AA@ 00517b18     sdl_ttf:psmodule.obj
 0006:00019a84       ??_C@_09MENPLDID@afii57718?$AA@ 00517b24     sdl_ttf:psmodule.obj
 0006:00019a90       ??_C@_09EDEHKPEM@afii57717?$AA@ 00517b30     sdl_ttf:psmodule.obj
 0006:00019a9c       ??_C@_09FKFMJOAN@afii57716?$AA@ 00517b3c     sdl_ttf:psmodule.obj
 0006:00019aa8       ??_C@_09HALDKHPJ@afii57705?$AA@ 00517b48     sdl_ttf:psmodule.obj
 0006:00019ab4       ??_C@_09NMEFDLM@afii57700?$AA@ 00517b54     sdl_ttf:psmodule.obj
 0006:00019ac0       ??_C@_09MHNOPLBD@afii57695?$AA@ 00517b60     sdl_ttf:psmodule.obj
 0006:00019acc       ??_C@_09NOMFMKFC@afii57694?$AA@ 00517b6c     sdl_ttf:psmodule.obj
 0006:00019ad8       ??_C@_09LKKJAPFG@afii57690?$AA@ 00517b78     sdl_ttf:psmodule.obj
 0006:00019ae4       ??_C@_09GKKJNOCI@afii57689?$AA@ 00517b84     sdl_ttf:psmodule.obj
 0006:00019af0       ??_C@_09HDLCOPGJ@afii57688?$AA@ 00517b90     sdl_ttf:psmodule.obj
 0006:00019afc       ??_C@_09PECKPDKG@afii57687?$AA@ 00517b9c     sdl_ttf:psmodule.obj
 0006:00019b08       ??_C@_09ONDBMCOH@afii57686?$AA@ 00517ba8     sdl_ttf:psmodule.obj
 0006:00019b14       ??_C@_09MGBMJBCE@afii57685?$AA@ 00517bb4     sdl_ttf:psmodule.obj
 0006:00019b20       ??_C@_09NPAHKAGF@afii57684?$AA@ 00517bc0     sdl_ttf:psmodule.obj
 0006:00019b2c       ??_C@_09JAEGDGKC@afii57683?$AA@ 00517bcc     sdl_ttf:psmodule.obj
 0006:00019b38       ??_C@_09IJFNAHOD@afii57682?$AA@ 00517bd8     sdl_ttf:psmodule.obj
 0006:00019b44       ??_C@_09KCHAFECA@afii57681?$AA@ 00517be4     sdl_ttf:psmodule.obj
 0006:00019b50       ??_C@_09LLGLGFGB@afii57680?$AA@ 00517bf0     sdl_ttf:psmodule.obj
 0006:00019b5c       ??_C@_09GBPFJJBF@afii57679?$AA@ 00517bfc     sdl_ttf:psmodule.obj
 0006:00019b68       ??_C@_09HIOOKIFE@afii57678?$AA@ 00517c08     sdl_ttf:psmodule.obj
 0006:00019b74       ??_C@_09PPHGLEJL@afii57677?$AA@ 00517c14     sdl_ttf:psmodule.obj
 0006:00019b80       ??_C@_09OGGNIFNK@afii57676?$AA@ 00517c20     sdl_ttf:psmodule.obj
 0006:00019b8c       ??_C@_09MNEANGBJ@afii57675?$AA@ 00517c2c     sdl_ttf:psmodule.obj
 0006:00019b98       ??_C@_09NEFLOHFI@afii57674?$AA@ 00517c38     sdl_ttf:psmodule.obj
 0006:00019ba4       ??_C@_09JLBKHBJP@afii57673?$AA@ 00517c44     sdl_ttf:psmodule.obj
 0006:00019bb0       ??_C@_09ICABEANO@afii57672?$AA@ 00517c50     sdl_ttf:psmodule.obj
 0006:00019bbc       ??_C@_09KJCMBDBN@afii57671?$AA@ 00517c5c     sdl_ttf:psmodule.obj
 0006:00019bc8       ??_C@_09LADHCCFM@afii57670?$AA@ 00517c68     sdl_ttf:psmodule.obj
 0006:00019bd4       ??_C@_09GADHPDCC@afii57669?$AA@ 00517c74     sdl_ttf:psmodule.obj
 0006:00019be0       ??_C@_09HJCMMCGD@afii57668?$AA@ 00517c80     sdl_ttf:psmodule.obj
 0006:00019bec       ??_C@_09POLENOKM@afii57667?$AA@ 00517c8c     sdl_ttf:psmodule.obj
 0006:00019bf8       ??_C@_09OHKPOPON@afii57666?$AA@ 00517c98     sdl_ttf:psmodule.obj
 0006:00019c04       ??_C@_09MMICLMCO@afii57665?$AA@ 00517ca4     sdl_ttf:psmodule.obj
 0006:00019c10       ??_C@_09NFJJINGP@afii57664?$AA@ 00517cb0     sdl_ttf:psmodule.obj
 0006:00019c1c       ??_C@_09HLGKHMDK@afii57658?$AA@ 00517cbc     sdl_ttf:psmodule.obj
 0006:00019c28       ??_C@_09MPAGGIEA@afii57645?$AA@ 00517cc8     sdl_ttf:psmodule.obj
 0006:00019c34       ??_C@_09OBGECNAG@afii57636?$AA@ 00517cd4     sdl_ttf:psmodule.obj
 0006:00019c40       ??_C@_09MBOHOAGK@afii57534?$AA@ 00517ce0     sdl_ttf:psmodule.obj
 0006:00019c4c       ??_C@_09HHMNEKEJ@afii57519?$AA@ 00517cec     sdl_ttf:psmodule.obj
 0006:00019c58       ??_C@_09MCGDDEAE@afii57514?$AA@ 00517cf8     sdl_ttf:psmodule.obj
 0006:00019c64       ??_C@_09INCCKCMD@afii57513?$AA@ 00517d04     sdl_ttf:psmodule.obj
 0006:00019c70       ??_C@_09JEDJJDIC@afii57512?$AA@ 00517d10     sdl_ttf:psmodule.obj
 0006:00019c7c       ??_C@_09LPBEMAEB@afii57511?$AA@ 00517d1c     sdl_ttf:psmodule.obj
 0006:00019c88       ??_C@_09HGAPCAHO@afii57509?$AA@ 00517d28     sdl_ttf:psmodule.obj
 0006:00019c94       ??_C@_09GPBEBBDP@afii57508?$AA@ 00517d34     sdl_ttf:psmodule.obj
 0006:00019ca0       ??_C@_09OIIMANPA@afii57507?$AA@ 00517d40     sdl_ttf:psmodule.obj
 0006:00019cac       ??_C@_09PBJHDMLB@afii57506?$AA@ 00517d4c     sdl_ttf:psmodule.obj
 0006:00019cb8       ??_C@_09NKLKGPHC@afii57505?$AA@ 00517d58     sdl_ttf:psmodule.obj
 0006:00019cc4       ??_C@_09BKDOOKNH@afii57470?$AA@ 00517d64     sdl_ttf:psmodule.obj
 0006:00019cd0       ??_C@_09NBGDLELB@afii57458?$AA@ 00517d70     sdl_ttf:psmodule.obj
 0006:00019cdc       ??_C@_09FGPLKIHO@afii57457?$AA@ 00517d7c     sdl_ttf:psmodule.obj
 0006:00019ce8       ??_C@_09EPOAJJDP@afii57456?$AA@ 00517d88     sdl_ttf:psmodule.obj
 0006:00019cf4       ??_C@_09GEMNMKPM@afii57455?$AA@ 00517d94     sdl_ttf:psmodule.obj
 0006:00019d00       ??_C@_09HNNGPLLN@afii57454?$AA@ 00517da0     sdl_ttf:psmodule.obj
 0006:00019d0c       ??_C@_09DCJHGNHK@afii57453?$AA@ 00517dac     sdl_ttf:psmodule.obj
 0006:00019d18       ??_C@_09CLIMFMDL@afii57452?$AA@ 00517db8     sdl_ttf:psmodule.obj
 0006:00019d24       ??_C@_09KBAPPI@afii57451?$AA@ 00517dc4     sdl_ttf:psmodule.obj
 0006:00019d30       ??_C@_09BJLKDOLJ@afii57450?$AA@ 00517dd0     sdl_ttf:psmodule.obj
 0006:00019d3c       ??_C@_09MJLKOPMH@afii57449?$AA@ 00517ddc     sdl_ttf:psmodule.obj
 0006:00019d48       ??_C@_09NAKBNOIG@afii57448?$AA@ 00517de8     sdl_ttf:psmodule.obj
 0006:00019d54       ??_C@_09EOCCPDAI@afii57446?$AA@ 00517df4     sdl_ttf:psmodule.obj
 0006:00019d60       ??_C@_09GFAPKAML@afii57445?$AA@ 00517e00     sdl_ttf:psmodule.obj
 0006:00019d6c       ??_C@_09HMBEJBIK@afii57444?$AA@ 00517e0c     sdl_ttf:psmodule.obj
 0006:00019d78       ??_C@_09DDFFAHEN@afii57443?$AA@ 00517e18     sdl_ttf:psmodule.obj
 0006:00019d84       ??_C@_09CKEODGAM@afii57442?$AA@ 00517e24     sdl_ttf:psmodule.obj
 0006:00019d90       ??_C@_09BGDGFMP@afii57441?$AA@ 00517e30     sdl_ttf:psmodule.obj
 0006:00019d9c       ??_C@_09BIHIFEIO@afii57440?$AA@ 00517e3c     sdl_ttf:psmodule.obj
 0006:00019da8       ??_C@_09HJFLIHAP@afii57434?$AA@ 00517e48     sdl_ttf:psmodule.obj
 0006:00019db4       ??_C@_09DGBKBBMI@afii57433?$AA@ 00517e54     sdl_ttf:psmodule.obj
 0006:00019dc0       ??_C@_09CPABCAIJ@afii57432?$AA@ 00517e60     sdl_ttf:psmodule.obj
 0006:00019dcc       ??_C@_09ECMHDEK@afii57431?$AA@ 00517e6c     sdl_ttf:psmodule.obj
 0006:00019dd8       ??_C@_09BNDHECAL@afii57430?$AA@ 00517e78     sdl_ttf:psmodule.obj
 0006:00019de4       ??_C@_09MNDHJDHF@afii57429?$AA@ 00517e84     sdl_ttf:psmodule.obj
 0006:00019df0       ??_C@_09NECMKCDE@afii57428?$AA@ 00517e90     sdl_ttf:psmodule.obj
 0006:00019dfc       ??_C@_09FDLELOPL@afii57427?$AA@ 00517e9c     sdl_ttf:psmodule.obj
 0006:00019e08       ??_C@_09EKKPIPLK@afii57426?$AA@ 00517ea8     sdl_ttf:psmodule.obj
 0006:00019e14       ??_C@_09GBICNMHJ@afii57425?$AA@ 00517eb4     sdl_ttf:psmodule.obj
 0006:00019e20       ??_C@_09HIJJONDI@afii57424?$AA@ 00517ec0     sdl_ttf:psmodule.obj
 0006:00019e2c       ??_C@_09DHNIHLPP@afii57423?$AA@ 00517ecc     sdl_ttf:psmodule.obj
 0006:00019e38       ??_C@_09COMDEKLO@afii57422?$AA@ 00517ed8     sdl_ttf:psmodule.obj
 0006:00019e44       ??_C@_09FOOBJHN@afii57421?$AA@ 00517ee4     sdl_ttf:psmodule.obj
 0006:00019e50       ??_C@_09BMPFCIDM@afii57420?$AA@ 00517ef0     sdl_ttf:psmodule.obj
 0006:00019e5c       ??_C@_09MPHBCNCM@afii57419?$AA@ 00517efc     sdl_ttf:psmodule.obj
 0006:00019e68       ??_C@_09NGGKBMGN@afii57418?$AA@ 00517f08     sdl_ttf:psmodule.obj
 0006:00019e74       ??_C@_09FBPCAAKC@afii57417?$AA@ 00517f14     sdl_ttf:psmodule.obj
 0006:00019e80       ??_C@_09EIOJDBOD@afii57416?$AA@ 00517f20     sdl_ttf:psmodule.obj
 0006:00019e8c       ??_C@_09GDMEGCCA@afii57415?$AA@ 00517f2c     sdl_ttf:psmodule.obj
 0006:00019e98       ??_C@_09HKNPFDGB@afii57414?$AA@ 00517f38     sdl_ttf:psmodule.obj
 0006:00019ea4       ??_C@_09DFJOMFKG@afii57413?$AA@ 00517f44     sdl_ttf:psmodule.obj
 0006:00019eb0       ??_C@_09CMIFPEOH@afii57412?$AA@ 00517f50     sdl_ttf:psmodule.obj
 0006:00019ebc       ??_C@_09HKIKHCE@afii57411?$AA@ 00517f5c     sdl_ttf:psmodule.obj
 0006:00019ec8       ??_C@_09BOLDJGGF@afii57410?$AA@ 00517f68     sdl_ttf:psmodule.obj
 0006:00019ed4       ??_C@_09MOLDEHBL@afii57409?$AA@ 00517f74     sdl_ttf:psmodule.obj
 0006:00019ee0       ??_C@_09FADAGKJF@afii57407?$AA@ 00517f80     sdl_ttf:psmodule.obj
 0006:00019eec       ??_C@_09DEFMKPJB@afii57403?$AA@ 00517f8c     sdl_ttf:psmodule.obj
 0006:00019ef8       ??_C@_09GGKMNBD@afii57401?$AA@ 00517f98     sdl_ttf:psmodule.obj
 0006:00019f04       ??_C@_09BPHBPMFC@afii57400?$AA@ 00517fa4     sdl_ttf:psmodule.obj
 0006:00019f10       ??_C@_09FMLFEECN@afii57399?$AA@ 00517fb0     sdl_ttf:psmodule.obj
 0006:00019f1c       ??_C@_09EFKOHFGM@afii57398?$AA@ 00517fbc     sdl_ttf:psmodule.obj
 0006:00019f28       ??_C@_09MCDGGJKD@afii57397?$AA@ 00517fc8     sdl_ttf:psmodule.obj
 0006:00019f34       ??_C@_09NLCNFIOC@afii57396?$AA@ 00517fd4     sdl_ttf:psmodule.obj
 0006:00019f40       ??_C@_09PAAAALCB@afii57395?$AA@ 00517fe0     sdl_ttf:psmodule.obj
 0006:00019f4c       ??_C@_09OJBLDKGA@afii57394?$AA@ 00517fec     sdl_ttf:psmodule.obj
 0006:00019f58       ??_C@_09KGFKKMKH@afii57393?$AA@ 00517ff8     sdl_ttf:psmodule.obj
 0006:00019f64       ??_C@_09LPEBJNOG@afii57392?$AA@ 00518004     sdl_ttf:psmodule.obj
 0006:00019f70       ??_C@_09EEGMBPFL@afii57388?$AA@ 00518010     sdl_ttf:psmodule.obj
 0006:00019f7c       ??_C@_09JFKOKEBC@afii57381?$AA@ 0051801c     sdl_ttf:psmodule.obj
 0006:00019f88       ??_C@_07NFILAHKP@afii301?$AA@ 00518028     sdl_ttf:psmodule.obj
 0006:00019f90       ??_C@_07MMJADGOO@afii300?$AA@ 00518030     sdl_ttf:psmodule.obj
 0006:00019f98       ??_C@_07KKDPNBEN@afii299?$AA@ 00518038     sdl_ttf:psmodule.obj
 0006:00019fa0       ??_C@_09CNEFNCLG@afii10846?$AA@ 00518040     sdl_ttf:psmodule.obj
 0006:00019fac       ??_C@_09EMGGABDH@afii10832?$AA@ 0051804c     sdl_ttf:psmodule.obj
 0006:00019fb8       ??_C@_09GHELFCPE@afii10831?$AA@ 00518058     sdl_ttf:psmodule.obj
 0006:00019fc4       ??_C@_09FIJFAOGP@afii10196?$AA@ 00518064     sdl_ttf:psmodule.obj
 0006:00019fd0       ??_C@_09HDLIFNKM@afii10195?$AA@ 00518070     sdl_ttf:psmodule.obj
 0006:00019fdc       ??_C@_09GKKDGMON@afii10194?$AA@ 0051807c     sdl_ttf:psmodule.obj
 0006:00019fe8       ??_C@_09CFOCPKCK@afii10193?$AA@ 00518088     sdl_ttf:psmodule.obj
 0006:00019ff4       ??_C@_09DMPJMLGL@afii10192?$AA@ 00518094     sdl_ttf:psmodule.obj
 0006:0001a000       ??_C@_09MOMOLALC@afii10148?$AA@ 005180a0     sdl_ttf:psmodule.obj
 0006:0001a00c       ??_C@_09EJFGKMHN@afii10147?$AA@ 005180ac     sdl_ttf:psmodule.obj
 0006:0001a018       ??_C@_09FAENJNDM@afii10146?$AA@ 005180b8     sdl_ttf:psmodule.obj
 0006:0001a024       ??_C@_09HLGAMOPP@afii10145?$AA@ 005180c4     sdl_ttf:psmodule.obj
 0006:0001a030       ??_C@_09NMPIFB@afii10110?$AA@ 005180d0     sdl_ttf:psmodule.obj
 0006:0001a03c       ??_C@_09NANMCJCP@afii10109?$AA@ 005180dc     sdl_ttf:psmodule.obj
 0006:0001a048       ??_C@_09MJMHBIGO@afii10108?$AA@ 005180e8     sdl_ttf:psmodule.obj
 0006:0001a054       ??_C@_09EOFPAEKB@afii10107?$AA@ 005180f4     sdl_ttf:psmodule.obj
 0006:0001a060       ??_C@_09FHEEDFOA@afii10106?$AA@ 00518100     sdl_ttf:psmodule.obj
 0006:0001a06c       ??_C@_09HMGJGGCD@afii10105?$AA@ 0051810c     sdl_ttf:psmodule.obj
 0006:0001a078       ??_C@_09GFHCFHGC@afii10104?$AA@ 00518118     sdl_ttf:psmodule.obj
 0006:0001a084       ??_C@_09CKDDMBKF@afii10103?$AA@ 00518124     sdl_ttf:psmodule.obj
 0006:0001a090       ??_C@_09DDCIPAOE@afii10102?$AA@ 00518130     sdl_ttf:psmodule.obj
 0006:0001a09c       ??_C@_09BIAFKDCH@afii10101?$AA@ 0051813c     sdl_ttf:psmodule.obj
 0006:0001a0a8       ??_C@_09BBOJCGG@afii10100?$AA@ 00518148     sdl_ttf:psmodule.obj
 0006:0001a0b4       ??_C@_09GHLBHFMF@afii10099?$AA@ 00518154     sdl_ttf:psmodule.obj
 0006:0001a0c0       ??_C@_09HOKKEEIE@afii10098?$AA@ 00518160     sdl_ttf:psmodule.obj
 0006:0001a0cc       ??_C@_09PJDCFIEL@afii10097?$AA@ 0051816c     sdl_ttf:psmodule.obj
 0006:0001a0d8       ??_C@_09OACJGJAK@afii10096?$AA@ 00518178     sdl_ttf:psmodule.obj
 0006:0001a0e4       ??_C@_09MLAEDKMJ@afii10095?$AA@ 00518184     sdl_ttf:psmodule.obj
 0006:0001a0f0       ??_C@_09NCBPALII@afii10094?$AA@ 00518190     sdl_ttf:psmodule.obj
 0006:0001a0fc       ??_C@_09JNFOJNEP@afii10093?$AA@ 0051819c     sdl_ttf:psmodule.obj
 0006:0001a108       ??_C@_09IEEFKMAO@afii10092?$AA@ 005181a8     sdl_ttf:psmodule.obj
 0006:0001a114       ??_C@_09KPGIPPMN@afii10091?$AA@ 005181b4     sdl_ttf:psmodule.obj
 0006:0001a120       ??_C@_09LGHDMOIM@afii10090?$AA@ 005181c0     sdl_ttf:psmodule.obj
 0006:0001a12c       ??_C@_09GGHDBPPC@afii10089?$AA@ 005181cc     sdl_ttf:psmodule.obj
 0006:0001a138       ??_C@_09HPGICOLD@afii10088?$AA@ 005181d8     sdl_ttf:psmodule.obj
 0006:0001a144       ??_C@_09PIPADCHM@afii10087?$AA@ 005181e4     sdl_ttf:psmodule.obj
 0006:0001a150       ??_C@_09OBOLADDN@afii10086?$AA@ 005181f0     sdl_ttf:psmodule.obj
 0006:0001a15c       ??_C@_09MKMGFAPO@afii10085?$AA@ 005181fc     sdl_ttf:psmodule.obj
 0006:0001a168       ??_C@_09NDNNGBLP@afii10084?$AA@ 00518208     sdl_ttf:psmodule.obj
 0006:0001a174       ??_C@_09JMJMPHHI@afii10083?$AA@ 00518214     sdl_ttf:psmodule.obj
 0006:0001a180       ??_C@_09IFIHMGDJ@afii10082?$AA@ 00518220     sdl_ttf:psmodule.obj
 0006:0001a18c       ??_C@_09KOKKJFPK@afii10081?$AA@ 0051822c     sdl_ttf:psmodule.obj
 0006:0001a198       ??_C@_09LHLBKELL@afii10080?$AA@ 00518238     sdl_ttf:psmodule.obj
 0006:0001a1a4       ??_C@_09GNCPFIMP@afii10079?$AA@ 00518244     sdl_ttf:psmodule.obj
 0006:0001a1b0       ??_C@_09HEDEGJIO@afii10078?$AA@ 00518250     sdl_ttf:psmodule.obj
 0006:0001a1bc       ??_C@_09PDKMHFEB@afii10077?$AA@ 0051825c     sdl_ttf:psmodule.obj
 0006:0001a1c8       ??_C@_09OKLHEEAA@afii10076?$AA@ 00518268     sdl_ttf:psmodule.obj
 0006:0001a1d4       ??_C@_09MBJKBHMD@afii10075?$AA@ 00518274     sdl_ttf:psmodule.obj
 0006:0001a1e0       ??_C@_09NIIBCGIC@afii10074?$AA@ 00518280     sdl_ttf:psmodule.obj
 0006:0001a1ec       ??_C@_09JHMALAEF@afii10073?$AA@ 0051828c     sdl_ttf:psmodule.obj
 0006:0001a1f8       ??_C@_09IONLIBAE@afii10072?$AA@ 00518298     sdl_ttf:psmodule.obj
 0006:0001a204       ??_C@_09KFPGNCMH@afii10071?$AA@ 005182a4     sdl_ttf:psmodule.obj
 0006:0001a210       ??_C@_09LMONODIG@afii10070?$AA@ 005182b0     sdl_ttf:psmodule.obj
 0006:0001a21c       ??_C@_09GMONDCPI@afii10069?$AA@ 005182bc     sdl_ttf:psmodule.obj
 0006:0001a228       ??_C@_09HFPGADLJ@afii10068?$AA@ 005182c8     sdl_ttf:psmodule.obj
 0006:0001a234       ??_C@_09PCGOBPHG@afii10067?$AA@ 005182d4     sdl_ttf:psmodule.obj
 0006:0001a240       ??_C@_09OLHFCODH@afii10066?$AA@ 005182e0     sdl_ttf:psmodule.obj
 0006:0001a24c       ??_C@_09MAFIHNPE@afii10065?$AA@ 005182ec     sdl_ttf:psmodule.obj
 0006:0001a258       ??_C@_09NJEDEMLF@afii10064?$AA@ 005182f8     sdl_ttf:psmodule.obj
 0006:0001a264       ??_C@_09JGACNKHC@afii10063?$AA@ 00518304     sdl_ttf:psmodule.obj
 0006:0001a270       ??_C@_09IPBJOLDD@afii10062?$AA@ 00518310     sdl_ttf:psmodule.obj
 0006:0001a27c       ??_C@_09KEDELIPA@afii10061?$AA@ 0051831c     sdl_ttf:psmodule.obj
 0006:0001a288       ??_C@_09LNCPIJLB@afii10060?$AA@ 00518328     sdl_ttf:psmodule.obj
 0006:0001a294       ??_C@_09GOKLIMKB@afii10059?$AA@ 00518334     sdl_ttf:psmodule.obj
 0006:0001a2a0       ??_C@_09HHLALNOA@afii10058?$AA@ 00518340     sdl_ttf:psmodule.obj
 0006:0001a2ac       ??_C@_09PACIKBCP@afii10057?$AA@ 0051834c     sdl_ttf:psmodule.obj
 0006:0001a2b8       ??_C@_09OJDDJAGO@afii10056?$AA@ 00518358     sdl_ttf:psmodule.obj
 0006:0001a2c4       ??_C@_09MCBOMDKN@afii10055?$AA@ 00518364     sdl_ttf:psmodule.obj
 0006:0001a2d0       ??_C@_09NLAFPCOM@afii10054?$AA@ 00518370     sdl_ttf:psmodule.obj
 0006:0001a2dc       ??_C@_09JEEEGECL@afii10053?$AA@ 0051837c     sdl_ttf:psmodule.obj
 0006:0001a2e8       ??_C@_09INFPFFGK@afii10052?$AA@ 00518388     sdl_ttf:psmodule.obj
 0006:0001a2f4       ??_C@_09KGHCAGKJ@afii10051?$AA@ 00518394     sdl_ttf:psmodule.obj
 0006:0001a300       ??_C@_09LPGJDHOI@afii10050?$AA@ 005183a0     sdl_ttf:psmodule.obj
 0006:0001a30c       ??_C@_09GPGJOGJG@afii10049?$AA@ 005183ac     sdl_ttf:psmodule.obj
 0006:0001a318       ??_C@_09HGHCNHNH@afii10048?$AA@ 005183b8     sdl_ttf:psmodule.obj
 0006:0001a324       ??_C@_09PBOKMLBI@afii10047?$AA@ 005183c4     sdl_ttf:psmodule.obj
 0006:0001a330       ??_C@_09OIPBPKFJ@afii10046?$AA@ 005183d0     sdl_ttf:psmodule.obj
 0006:0001a33c       ??_C@_09MDNMKJJK@afii10045?$AA@ 005183dc     sdl_ttf:psmodule.obj
 0006:0001a348       ??_C@_09NKMHJINL@afii10044?$AA@ 005183e8     sdl_ttf:psmodule.obj
 0006:0001a354       ??_C@_09JFIGAOBM@afii10043?$AA@ 005183f4     sdl_ttf:psmodule.obj
 0006:0001a360       ??_C@_09IMJNDPFN@afii10042?$AA@ 00518400     sdl_ttf:psmodule.obj
 0006:0001a36c       ??_C@_09KHLAGMJO@afii10041?$AA@ 0051840c     sdl_ttf:psmodule.obj
 0006:0001a378       ??_C@_09LOKLFNNP@afii10040?$AA@ 00518418     sdl_ttf:psmodule.obj
 0006:0001a384       ??_C@_09GKCGPABD@afii10039?$AA@ 00518424     sdl_ttf:psmodule.obj
 0006:0001a390       ??_C@_09HDDNMBFC@afii10038?$AA@ 00518430     sdl_ttf:psmodule.obj
 0006:0001a39c       ??_C@_09PEKFNNJN@afii10037?$AA@ 0051843c     sdl_ttf:psmodule.obj
 0006:0001a3a8       ??_C@_09ONLOOMNM@afii10036?$AA@ 00518448     sdl_ttf:psmodule.obj
 0006:0001a3b4       ??_C@_09MGJDLPBP@afii10035?$AA@ 00518454     sdl_ttf:psmodule.obj
 0006:0001a3c0       ??_C@_09NPIIIOFO@afii10034?$AA@ 00518460     sdl_ttf:psmodule.obj
 0006:0001a3cc       ??_C@_09JAMJBIJJ@afii10033?$AA@ 0051846c     sdl_ttf:psmodule.obj
 0006:0001a3d8       ??_C@_09IJNCCJNI@afii10032?$AA@ 00518478     sdl_ttf:psmodule.obj
 0006:0001a3e4       ??_C@_09KCPPHKBL@afii10031?$AA@ 00518484     sdl_ttf:psmodule.obj
 0006:0001a3f0       ??_C@_09LLOEELFK@afii10030?$AA@ 00518490     sdl_ttf:psmodule.obj
 0006:0001a3fc       ??_C@_09GLOEJKCE@afii10029?$AA@ 0051849c     sdl_ttf:psmodule.obj
 0006:0001a408       ??_C@_09HCPPKLGF@afii10028?$AA@ 005184a8     sdl_ttf:psmodule.obj
 0006:0001a414       ??_C@_09PFGHLHKK@afii10027?$AA@ 005184b4     sdl_ttf:psmodule.obj
 0006:0001a420       ??_C@_09OMHMIGOL@afii10026?$AA@ 005184c0     sdl_ttf:psmodule.obj
 0006:0001a42c       ??_C@_09MHFBNFCI@afii10025?$AA@ 005184cc     sdl_ttf:psmodule.obj
 0006:0001a438       ??_C@_09NOEKOEGJ@afii10024?$AA@ 005184d8     sdl_ttf:psmodule.obj
 0006:0001a444       ??_C@_09JBALHCKO@afii10023?$AA@ 005184e4     sdl_ttf:psmodule.obj
 0006:0001a450       ??_C@_09IIBAEDOP@afii10022?$AA@ 005184f0     sdl_ttf:psmodule.obj
 0006:0001a45c       ??_C@_09KDDNBACM@afii10021?$AA@ 005184fc     sdl_ttf:psmodule.obj
 0006:0001a468       ??_C@_09LKCGCBGN@afii10020?$AA@ 00518508     sdl_ttf:psmodule.obj
 0006:0001a474       ??_C@_09GJKCCEHN@afii10019?$AA@ 00518514     sdl_ttf:psmodule.obj
 0006:0001a480       ??_C@_09HALJBFDM@afii10018?$AA@ 00518520     sdl_ttf:psmodule.obj
 0006:0001a48c       ??_C@_09PHCBAJPD@afii10017?$AA@ 0051852c     sdl_ttf:psmodule.obj
 0006:0001a498       ??_C@_09CBJELLHA@afii08941?$AA@ 00518538     sdl_ttf:psmodule.obj
 0006:0001a4a4       ??_C@_09BACOGECF@afii00208?$AA@ 00518544     sdl_ttf:psmodule.obj
 0006:0001a4b0       ??_C@_08EEHNIOAN@aemacron?$AA@ 00518550     sdl_ttf:psmodule.obj
 0006:0001a4bc       ??_C@_08IHHHCGFJ@aekorean?$AA@ 0051855c     sdl_ttf:psmodule.obj
 0006:0001a4c8       ??_C@_07FFLLDNFD@aeacute?$AA@ 00518568     sdl_ttf:psmodule.obj
 0006:0001a4d0       ??_C@_0L@PIHGCMJK@adotmacron?$AA@ 00518570     sdl_ttf:psmodule.obj
 0006:0001a4dc       ??_C@_09HENIBDLL@adotbelow?$AA@ 0051857c     sdl_ttf:psmodule.obj
 0006:0001a4e8       ??_C@_0BA@NFHDHFHK@adieresismacron?$AA@ 00518588     sdl_ttf:psmodule.obj
 0006:0001a4f8       ??_C@_0BC@NOOECPAC@adieresiscyrillic?$AA@ 00518598     sdl_ttf:psmodule.obj
 0006:0001a50c       ??_C@_05MBEFBKBL@adeva?$AA@ 005185ac     sdl_ttf:psmodule.obj
 0006:0001a514       ??_C@_0O@FOBEECHD@addakgurmukhi?$AA@ 005185b4     sdl_ttf:psmodule.obj
 0006:0001a524       ??_C@_09KAIIDOBD@adblgrave?$AA@ 005185c4     sdl_ttf:psmodule.obj
 0006:0001a530       ??_C@_09IEEJEKLB@acyrillic?$AA@ 005185d0     sdl_ttf:psmodule.obj
 0006:0001a53c       ??_C@_0N@BCJOCHCM@acutetonecmb?$AA@ 005185dc     sdl_ttf:psmodule.obj
 0006:0001a54c       ??_C@_0M@KONPDBLF@acutelowmod?$AA@ 005185ec     sdl_ttf:psmodule.obj
 0006:0001a558       ??_C@_09KPMACIDL@acutedeva?$AA@ 005185f8     sdl_ttf:psmodule.obj
 0006:0001a564       ??_C@_09EJADALBN@acutecomb?$AA@ 00518604     sdl_ttf:psmodule.obj
 0006:0001a570       ??_C@_08ENOMJIDD@acutecmb?$AA@ 00518610     sdl_ttf:psmodule.obj
 0006:0001a57c       ??_C@_0O@GDPMOPNB@acutebelowcmb?$AA@ 0051861c     sdl_ttf:psmodule.obj
 0006:0001a58c       ??_C@_0BB@HKBAMNAP@acircumflextilde?$AA@ 0051862c     sdl_ttf:psmodule.obj
 0006:0001a5a0       ??_C@_0BF@FOJJPKLO@acircumflexhookabove?$AA@ 00518640     sdl_ttf:psmodule.obj
 0006:0001a5b8       ??_C@_0BB@FKKLEGK@acircumflexgrave?$AA@ 00518658     sdl_ttf:psmodule.obj
 0006:0001a5cc       ??_C@_0BE@NCHNKPPF@acircumflexdotbelow?$AA@ 0051866c     sdl_ttf:psmodule.obj
 0006:0001a5e0       ??_C@_0BB@FCIMPNOD@acircumflexacute?$AA@ 00518680     sdl_ttf:psmodule.obj
 0006:0001a5f4       ??_C@_07OAPPMOLN@acircle?$AA@ 00518694     sdl_ttf:psmodule.obj
 0006:0001a5fc       ??_C@_06BMKDOGPK@acaron?$AA@ 0051869c     sdl_ttf:psmodule.obj
 0006:0001a604       ??_C@_0M@EKKJLCFL@abrevetilde?$AA@ 005186a4     sdl_ttf:psmodule.obj
 0006:0001a610       ??_C@_0BA@FGIFGIHL@abrevehookabove?$AA@ 005186b0     sdl_ttf:psmodule.obj
 0006:0001a620       ??_C@_0M@DFBDMLDO@abrevegrave?$AA@ 005186c0     sdl_ttf:psmodule.obj
 0006:0001a62c       ??_C@_0P@KDNCEHLI@abrevedotbelow?$AA@ 005186cc     sdl_ttf:psmodule.obj
 0006:0001a63c       ??_C@_0P@FDEDBOLC@abrevecyrillic?$AA@ 005186dc     sdl_ttf:psmodule.obj
 0006:0001a64c       ??_C@_0M@GCDFICLH@abreveacute?$AA@ 005186ec     sdl_ttf:psmodule.obj
 0006:0001a658       ??_C@_06MNHCPGBP@abreve?$AA@ 005186f8     sdl_ttf:psmodule.obj
 0006:0001a660       ??_C@_09OABMBKAF@abopomofo?$AA@ 00518700     sdl_ttf:psmodule.obj
 0006:0001a66c       ??_C@_08HGCKANIJ@abengali?$AA@ 0051870c     sdl_ttf:psmodule.obj
 0006:0001a678       ??_C@_0BF@KPGFLPDH@abbreviationsigndeva?$AA@ 00518718     sdl_ttf:psmodule.obj
 0006:0001a690       ??_C@_0BJ@JMJOEGDD@abbreviationmarkarmenian?$AA@ 00518730     sdl_ttf:psmodule.obj
 0006:0001a6ac       ??_C@_0BE@FCMNCJJG@aavowelsigngujarati?$AA@ 0051874c     sdl_ttf:psmodule.obj
 0006:0001a6c0       ??_C@_0BA@MILJLHKJ@aavowelsigndeva?$AA@ 00518760     sdl_ttf:psmodule.obj
 0006:0001a6d0       ??_C@_0BD@BPFCFLGN@aavowelsignbengali?$AA@ 00518770     sdl_ttf:psmodule.obj
 0006:0001a6e4       ??_C@_0L@OBELNENF@aarusquare?$AA@ 00518784     sdl_ttf:psmodule.obj
 0006:0001a6f0       ??_C@_0BA@BEAMAPDN@aamatragurmukhi?$AA@ 00518790     sdl_ttf:psmodule.obj
 0006:0001a700       ??_C@_0L@HMGJDHB@aagurmukhi?$AA@ 005187a0     sdl_ttf:psmodule.obj
 0006:0001a70c       ??_C@_0L@OMJEOHMD@aagujarati?$AA@ 005187ac     sdl_ttf:psmodule.obj
 0006:0001a718       ??_C@_06MACKCDJH@aadeva?$AA@ 005187b8     sdl_ttf:psmodule.obj
 0006:0001a720       ??_C@_09ENIMBOBP@aabengali?$AA@ 005187c0     sdl_ttf:psmodule.obj
 0006:0001a72c       ??_C@_07KPFHKFCA@Zstroke?$AA@ 005187cc     sdl_ttf:psmodule.obj
 0006:0001a734       ??_C@_0L@LENAGBNO@Zmonospace?$AA@ 005187d4     sdl_ttf:psmodule.obj
 0006:0001a740       ??_C@_0L@GPHGLEIC@Zlinebelow?$AA@ 005187e0     sdl_ttf:psmodule.obj
 0006:0001a74c       ??_C@_0BE@FNIEIAHA@Zhedieresiscyrillic?$AA@ 005187ec     sdl_ttf:psmodule.obj
 0006:0001a760       ??_C@_0BF@ELMNGNJK@Zhedescendercyrillic?$AA@ 00518800     sdl_ttf:psmodule.obj
 0006:0001a778       ??_C@_0M@CJKGIBMC@Zhecyrillic?$AA@ 00518818     sdl_ttf:psmodule.obj
 0006:0001a784       ??_C@_0BB@PFGKLIJD@Zhebrevecyrillic?$AA@ 00518824     sdl_ttf:psmodule.obj
 0006:0001a798       ??_C@_0M@EKMNBFOJ@Zhearmenian?$AA@ 00518838     sdl_ttf:psmodule.obj
 0006:0001a7a4       ??_C@_04GIJIECND@Zeta?$AA@ 00518844     sdl_ttf:psmodule.obj
 0006:0001a7ac       ??_C@_0BD@ELAADCHA@Zedieresiscyrillic?$AA@ 0051884c     sdl_ttf:psmodule.obj
 0006:0001a7c0       ??_C@_0BE@ELNLOJCI@Zedescendercyrillic?$AA@ 00518860     sdl_ttf:psmodule.obj
 0006:0001a7d4       ??_C@_0L@JPLOLGPB@Zecyrillic?$AA@ 00518874     sdl_ttf:psmodule.obj
 0006:0001a7e0       ??_C@_09OEMLGKHE@Zdotbelow?$AA@ 00518880     sdl_ttf:psmodule.obj
 0006:0001a7ec       ??_C@_0L@FHENEHH@Zdotaccent?$AA@ 0051888c     sdl_ttf:psmodule.obj
 0006:0001a7f8       ??_C@_04PHOCIPDD@Zdot?$AA@ 00518898     sdl_ttf:psmodule.obj
 0006:0001a800       ??_C@_0M@PCNBMLBO@Zcircumflex?$AA@ 005188a0     sdl_ttf:psmodule.obj
 0006:0001a80c       ??_C@_07DIFIIBJG@Zcircle?$AA@ 005188ac     sdl_ttf:psmodule.obj
 0006:0001a814       ??_C@_06OPJPEINK@Zacute?$AA@ 005188b4     sdl_ttf:psmodule.obj
 0006:0001a81c       ??_C@_0L@PFDOICKA@Zaarmenian?$AA@ 005188bc     sdl_ttf:psmodule.obj
 0006:0001a828       ??_C@_0BK@OJMFGMCH@Yuslittleiotifiedcyrillic?$AA@ 005188c8     sdl_ttf:psmodule.obj
 0006:0001a844       ??_C@_0BC@CBCFGIHJ@Yuslittlecyrillic?$AA@ 005188e4     sdl_ttf:psmodule.obj
 0006:0001a858       ??_C@_0BH@PIJJNDAG@Yusbigiotifiedcyrillic?$AA@ 005188f8     sdl_ttf:psmodule.obj
 0006:0001a870       ??_C@_0P@MDOHDFHC@Yusbigcyrillic?$AA@ 00518910     sdl_ttf:psmodule.obj
 0006:0001a880       ??_C@_06PGOLGCKL@Ytilde?$AA@ 00518920     sdl_ttf:psmodule.obj
 0006:0001a888       ??_C@_0L@CNDCAHNP@Ymonospace?$AA@ 00518928     sdl_ttf:psmodule.obj
 0006:0001a894       ??_C@_0N@BGCKIHJD@Yiwnarmenian?$AA@ 00518934     sdl_ttf:psmodule.obj
 0006:0001a8a4       ??_C@_0L@BMGADAHO@Yicyrillic?$AA@ 00518944     sdl_ttf:psmodule.obj
 0006:0001a8b0       ??_C@_0L@HPALKEFF@Yiarmenian?$AA@ 00518950     sdl_ttf:psmodule.obj
 0006:0001a8bc       ??_C@_0L@FNPCJJMM@Yhookabove?$AA@ 0051895c     sdl_ttf:psmodule.obj
 0006:0001a8c8       ??_C@_05GKDJOCML@Yhook?$AA@ 00518968     sdl_ttf:psmodule.obj
 0006:0001a8d0       ??_C@_06IJFBBLMO@Ygrave?$AA@ 00518970     sdl_ttf:psmodule.obj
 0006:0001a8d8       ??_C@_0BF@NACJPMOK@Yerudieresiscyrillic?$AA@ 00518978     sdl_ttf:psmodule.obj
 0006:0001a8f0       ??_C@_0N@ODMAOJAC@Yericyrillic?$AA@ 00518990     sdl_ttf:psmodule.obj
 0006:0001a900       ??_C@_09PPMNBHH@Ydotbelow?$AA@ 005189a0     sdl_ttf:psmodule.obj
 0006:0001a90c       ??_C@_0L@JMJGLCHG@Ydotaccent?$AA@ 005189ac     sdl_ttf:psmodule.obj
 0006:0001a918       ??_C@_0M@IFEPBJOO@Ycircumflex?$AA@ 005189b8     sdl_ttf:psmodule.obj
 0006:0001a924       ??_C@_07LGNHIGHF@Ycircle?$AA@ 005189c4     sdl_ttf:psmodule.obj
 0006:0001a92c       ??_C@_0M@ONBJIHGB@Yatcyrillic?$AA@ 005189cc     sdl_ttf:psmodule.obj
 0006:0001a938       ??_C@_0L@OMLMNIBP@Xmonospace?$AA@ 005189d8     sdl_ttf:psmodule.obj
 0006:0001a944       ??_C@_02NGCOIJAL@Xi?$AA@   005189e4     sdl_ttf:psmodule.obj
 0006:0001a948       ??_C@_0M@JIJMENMB@Xeharmenian?$AA@ 005189e8     sdl_ttf:psmodule.obj
 0006:0001a954       ??_C@_0L@FNBIGNLG@Xdotaccent?$AA@ 005189f4     sdl_ttf:psmodule.obj
 0006:0001a960       ??_C@_09IMLFNIFA@Xdieresis?$AA@ 00518a00     sdl_ttf:psmodule.obj
 0006:0001a96c       ??_C@_07HKHNIGOL@Xcircle?$AA@ 00518a0c     sdl_ttf:psmodule.obj
 0006:0001a974       ??_C@_0L@HPEECMNJ@Wmonospace?$AA@ 00518a14     sdl_ttf:psmodule.obj
 0006:0001a980       ??_C@_06NJGOGAJD@Wgrave?$AA@ 00518a20     sdl_ttf:psmodule.obj
 0006:0001a988       ??_C@_09BBDFOBME@Wdotbelow?$AA@ 00518a28     sdl_ttf:psmodule.obj
 0006:0001a994       ??_C@_0L@MOOAJJHA@Wdotaccent?$AA@ 00518a34     sdl_ttf:psmodule.obj
 0006:0001a9a0       ??_C@_09HNLOIDNN@Wdieresis?$AA@ 00518a40     sdl_ttf:psmodule.obj
 0006:0001a9ac       ??_C@_0M@GMHOMKPA@Wcircumflex?$AA@ 00518a4c     sdl_ttf:psmodule.obj
 0006:0001a9b8       ??_C@_07KDFNJEEH@Wcircle?$AA@ 00518a58     sdl_ttf:psmodule.obj
 0006:0001a9c0       ??_C@_06IOEICJBK@Wacute?$AA@ 00518a60     sdl_ttf:psmodule.obj
 0006:0001a9c8       ??_C@_06KDBCEC@Vtilde?$AA@ 00518a68     sdl_ttf:psmodule.obj
 0006:0001a9d0       ??_C@_0L@OBONCANE@Voarmenian?$AA@ 00518a70     sdl_ttf:psmodule.obj
 0006:0001a9dc       ??_C@_0L@LOMKPDBJ@Vmonospace?$AA@ 00518a7c     sdl_ttf:psmodule.obj
 0006:0001a9e8       ??_C@_05JLGPFABO@Vhook?$AA@ 00518a88     sdl_ttf:psmodule.obj
 0006:0001a9f0       ??_C@_0M@KHAIEELK@Vewarmenian?$AA@ 00518a90     sdl_ttf:psmodule.obj
 0006:0001a9fc       ??_C@_0L@JFKECEDG@Vecyrillic?$AA@ 00518a9c     sdl_ttf:psmodule.obj
 0006:0001aa08       ??_C@_09POPHIKPK@Vdotbelow?$AA@ 00518aa8     sdl_ttf:psmodule.obj
 0006:0001aa14       ??_C@_07GPPHJENJ@Vcircle?$AA@ 00518ab4     sdl_ttf:psmodule.obj
 0006:0001aa1c       ??_C@_0M@DCGINIAP@Utildebelow?$AA@ 00518abc     sdl_ttf:psmodule.obj
 0006:0001aa28       ??_C@_0M@HOCKHLFG@Utildeacute?$AA@ 00518ac8     sdl_ttf:psmodule.obj
 0006:0001aa34       ??_C@_06DBELAINP@Utilde?$AA@ 00518ad4     sdl_ttf:psmodule.obj
 0006:0001aa3c       ??_C@_0BI@HNJMBII@Ustraightstrokecyrillic?$AA@ 00518adc     sdl_ttf:psmodule.obj
 0006:0001aa54       ??_C@_0BC@NEBKHPO@Ustraightcyrillic?$AA@ 00518af4     sdl_ttf:psmodule.obj
 0006:0001aa68       ??_C@_0P@PCPPLGND@Ushortcyrillic?$AA@ 00518b08     sdl_ttf:psmodule.obj
 0006:0001aa78       ??_C@_05LPLHNHHE@Uring?$AA@ 00518b18     sdl_ttf:psmodule.obj
 0006:0001aa80       ??_C@_0N@PFPCNJOP@Upsilontonos?$AA@ 00518b20     sdl_ttf:psmodule.obj
 0006:0001aa90       ??_C@_0BC@EPONCACF@Upsilonhooksymbol?$AA@ 00518b30     sdl_ttf:psmodule.obj
 0006:0001aaa4       ??_C@_0BP@MPNCOPND@Upsilondieresishooksymbolgreek?$AA@ 00518b44     sdl_ttf:psmodule.obj
 0006:0001aac4       ??_C@_0BA@KDCJMDIN@Upsilondieresis?$AA@ 00518b64     sdl_ttf:psmodule.obj
 0006:0001aad4       ??_C@_0P@JOAMINNM@Upsilonafrican?$AA@ 00518b74     sdl_ttf:psmodule.obj
 0006:0001aae4       ??_C@_0BM@MDNFKGHI@Upsilonacutehooksymbolgreek?$AA@ 00518b84     sdl_ttf:psmodule.obj
 0006:0001ab00       ??_C@_08MEILHGFN@Upsilon1?$AA@ 00518ba0     sdl_ttf:psmodule.obj
 0006:0001ab0c       ??_C@_07LLOCOFMD@Upsilon?$AA@ 00518bac     sdl_ttf:psmodule.obj
 0006:0001ab14       ??_C@_07OHJKAFNB@Uogonek?$AA@ 00518bb4     sdl_ttf:psmodule.obj
 0006:0001ab1c       ??_C@_0L@CHCIJFBI@Umonospace?$AA@ 00518bbc     sdl_ttf:psmodule.obj
 0006:0001ab28       ??_C@_0BA@EDOPIOML@Umacrondieresis?$AA@ 00518bc8     sdl_ttf:psmodule.obj
 0006:0001ab38       ??_C@_0BA@NPPFLFNI@Umacroncyrillic?$AA@ 00518bd8     sdl_ttf:psmodule.obj
 0006:0001ab48       ??_C@_07JIDIDFA@Umacron?$AA@ 00518be8     sdl_ttf:psmodule.obj
 0006:0001ab50       ??_C@_0L@BCIPHCIE@Ukcyrillic?$AA@ 00518bf0     sdl_ttf:psmodule.obj
 0006:0001ab5c       ??_C@_0P@JDHJIONC@Uinvertedbreve?$AA@ 00518bfc     sdl_ttf:psmodule.obj
 0006:0001ab6c       ??_C@_0BG@HHGIMPDK@Uhungarumlautcyrillic?$AA@ 00518c0c     sdl_ttf:psmodule.obj
 0006:0001ab84       ??_C@_0O@DNAKICEJ@Uhungarumlaut?$AA@ 00518c24     sdl_ttf:psmodule.obj
 0006:0001ab94       ??_C@_0L@MLLCHKJP@Uhorntilde?$AA@ 00518c34     sdl_ttf:psmodule.obj
 0006:0001aba0       ??_C@_0P@DJPKOPO@Uhornhookabove?$AA@ 00518c40     sdl_ttf:psmodule.obj
 0006:0001abb0       ??_C@_0L@LEAIADPK@Uhorngrave?$AA@ 00518c50     sdl_ttf:psmodule.obj
 0006:0001abbc       ??_C@_0O@LMDCONAP@Uhorndotbelow?$AA@ 00518c5c     sdl_ttf:psmodule.obj
 0006:0001abcc       ??_C@_0L@ODCOEKHD@Uhornacute?$AA@ 00518c6c     sdl_ttf:psmodule.obj
 0006:0001abd8       ??_C@_05HEHCOGNG@Uhorn?$AA@ 00518c78     sdl_ttf:psmodule.obj
 0006:0001abe0       ??_C@_0L@FHOIALAL@Uhookabove?$AA@ 00518c80     sdl_ttf:psmodule.obj
 0006:0001abec       ??_C@_09BFMADBPJ@Udotbelow?$AA@ 00518c8c     sdl_ttf:psmodule.obj
 0006:0001abf8       ??_C@_0BA@PAFKHMBO@Udieresismacron?$AA@ 00518c98     sdl_ttf:psmodule.obj
 0006:0001ac08       ??_C@_0P@CONBFACG@Udieresisgrave?$AA@ 00518ca8     sdl_ttf:psmodule.obj
 0006:0001ac18       ??_C@_0BC@KGKJBMCM@Udieresiscyrillic?$AA@ 00518cb8     sdl_ttf:psmodule.obj
 0006:0001ac2c       ??_C@_0P@CAKPEGCH@Udieresiscaron?$AA@ 00518ccc     sdl_ttf:psmodule.obj
 0006:0001ac3c       ??_C@_0P@DFLFLKPG@Udieresisbelow?$AA@ 00518cdc     sdl_ttf:psmodule.obj
 0006:0001ac4c       ??_C@_0P@HJPHBJKP@Udieresisacute?$AA@ 00518cec     sdl_ttf:psmodule.obj
 0006:0001ac5c       ??_C@_09MBJABMFB@Udblgrave?$AA@ 00518cfc     sdl_ttf:psmodule.obj
 0006:0001ac68       ??_C@_09JGLGFFNI@Udblacute?$AA@ 00518d08     sdl_ttf:psmodule.obj
 0006:0001ac74       ??_C@_09OFFBGIPD@Ucyrillic?$AA@ 00518d14     sdl_ttf:psmodule.obj
 0006:0001ac80       ??_C@_0BB@FEDENCPC@Ucircumflexbelow?$AA@ 00518d20     sdl_ttf:psmodule.obj
 0006:0001ac94       ??_C@_07OBHIJDDK@Ucircle?$AA@ 00518d34     sdl_ttf:psmodule.obj
 0006:0001ac9c       ??_C@_06EAIPGHLL@Ucaron?$AA@ 00518d3c     sdl_ttf:psmodule.obj
 0006:0001aca4       ??_C@_06JBFOHHFO@Ubreve?$AA@ 00518d44     sdl_ttf:psmodule.obj
 0006:0001acac       ??_C@_08MLIMNLBI@Tworoman?$AA@ 00518d4c     sdl_ttf:psmodule.obj
 0006:0001acb8       ??_C@_0M@HEMJNNPE@Twelveroman?$AA@ 00518d58     sdl_ttf:psmodule.obj
 0006:0001acc4       ??_C@_0N@BBKMLNKB@Tshecyrillic?$AA@ 00518d64     sdl_ttf:psmodule.obj
 0006:0001acd4       ??_C@_0M@ENEABBFD@Tsecyrillic?$AA@ 00518d74     sdl_ttf:psmodule.obj
 0006:0001ace0       ??_C@_0P@MLNCJDE@Tretroflexhook?$AA@ 00518d80     sdl_ttf:psmodule.obj
 0006:0001acf0       ??_C@_07COFEJMH@Tonetwo?$AA@ 00518d90     sdl_ttf:psmodule.obj
 0006:0001acf8       ??_C@_07IMAJHLJC@Tonesix?$AA@ 00518d98     sdl_ttf:psmodule.obj
 0006:0001ad00       ??_C@_08KEJJFBAJ@Tonefive?$AA@ 00518da0     sdl_ttf:psmodule.obj
 0006:0001ad0c       ??_C@_0L@LJIBJJBF@Toarmenian?$AA@ 00518dac     sdl_ttf:psmodule.obj
 0006:0001ad18       ??_C@_0L@OGKGEKNI@Tmonospace?$AA@ 00518db8     sdl_ttf:psmodule.obj
 0006:0001ad24       ??_C@_0L@DNAAJPIE@Tlinebelow?$AA@ 00518dc4     sdl_ttf:psmodule.obj
 0006:0001ad30       ??_C@_0N@FBAGOHON@Tiwnarmenian?$AA@ 00518dd0     sdl_ttf:psmodule.obj
 0006:0001ad40       ??_C@_0L@CHFAAGEJ@Threeroman?$AA@ 00518de0     sdl_ttf:psmodule.obj
 0006:0001ad4c       ??_C@_05NGKHPBBF@Thook?$AA@ 00518dec     sdl_ttf:psmodule.obj
 0006:0001ad54       ??_C@_05FDIGLFGK@Theta?$AA@ 00518df4     sdl_ttf:psmodule.obj
 0006:0001ad5c       ??_C@_0O@NCGEFIMI@Tetsecyrillic?$AA@ 00518dfc     sdl_ttf:psmodule.obj
 0006:0001ad6c       ??_C@_08FDGFOGPK@Tenroman?$AA@ 00518e0c     sdl_ttf:psmodule.obj
 0006:0001ad78       ??_C@_0BE@FCCDKCEP@Tedescendercyrillic?$AA@ 00518e18     sdl_ttf:psmodule.obj
 0006:0001ad8c       ??_C@_0L@MNMIJNPH@Tecyrillic?$AA@ 00518e2c     sdl_ttf:psmodule.obj
 0006:0001ad98       ??_C@_09PKACFKMH@Tdotbelow?$AA@ 00518e38     sdl_ttf:psmodule.obj
 0006:0001ada4       ??_C@_0L@FHACPPHB@Tdotaccent?$AA@ 00518e44     sdl_ttf:psmodule.obj
 0006:0001adb0       ??_C@_0N@EIPNBLFL@Tcommaaccent?$AA@ 00518e50     sdl_ttf:psmodule.obj
 0006:0001adc0       ??_C@_0BB@NDJCBJLB@Tcircumflexbelow?$AA@ 00518e60     sdl_ttf:psmodule.obj
 0006:0001add4       ??_C@_07CNNCJDKE@Tcircle?$AA@ 00518e74     sdl_ttf:psmodule.obj
 0006:0001addc       ??_C@_08PKDOEHFI@Tcedilla?$AA@ 00518e7c     sdl_ttf:psmodule.obj
 0006:0001ade8       ??_C@_06OGPIGMAP@Tcaron?$AA@ 00518e88     sdl_ttf:psmodule.obj
 0006:0001adf0       ??_C@_04DBHNOEAC@Tbar?$AA@ 00518e90     sdl_ttf:psmodule.obj
 0006:0001adf8       ??_C@_03IBIJJELC@Tau?$AA@  00518e98     sdl_ttf:psmodule.obj
 0006:0001adfc       ??_C@_0M@KAOFJBCK@Stigmagreek?$AA@ 00518e9c     sdl_ttf:psmodule.obj
 0006:0001ae08       ??_C@_0BB@KJCMKNGA@Softsigncyrillic?$AA@ 00518ea8     sdl_ttf:psmodule.obj
 0006:0001ae1c       ??_C@_0L@MPJNFPFL@Smonospace?$AA@ 00518ebc     sdl_ttf:psmodule.obj
 0006:0001ae28       ??_C@_08GEKFDHII@Sixroman?$AA@ 00518ec8     sdl_ttf:psmodule.obj
 0006:0001ae34       ??_C@_05MKBNPMBG@Sigma?$AA@ 00518ed4     sdl_ttf:psmodule.obj
 0006:0001ae3c       ??_C@_0M@OOOCNLEF@Shimacoptic?$AA@ 00518edc     sdl_ttf:psmodule.obj
 0006:0001ae48       ??_C@_0N@BILOFCHB@Shhacyrillic?$AA@ 00518ee8     sdl_ttf:psmodule.obj
 0006:0001ae58       ??_C@_0L@DJOBDKPB@Sheicoptic?$AA@ 00518ef8     sdl_ttf:psmodule.obj
 0006:0001ae64       ??_C@_0O@MDJHFPA@Shchacyrillic?$AA@ 00518f04     sdl_ttf:psmodule.obj
 0006:0001ae74       ??_C@_0M@LNOEBLCJ@Shacyrillic?$AA@ 00518f14     sdl_ttf:psmodule.obj
 0006:0001ae80       ??_C@_0M@NOIPIPAC@Shaarmenian?$AA@ 00518f20     sdl_ttf:psmodule.obj
 0006:0001ae8c       ??_C@_0L@KEHOJNIM@Sevenroman?$AA@ 00518f2c     sdl_ttf:psmodule.obj
 0006:0001ae98       ??_C@_0M@OJAOOJMP@Seharmenian?$AA@ 00518f38     sdl_ttf:psmodule.obj
 0006:0001aea4       ??_C@_0BD@HKPFDOFG@Sdotbelowdotaccent?$AA@ 00518f44     sdl_ttf:psmodule.obj
 0006:0001aeb8       ??_C@_09BINOEBLO@Sdotbelow?$AA@ 00518f58     sdl_ttf:psmodule.obj
 0006:0001aec4       ??_C@_0L@HODJOKPC@Sdotaccent?$AA@ 00518f64     sdl_ttf:psmodule.obj
 0006:0001aed0       ??_C@_0N@DFIOBNAD@Scommaaccent?$AA@ 00518f70     sdl_ttf:psmodule.obj
 0006:0001aee0       ??_C@_0M@GPHIPBIP@Scircumflex?$AA@ 00518f80     sdl_ttf:psmodule.obj
 0006:0001aeec       ??_C@_07CHBHJKLN@Scircle?$AA@ 00518f8c     sdl_ttf:psmodule.obj
 0006:0001aef4       ??_C@_0BG@NDAPHDHB@Schwadieresiscyrillic?$AA@ 00518f94     sdl_ttf:psmodule.obj
 0006:0001af0c       ??_C@_0O@KHGMFOFA@Schwacyrillic?$AA@ 00518fac     sdl_ttf:psmodule.obj
 0006:0001af1c       ??_C@_05MJHPNCEH@Schwa?$AA@ 00518fbc     sdl_ttf:psmodule.obj
 0006:0001af24       ??_C@_08JOFPCKJB@Scedilla?$AA@ 00518fc4     sdl_ttf:psmodule.obj
 0006:0001af30       ??_C@_0BA@DJJFBBLF@Scarondotaccent?$AA@ 00518fd0     sdl_ttf:psmodule.obj
 0006:0001af40       ??_C@_0L@GFNFEPG@Sampigreek?$AA@ 00518fe0     sdl_ttf:psmodule.obj
 0006:0001af4c       ??_C@_0BA@FDKFKMGH@Sacutedotaccent?$AA@ 00518fec     sdl_ttf:psmodule.obj
 0006:0001af5c       ??_C@_06HKAHANAJ@Sacute?$AA@ 00518ffc     sdl_ttf:psmodule.obj
 0006:0001af64       ??_C@_08HCEMABIC@SF540000?$AA@ 00519004     sdl_ttf:psmodule.obj
 0006:0001af70       ??_C@_08GPEJDBDK@SF530000?$AA@ 00519010     sdl_ttf:psmodule.obj
 0006:0001af7c       ??_C@_08KEBFOCJP@SF520000?$AA@ 0051901c     sdl_ttf:psmodule.obj
 0006:0001af88       ??_C@_08CCIBJADB@SF510000?$AA@ 00519028     sdl_ttf:psmodule.obj
 0006:0001af94       ??_C@_08OJNNEDJE@SF500000?$AA@ 00519034     sdl_ttf:psmodule.obj
 0006:0001afa0       ??_C@_08GIKFBJOI@SF490000?$AA@ 00519040     sdl_ttf:psmodule.obj
 0006:0001afac       ??_C@_08KDPJMKEN@SF480000?$AA@ 0051904c     sdl_ttf:psmodule.obj
 0006:0001afb8       ??_C@_08FCKPHIJI@SF470000?$AA@ 00519058     sdl_ttf:psmodule.obj
 0006:0001afc4       ??_C@_08JJPDKLDN@SF460000?$AA@ 00519064     sdl_ttf:psmodule.obj
 0006:0001afd0       ??_C@_08BPGHNJJD@SF450000?$AA@ 00519070     sdl_ttf:psmodule.obj
 0006:0001afdc       ??_C@_08NEDLAKDG@SF440000?$AA@ 0051907c     sdl_ttf:psmodule.obj
 0006:0001afe8       ??_C@_08MJDODKIO@SF430000?$AA@ 00519088     sdl_ttf:psmodule.obj
 0006:0001aff4       ??_C@_08CGCOJCL@SF420000?$AA@ 00519094     sdl_ttf:psmodule.obj
 0006:0001b000       ??_C@_08IEPGJLIF@SF410000?$AA@ 005190a0     sdl_ttf:psmodule.obj
 0006:0001b00c       ??_C@_08EPKKEICA@SF400000?$AA@ 005190ac     sdl_ttf:psmodule.obj
 0006:0001b018       ??_C@_08KNACCHGG@SF390000?$AA@ 005190b8     sdl_ttf:psmodule.obj
 0006:0001b024       ??_C@_08GGFOPEMD@SF380000?$AA@ 005190c4     sdl_ttf:psmodule.obj
 0006:0001b030       ??_C@_08JHAIEGBG@SF370000?$AA@ 005190d0     sdl_ttf:psmodule.obj
 0006:0001b03c       ??_C@_08FMFEJFLD@SF360000?$AA@ 005190dc     sdl_ttf:psmodule.obj
 0006:0001b048       ??_C@_08MACJPPHH@SF280000?$AA@ 005190e8     sdl_ttf:psmodule.obj
 0006:0001b054       ??_C@_08DBHPENKC@SF270000?$AA@ 005190f4     sdl_ttf:psmodule.obj
 0006:0001b060       ??_C@_08PKCDJOAH@SF260000?$AA@ 00519100     sdl_ttf:psmodule.obj
 0006:0001b06c       ??_C@_08HMLHOMKJ@SF250000?$AA@ 0051910c     sdl_ttf:psmodule.obj
 0006:0001b078       ??_C@_08LHOLDPAM@SF240000?$AA@ 00519118     sdl_ttf:psmodule.obj
 0006:0001b084       ??_C@_08KKOOAPLE@SF230000?$AA@ 00519124     sdl_ttf:psmodule.obj
 0006:0001b090       ??_C@_08GBLCNMBB@SF220000?$AA@ 00519130     sdl_ttf:psmodule.obj
 0006:0001b09c       ??_C@_08OHCGKOLP@SF210000?$AA@ 0051913c     sdl_ttf:psmodule.obj
 0006:0001b0a8       ??_C@_08CMHKHNBK@SF200000?$AA@ 00519148     sdl_ttf:psmodule.obj
 0006:0001b0b4       ??_C@_08DKJNDGEP@SF190000?$AA@ 00519154     sdl_ttf:psmodule.obj
 0006:0001b0c0       ??_C@_08NGMOLECC@SF110000?$AA@ 00519160     sdl_ttf:psmodule.obj
 0006:0001b0cc       ??_C@_08BNJCGHIH@SF100000?$AA@ 0051916c     sdl_ttf:psmodule.obj
 0006:0001b0d8       ??_C@_08JMOKDNPL@SF090000?$AA@ 00519178     sdl_ttf:psmodule.obj
 0006:0001b0e4       ??_C@_08FHLGOOFO@SF080000?$AA@ 00519184     sdl_ttf:psmodule.obj
 0006:0001b0f0       ??_C@_08KGOAFMIL@SF070000?$AA@ 00519190     sdl_ttf:psmodule.obj
 0006:0001b0fc       ??_C@_08GNLMIPCO@SF060000?$AA@ 0051919c     sdl_ttf:psmodule.obj
 0006:0001b108       ??_C@_08OLCIPNIA@SF050000?$AA@ 005191a8     sdl_ttf:psmodule.obj
 0006:0001b114       ??_C@_08CAHECOCF@SF040000?$AA@ 005191b4     sdl_ttf:psmodule.obj
 0006:0001b120       ??_C@_08DNHBBOJN@SF030000?$AA@ 005191c0     sdl_ttf:psmodule.obj
 0006:0001b12c       ??_C@_08PGCNMNDI@SF020000?$AA@ 005191cc     sdl_ttf:psmodule.obj
 0006:0001b138       ??_C@_08HALJLPJG@SF010000?$AA@ 005191d8     sdl_ttf:psmodule.obj
 0006:0001b144       ??_C@_0BH@GGJBMPLD@Rsmallinvertedsuperior?$AA@ 005191e4     sdl_ttf:psmodule.obj
 0006:0001b15c       ??_C@_0P@DJOCJIOB@Rsmallinverted?$AA@ 005191fc     sdl_ttf:psmodule.obj
 0006:0001b16c       ??_C@_0L@OBDIAJL@Rmonospace?$AA@ 0051920c     sdl_ttf:psmodule.obj
 0006:0001b178       ??_C@_0L@NFLFFFMH@Rlinebelow?$AA@ 00519218     sdl_ttf:psmodule.obj
 0006:0001b184       ??_C@_0P@IHIIBMI@Rinvertedbreve?$AA@ 00519224     sdl_ttf:psmodule.obj
 0006:0001b194       ??_C@_03BLBOAKDK@Rho?$AA@  00519234     sdl_ttf:psmodule.obj
 0006:0001b198       ??_C@_08KOAFPGDI@Rfraktur?$AA@ 00519238     sdl_ttf:psmodule.obj
 0006:0001b1a4       ??_C@_0M@HCKLKFKA@Reharmenian?$AA@ 00519244     sdl_ttf:psmodule.obj
 0006:0001b1b0       ??_C@_0BA@LBBNPAGL@Rdotbelowmacron?$AA@ 00519250     sdl_ttf:psmodule.obj
 0006:0001b1c0       ??_C@_09PHBMCKIA@Rdotbelow?$AA@ 00519260     sdl_ttf:psmodule.obj
 0006:0001b1cc       ??_C@_0L@LPLHDFDC@Rdotaccent?$AA@ 0051926c     sdl_ttf:psmodule.obj
 0006:0001b1d8       ??_C@_09CDEMAHCI@Rdblgrave?$AA@ 00519278     sdl_ttf:psmodule.obj
 0006:0001b1e4       ??_C@_0N@OIBIMEIG@Rcommaaccent?$AA@ 00519284     sdl_ttf:psmodule.obj
 0006:0001b1f4       ??_C@_07OLLNJKCD@Rcircle?$AA@ 00519294     sdl_ttf:psmodule.obj
 0006:0001b1fc       ??_C@_08IJCEDONC@Rcedilla?$AA@ 0051929c     sdl_ttf:psmodule.obj
 0006:0001b208       ??_C@_06IFCIFJDF@Rcaron?$AA@ 005192a8     sdl_ttf:psmodule.obj
 0006:0001b210       ??_C@_06NMHAAGLN@Racute?$AA@ 005192b0     sdl_ttf:psmodule.obj
 0006:0001b218       ??_C@_0L@EPPNGDOF@Raarmenian?$AA@ 005192b8     sdl_ttf:psmodule.obj
 0006:0001b224       ??_C@_0L@JHPBOGJK@Qmonospace?$AA@ 005192c4     sdl_ttf:psmodule.obj
 0006:0001b230       ??_C@_07GFDCJNMA@Qcircle?$AA@ 005192d0     sdl_ttf:psmodule.obj
 0006:0001b238       ??_C@_0M@FEHKMKKC@Psicyrillic?$AA@ 005192d8     sdl_ttf:psmodule.obj
 0006:0001b244       ??_C@_03PHDOCJKG@Psi?$AA@  005192e4     sdl_ttf:psmodule.obj
 0006:0001b248       ??_C@_0L@FGHPDJFK@Pmonospace?$AA@ 005192e8     sdl_ttf:psmodule.obj
 0006:0001b254       ??_C@_0N@KMCNOMBN@Piwrarmenian?$AA@ 005192f4     sdl_ttf:psmodule.obj
 0006:0001b264       ??_C@_02NIDNNILD@Pi?$AA@   00519304     sdl_ttf:psmodule.obj
 0006:0001b268       ??_C@_05ENDGLDAD@Phook?$AA@ 00519308     sdl_ttf:psmodule.obj
 0006:0001b270       ??_C@_03OHENGFDH@Phi?$AA@  00519310     sdl_ttf:psmodule.obj
 0006:0001b274       ??_C@_0BF@OGDDPGBC@Pemiddlehookcyrillic?$AA@ 00519314     sdl_ttf:psmodule.obj
 0006:0001b28c       ??_C@_0M@JOJADLDP@Peharmenian?$AA@ 0051932c     sdl_ttf:psmodule.obj
 0006:0001b298       ??_C@_0L@HNBBOOHF@Pecyrillic?$AA@ 00519338     sdl_ttf:psmodule.obj
 0006:0001b2a4       ??_C@_0L@OHNLIMPD@Pdotaccent?$AA@ 00519344     sdl_ttf:psmodule.obj
 0006:0001b2b0       ??_C@_07KJJIJNFO@Pcircle?$AA@ 00519350     sdl_ttf:psmodule.obj
 0006:0001b2b8       ??_C@_06ELOPBHJE@Pacute?$AA@ 00519358     sdl_ttf:psmodule.obj
 0006:0001b2c0       ??_C@_0P@MGCCKHC@Otildedieresis?$AA@ 00519360     sdl_ttf:psmodule.obj
 0006:0001b2d0       ??_C@_0M@JIAFHOML@Otildeacute?$AA@ 00519370     sdl_ttf:psmodule.obj
 0006:0001b2dc       ??_C@_0L@IIHDDEKO@Otcyrillic?$AA@ 0051937c     sdl_ttf:psmodule.obj
 0006:0001b2e8       ??_C@_0N@FIJJJFEL@Ostrokeacute?$AA@ 00519388     sdl_ttf:psmodule.obj
 0006:0001b2f8       ??_C@_0M@LBPBBOKJ@Oslashacute?$AA@ 00519398     sdl_ttf:psmodule.obj
 0006:0001b304       ??_C@_05HFAMOJAH@Oopen?$AA@ 005193a4     sdl_ttf:psmodule.obj
 0006:0001b30c       ??_C@_0O@FFMPDPIM@Oogonekmacron?$AA@ 005193ac     sdl_ttf:psmodule.obj
 0006:0001b31c       ??_C@_07KOBCIDC@Oogonek?$AA@ 005193bc     sdl_ttf:psmodule.obj
 0006:0001b324       ??_C@_08CCJNHCPK@Oneroman?$AA@ 005193c4     sdl_ttf:psmodule.obj
 0006:0001b330       ??_C@_0L@GLHBAJFH@Omonospace?$AA@ 005193d0     sdl_ttf:psmodule.obj
 0006:0001b33c       ??_C@_0N@NGGEGAGE@Omicrontonos?$AA@ 005193dc     sdl_ttf:psmodule.obj
 0006:0001b34c       ??_C@_07IKLCMNO@Omicron?$AA@ 005193ec     sdl_ttf:psmodule.obj
 0006:0001b354       ??_C@_0L@DHLIPLB@Omegatonos?$AA@ 005193f4     sdl_ttf:psmodule.obj
 0006:0001b360       ??_C@_0BD@GOEKEKB@Omegatitlocyrillic?$AA@ 00519400     sdl_ttf:psmodule.obj
 0006:0001b374       ??_C@_0BD@GFOKDOJD@Omegaroundcyrillic?$AA@ 00519414     sdl_ttf:psmodule.obj
 0006:0001b388       ??_C@_0L@EGMEDGDJ@Omegagreek?$AA@ 00519428     sdl_ttf:psmodule.obj
 0006:0001b394       ??_C@_0O@CBJEDKIE@Omegacyrillic?$AA@ 00519434     sdl_ttf:psmodule.obj
 0006:0001b3a4       ??_C@_05OMBHNFGL@Omega?$AA@ 00519444     sdl_ttf:psmodule.obj
 0006:0001b3ac       ??_C@_0N@CGJJJPFJ@Omacrongrave?$AA@ 0051944c     sdl_ttf:psmodule.obj
 0006:0001b3bc       ??_C@_0N@HBLPNGNA@Omacronacute?$AA@ 0051945c     sdl_ttf:psmodule.obj
 0006:0001b3cc       ??_C@_07OEPIKOLD@Omacron?$AA@ 0051946c     sdl_ttf:psmodule.obj
 0006:0001b3d4       ??_C@_0P@LABEGMIL@Oinvertedbreve?$AA@ 00519474     sdl_ttf:psmodule.obj
 0006:0001b3e4       ??_C@_02MPEHDMPO@Oi?$AA@   00519484     sdl_ttf:psmodule.obj
 0006:0001b3e8       ??_C@_0O@IJIPGELO@Ohungarumlaut?$AA@ 00519488     sdl_ttf:psmodule.obj
 0006:0001b3f8       ??_C@_0L@IHOLOGNA@Ohorntilde?$AA@ 00519498     sdl_ttf:psmodule.obj
 0006:0001b404       ??_C@_0P@CAPCEMKH@Ohornhookabove?$AA@ 005194a4     sdl_ttf:psmodule.obj
 0006:0001b414       ??_C@_0L@PIFBJPLF@Ohorngrave?$AA@ 005194b4     sdl_ttf:psmodule.obj
 0006:0001b420       ??_C@_0O@ILHALPI@Ohorndotbelow?$AA@ 005194c0     sdl_ttf:psmodule.obj
 0006:0001b430       ??_C@_0L@KPHHNGDM@Ohornacute?$AA@ 005194d0     sdl_ttf:psmodule.obj
 0006:0001b43c       ??_C@_05NGDPMHCL@Ohorn?$AA@ 005194dc     sdl_ttf:psmodule.obj
 0006:0001b444       ??_C@_0L@BLLBJHEE@Ohookabove?$AA@ 005194e4     sdl_ttf:psmodule.obj
 0006:0001b450       ??_C@_03ILFLOHPK@Ohm?$AA@  005194f0     sdl_ttf:psmodule.obj
 0006:0001b454       ??_C@_0L@NGIKMBOD@Oharmenian?$AA@ 005194f4     sdl_ttf:psmodule.obj
 0006:0001b460       ??_C@_09CFEMCANI@Odotbelow?$AA@ 00519500     sdl_ttf:psmodule.obj
 0006:0001b46c       ??_C@_0BC@JKIPIFLL@Odieresiscyrillic?$AA@ 0051950c     sdl_ttf:psmodule.obj
 0006:0001b480       ??_C@_09PBBMANHA@Odblgrave?$AA@ 00519520     sdl_ttf:psmodule.obj
 0006:0001b48c       ??_C@_09KGDKEEPJ@Odblacute?$AA@ 0051952c     sdl_ttf:psmodule.obj
 0006:0001b498       ??_C@_09NFNNHJNC@Ocyrillic?$AA@ 00519538     sdl_ttf:psmodule.obj
 0006:0001b4a4       ??_C@_0BB@BFJHAHGD@Ocircumflextilde?$AA@ 00519544     sdl_ttf:psmodule.obj
 0006:0001b4b8       ??_C@_0BF@BKJONDNG@Ocircumflexhookabove?$AA@ 00519558     sdl_ttf:psmodule.obj
 0006:0001b4d0       ??_C@_0BB@GKCNHOAG@Ocircumflexgrave?$AA@ 00519570     sdl_ttf:psmodule.obj
 0006:0001b4e4       ??_C@_0BE@NBHJLEJJ@Ocircumflexdotbelow?$AA@ 00519584     sdl_ttf:psmodule.obj
 0006:0001b4f8       ??_C@_0BB@DNALDHIP@Ocircumflexacute?$AA@ 00519598     sdl_ttf:psmodule.obj
 0006:0001b50c       ??_C@_07MADLONJ@Ocircle?$AA@ 005195ac     sdl_ttf:psmodule.obj
 0006:0001b514       ??_C@_0P@PGPLBFCA@Ocenteredtilde?$AA@ 005195b4     sdl_ttf:psmodule.obj
 0006:0001b524       ??_C@_06IDCBKEDL@Ocaron?$AA@ 005195c4     sdl_ttf:psmodule.obj
 0006:0001b52c       ??_C@_06FCPALENO@Obreve?$AA@ 005195cc     sdl_ttf:psmodule.obj
 0006:0001b534       ??_C@_0BI@BIEOOIPL@Obarreddieresiscyrillic?$AA@ 005195d4     sdl_ttf:psmodule.obj
 0006:0001b54c       ??_C@_0BA@FPFEFOF@Obarredcyrillic?$AA@ 005195ec     sdl_ttf:psmodule.obj
 0006:0001b55c       ??_C@_02CIPCALJE@Nu?$AA@   005195fc     sdl_ttf:psmodule.obj
 0006:0001b560       ??_C@_0M@EPLDIHDM@Nowarmenian?$AA@ 00519600     sdl_ttf:psmodule.obj
 0006:0001b56c       ??_C@_0L@KKPPNGJH@Nmonospace?$AA@ 0051960c     sdl_ttf:psmodule.obj
 0006:0001b578       ??_C@_0L@HBFJADML@Nlinebelow?$AA@ 00519618     sdl_ttf:psmodule.obj
 0006:0001b584       ??_C@_0M@HONEOOIA@Njecyrillic?$AA@ 00519624     sdl_ttf:psmodule.obj
 0006:0001b590       ??_C@_02OFKIAFAK@Nj?$AA@   00519630     sdl_ttf:psmodule.obj
 0006:0001b594       ??_C@_09FGIGMCBI@Nineroman?$AA@ 00519634     sdl_ttf:psmodule.obj
 0006:0001b5a0       ??_C@_09DKIIGELJ@Nhookleft?$AA@ 00519640     sdl_ttf:psmodule.obj
 0006:0001b5ac       ??_C@_09MKIOELOG@Ndotbelow?$AA@ 0051964c     sdl_ttf:psmodule.obj
 0006:0001b5b8       ??_C@_0L@BLFLGDDO@Ndotaccent?$AA@ 00519658     sdl_ttf:psmodule.obj
 0006:0001b5c4       ??_C@_0N@MGKFNLKH@Ncommaaccent?$AA@ 00519664     sdl_ttf:psmodule.obj
 0006:0001b5d4       ??_C@_0BB@PGOPFPJF@Ncircumflexbelow?$AA@ 00519674     sdl_ttf:psmodule.obj
 0006:0001b5e8       ??_C@_07MAKJLOEH@Ncircle?$AA@ 00519688     sdl_ttf:psmodule.obj
 0006:0001b5f0       ??_C@_08MDNAIPLH@Ncedilla?$AA@ 00519690     sdl_ttf:psmodule.obj
 0006:0001b5fc       ??_C@_06CFFGKPIP@Ncaron?$AA@ 0051969c     sdl_ttf:psmodule.obj
 0006:0001b604       ??_C@_06HMAOPAAH@Nacute?$AA@ 005196a4     sdl_ttf:psmodule.obj
 0006:0001b60c       ??_C@_02HACMCBKI@NJ?$AA@   005196ac     sdl_ttf:psmodule.obj
 0006:0001b610       ??_C@_02CKLELFMN@Mu?$AA@   005196b0     sdl_ttf:psmodule.obj
 0006:0001b614       ??_C@_07HMOLALBH@Mturned?$AA@ 005196b4     sdl_ttf:psmodule.obj
 0006:0001b61c       ??_C@_0L@DDBNLAJG@Mmonospace?$AA@ 005196bc     sdl_ttf:psmodule.obj
 0006:0001b628       ??_C@_0M@BDJKHGK@Menarmenian?$AA@ 005196c8     sdl_ttf:psmodule.obj
 0006:0001b634       ??_C@_09CBLJPAOF@Mdotbelow?$AA@ 005196d4     sdl_ttf:psmodule.obj
 0006:0001b640       ??_C@_0L@ICLJAFDP@Mdotaccent?$AA@ 005196e0     sdl_ttf:psmodule.obj
 0006:0001b64c       ??_C@_07EOCGLJKE@Mcircle?$AA@ 005196ec     sdl_ttf:psmodule.obj
 0006:0001b654       ??_C@_06ENOGOKJK@Macute?$AA@ 005196f4     sdl_ttf:psmodule.obj
 0006:0001b65c       ??_C@_06CDLGEHHJ@Macron?$AA@ 005196fc     sdl_ttf:psmodule.obj
 0006:0001b664       ??_C@_08LNDKACEG@MBsquare?$AA@ 00519704     sdl_ttf:psmodule.obj
 0006:0001b670       ??_C@_0L@PCJDGPFG@Lmonospace?$AA@ 00519710     sdl_ttf:psmodule.obj
 0006:0001b67c       ??_C@_0L@CJDFLKAK@Llinebelow?$AA@ 0051971c     sdl_ttf:psmodule.obj
 0006:0001b688       ??_C@_0M@JCOPHABP@Ljecyrillic?$AA@ 00519728     sdl_ttf:psmodule.obj
 0006:0001b694       ??_C@_02OGCMNBGE@Lj?$AA@   00519734     sdl_ttf:psmodule.obj
 0006:0001b698       ??_C@_0N@LPACJCFK@Liwnarmenian?$AA@ 00519738     sdl_ttf:psmodule.obj
 0006:0001b6a8       ??_C@_0BA@HHLIDIFO@Ldotbelowmacron?$AA@ 00519748     sdl_ttf:psmodule.obj
 0006:0001b6b8       ??_C@_09MOHLJLNL@Ldotbelow?$AA@ 00519758     sdl_ttf:psmodule.obj
 0006:0001b6c4       ??_C@_0L@EDDHNKPP@Ldotaccent?$AA@ 00519764     sdl_ttf:psmodule.obj
 0006:0001b6d0       ??_C@_04BIECONBB@Ldot?$AA@ 00519770     sdl_ttf:psmodule.obj
 0006:0001b6d8       ??_C@_0N@KGPJGOOM@Lcommaaccent?$AA@ 00519778     sdl_ttf:psmodule.obj
 0006:0001b6e8       ??_C@_0BB@CCNDMPFC@Lcircumflexbelow?$AA@ 00519788     sdl_ttf:psmodule.obj
 0006:0001b6fc       ??_C@_07ICIMLJDK@Lcircle?$AA@ 0051979c     sdl_ttf:psmodule.obj
 0006:0001b704       ??_C@_08ONCGKHDB@Lcedilla?$AA@ 005197a4     sdl_ttf:psmodule.obj
 0006:0001b710       ??_C@_06LCMJLOKG@Lcaron?$AA@ 005197b0     sdl_ttf:psmodule.obj
 0006:0001b718       ??_C@_06OBCFFGBN@Lambda?$AA@ 005197b8     sdl_ttf:psmodule.obj
 0006:0001b720       ??_C@_06OLJBOBCO@Lacute?$AA@ 005197c0     sdl_ttf:psmodule.obj
 0006:0001b728       ??_C@_02CFPCFCEA@LL?$AA@   005197c8     sdl_ttf:psmodule.obj
 0006:0001b72c       ??_C@_02HDKIPFMG@LJ?$AA@   005197cc     sdl_ttf:psmodule.obj
 0006:0001b730       ??_C@_0M@CJPAIDFA@Ksicyrillic?$AA@ 005197d0     sdl_ttf:psmodule.obj
 0006:0001b73c       ??_C@_0L@GCMBKKIK@Koppagreek?$AA@ 005197dc     sdl_ttf:psmodule.obj
 0006:0001b748       ??_C@_0O@ELBCELHA@Koppacyrillic?$AA@ 005197e8     sdl_ttf:psmodule.obj
 0006:0001b758       ??_C@_0L@NLKIHKNF@Kmonospace?$AA@ 005197f8     sdl_ttf:psmodule.obj
 0006:0001b764       ??_C@_0L@OKPIJ@Klinebelow?$AA@ 00519804     sdl_ttf:psmodule.obj
 0006:0001b770       ??_C@_0M@OGHHJJJA@Kjecyrillic?$AA@ 00519810     sdl_ttf:psmodule.obj
 0006:0001b77c       ??_C@_05CECHEBFL@Khook?$AA@ 0051981c     sdl_ttf:psmodule.obj
 0006:0001b784       ??_C@_0L@CNNEBPHP@Kheicoptic?$AA@ 00519824     sdl_ttf:psmodule.obj
 0006:0001b790       ??_C@_0M@LHPAIACL@Khacyrillic?$AA@ 00519830     sdl_ttf:psmodule.obj
 0006:0001b79c       ??_C@_0M@OOAEACIK@Kenarmenian?$AA@ 0051983c     sdl_ttf:psmodule.obj
 0006:0001b7a8       ??_C@_0M@ODBKHCMN@Keharmenian?$AA@ 00519848     sdl_ttf:psmodule.obj
 0006:0001b7b4       ??_C@_09CMKHIAKC@Kdotbelow?$AA@ 00519854     sdl_ttf:psmodule.obj
 0006:0001b7c0       ??_C@_0N@NLIKGILE@Kcommaaccent?$AA@ 00519860     sdl_ttf:psmodule.obj
 0006:0001b7d0       ??_C@_07IIEJLACD@Kcircle?$AA@ 00519870     sdl_ttf:psmodule.obj
 0006:0001b7d8       ??_C@_08IJEHMKPI@Kcedilla?$AA@ 00519878     sdl_ttf:psmodule.obj
 0006:0001b7e4       ??_C@_06HHGOIACI@Kcaron?$AA@ 00519884     sdl_ttf:psmodule.obj
 0006:0001b7ec       ??_C@_0BJ@BGDBEINE@Kaverticalstrokecyrillic?$AA@ 0051988c     sdl_ttf:psmodule.obj
 0006:0001b808       ??_C@_0BB@MPFLLJLJ@Kastrokecyrillic?$AA@ 005198a8     sdl_ttf:psmodule.obj
 0006:0001b81c       ??_C@_05MMNIGICE@Kappa?$AA@ 005198bc     sdl_ttf:psmodule.obj
 0006:0001b824       ??_C@_0P@GPPFJKIB@Kahookcyrillic?$AA@ 005198c4     sdl_ttf:psmodule.obj
 0006:0001b834       ??_C@_0BE@CHBCHEKJ@Kadescendercyrillic?$AA@ 005198d4     sdl_ttf:psmodule.obj
 0006:0001b848       ??_C@_0L@PJCNANIA@Kacyrillic?$AA@ 005198e8     sdl_ttf:psmodule.obj
 0006:0001b854       ??_C@_06CODGNPKA@Kacute?$AA@ 005198f4     sdl_ttf:psmodule.obj
 0006:0001b85c       ??_C@_0BC@IKNLIBNL@Kabashkircyrillic?$AA@ 005198fc     sdl_ttf:psmodule.obj
 0006:0001b870       ??_C@_08NBGPGAOH@KKsquare?$AA@ 00519910     sdl_ttf:psmodule.obj
 0006:0001b87c       ??_C@_08MOCAHLMM@KBsquare?$AA@ 0051991c     sdl_ttf:psmodule.obj
 0006:0001b888       ??_C@_0L@BKCGKFBF@Jmonospace?$AA@ 00519928     sdl_ttf:psmodule.obj
 0006:0001b894       ??_C@_0N@HPMGAMKF@Jheharmenian?$AA@ 00519934     sdl_ttf:psmodule.obj
 0006:0001b8a4       ??_C@_0L@DBEIHCDK@Jecyrillic?$AA@ 00519944     sdl_ttf:psmodule.obj
 0006:0001b8b0       ??_C@_0M@POMJCGOC@Jcircumflex?$AA@ 00519950     sdl_ttf:psmodule.obj
 0006:0001b8bc       ??_C@_07EEODLALN@Jcircle?$AA@ 0051995c     sdl_ttf:psmodule.obj
 0006:0001b8c4       ??_C@_0L@FLMIEGGL@Jaarmenian?$AA@ 00519964     sdl_ttf:psmodule.obj
 0006:0001b8d0       ??_C@_0BI@MMNBEMD@Izhitsadblgravecyrillic?$AA@ 00519970     sdl_ttf:psmodule.obj
 0006:0001b8e8       ??_C@_0BA@GPEAPJNM@Izhitsacyrillic?$AA@ 00519988     sdl_ttf:psmodule.obj
 0006:0001b8f8       ??_C@_0M@DLHKHIHC@Itildebelow?$AA@ 00519998     sdl_ttf:psmodule.obj
 0006:0001b904       ??_C@_06JBDFPOGF@Itilde?$AA@ 005199a4     sdl_ttf:psmodule.obj
 0006:0001b90c       ??_C@_07FNGDJDOI@Istroke?$AA@ 005199ac     sdl_ttf:psmodule.obj
 0006:0001b914       ??_C@_09OPGKKEPO@Iotatonos?$AA@ 005199b4     sdl_ttf:psmodule.obj
 0006:0001b920       ??_C@_0N@NKIIBGBN@Iotadieresis?$AA@ 005199c0     sdl_ttf:psmodule.obj
 0006:0001b930       ??_C@_0M@ODGBLJNF@Iotaafrican?$AA@ 005199d0     sdl_ttf:psmodule.obj
 0006:0001b93c       ??_C@_04CAGFEPOF@Iota?$AA@ 005199dc     sdl_ttf:psmodule.obj
 0006:0001b944       ??_C@_07MMIOCBLF@Iogonek?$AA@ 005199e4     sdl_ttf:psmodule.obj
 0006:0001b94c       ??_C@_0L@LPIIIEPC@Iocyrillic?$AA@ 005199ec     sdl_ttf:psmodule.obj
 0006:0001b958       ??_C@_0M@MDMCAACI@Iniarmenian?$AA@ 005199f8     sdl_ttf:psmodule.obj
 0006:0001b964       ??_C@_0L@IDMEMDBE@Imonospace?$AA@ 00519a04     sdl_ttf:psmodule.obj
 0006:0001b970       ??_C@_0BA@JOPAFIIO@Imacroncyrillic?$AA@ 00519a10     sdl_ttf:psmodule.obj
 0006:0001b980       ??_C@_07CCJHKHDE@Imacron?$AA@ 00519a20     sdl_ttf:psmodule.obj
 0006:0001b988       ??_C@_0BA@LDMAAOHA@Iishortcyrillic?$AA@ 00519a28     sdl_ttf:psmodule.obj
 0006:0001b998       ??_C@_0P@JCOOLIHJ@Iinvertedbreve?$AA@ 00519a38     sdl_ttf:psmodule.obj
 0006:0001b9a8       ??_C@_0L@LCJGPELF@Iicyrillic?$AA@ 00519a48     sdl_ttf:psmodule.obj
 0006:0001b9b4       ??_C@_0L@PDAEFNAH@Ihookabove?$AA@ 00519a54     sdl_ttf:psmodule.obj
 0006:0001b9c0       ??_C@_08IAJACKJE@Ifraktur?$AA@ 00519a60     sdl_ttf:psmodule.obj
 0006:0001b9cc       ??_C@_0L@KIKKBEDL@Iecyrillic?$AA@ 00519a6c     sdl_ttf:psmodule.obj
 0006:0001b9d8       ??_C@_0BA@BBFCMLEH@Iebrevecyrillic?$AA@ 00519a78     sdl_ttf:psmodule.obj
 0006:0001b9e8       ??_C@_09CIFCFAJP@Idotbelow?$AA@ 00519a88     sdl_ttf:psmodule.obj
 0006:0001b9f4       ??_C@_0L@DCGAHGLN@Idotaccent?$AA@ 00519a94     sdl_ttf:psmodule.obj
 0006:0001ba00       ??_C@_04NAKCGCGB@Idot?$AA@ 00519aa0     sdl_ttf:psmodule.obj
 0006:0001ba08       ??_C@_0BC@JEPDDJDO@Idieresiscyrillic?$AA@ 00519aa8     sdl_ttf:psmodule.obj
 0006:0001ba1c       ??_C@_0P@HIGACPAE@Idieresisacute?$AA@ 00519abc     sdl_ttf:psmodule.obj
 0006:0001ba2c       ??_C@_09PMACHNDH@Idblgrave?$AA@ 00519acc     sdl_ttf:psmodule.obj
 0006:0001ba38       ??_C@_09NIMDAJJF@Icyrillic?$AA@ 00519ad8     sdl_ttf:psmodule.obj
 0006:0001ba44       ??_C@_07MKGMLHFO@Icircle?$AA@ 00519ae4     sdl_ttf:psmodule.obj
 0006:0001ba4c       ??_C@_06OAPBJBAB@Icaron?$AA@ 00519aec     sdl_ttf:psmodule.obj
 0006:0001ba54       ??_C@_06DBCAIBOE@Ibreve?$AA@ 00519af4     sdl_ttf:psmodule.obj
 0006:0001ba5c       ??_C@_0L@MAFJJGAD@IUcyrillic?$AA@ 00519afc     sdl_ttf:psmodule.obj
 0006:0001ba68       ??_C@_02HFGDDHCN@IJ?$AA@   00519b08     sdl_ttf:psmodule.obj
 0006:0001ba6c       ??_C@_0L@OOBMLHJB@IAcyrillic?$AA@ 00519b0c     sdl_ttf:psmodule.obj
 0006:0001ba78       ??_C@_08KBIFAPMB@Hzsquare?$AA@ 00519b18     sdl_ttf:psmodule.obj
 0006:0001ba84       ??_C@_0N@PDBDFDAJ@Hungarumlaut?$AA@ 00519b24     sdl_ttf:psmodule.obj
 0006:0001ba94       ??_C@_0L@JOELENLP@Horicoptic?$AA@ 00519b34     sdl_ttf:psmodule.obj
 0006:0001baa0       ??_C@_0L@BNGNMPBJ@Hoarmenian?$AA@ 00519b40     sdl_ttf:psmodule.obj
 0006:0001baac       ??_C@_0L@ECEKBMNE@Hmonospace?$AA@ 00519b4c     sdl_ttf:psmodule.obj
 0006:0001bab8       ??_C@_09MHJADLKB@Hdotbelow?$AA@ 00519b58     sdl_ttf:psmodule.obj
 0006:0001bac4       ??_C@_0L@PDOOKJHN@Hdotaccent?$AA@ 00519b64     sdl_ttf:psmodule.obj
 0006:0001bad0       ??_C@_09KLBLFJLI@Hdieresis?$AA@ 00519b70     sdl_ttf:psmodule.obj
 0006:0001badc       ??_C@_0M@BCPCLIHN@Hcircumflex?$AA@ 00519b7c     sdl_ttf:psmodule.obj
 0006:0001bae8       ??_C@_07GMGLHMA@Hcircle?$AA@ 00519b88     sdl_ttf:psmodule.obj
 0006:0001baf0       ??_C@_08LAMKPGDN@Hcedilla?$AA@ 00519b90     sdl_ttf:psmodule.obj
 0006:0001bafc       ??_C@_0M@KLOPMAIH@Hbrevebelow?$AA@ 00519b9c     sdl_ttf:psmodule.obj
 0006:0001bb08       ??_C@_04JEGNJOIB@Hbar?$AA@ 00519ba8     sdl_ttf:psmodule.obj
 0006:0001bb10       ??_C@_0BB@IDNJBAOM@Hardsigncyrillic?$AA@ 00519bb0     sdl_ttf:psmodule.obj
 0006:0001bb24       ??_C@_0BE@IILLDJGD@Hadescendercyrillic?$AA@ 00519bc4     sdl_ttf:psmodule.obj
 0006:0001bb38       ??_C@_0BE@POHAHJFF@Haabkhasiancyrillic?$AA@ 00519bd8     sdl_ttf:psmodule.obj
 0006:0001bb4c       ??_C@_08MJDDHBFP@HPsquare?$AA@ 00519bec     sdl_ttf:psmodule.obj
 0006:0001bb58       ??_C@_06KCEADIFL@H22073?$AA@ 00519bf8     sdl_ttf:psmodule.obj
 0006:0001bb60       ??_C@_06GIAIBEIK@H18551?$AA@ 00519c00     sdl_ttf:psmodule.obj
 0006:0001bb68       ??_C@_06FLPMBMDP@H18543?$AA@ 00519c08     sdl_ttf:psmodule.obj
 0006:0001bb70       ??_C@_06FOLDAKLK@H18533?$AA@ 00519c10     sdl_ttf:psmodule.obj
 0006:0001bb78       ??_C@_07EIOJIBNK@Gstroke?$AA@ 00519c18     sdl_ttf:psmodule.obj
 0006:0001bb80       ??_C@_0L@PLLNLGCK@Gsmallhook?$AA@ 00519c20     sdl_ttf:psmodule.obj
 0006:0001bb8c       ??_C@_05BEBOMMEB@Grave?$AA@ 00519c2c     sdl_ttf:psmodule.obj
 0006:0001bb94       ??_C@_0L@NBLCOIBC@Gmonospace?$AA@ 00519c34     sdl_ttf:psmodule.obj
 0006:0001bba0       ??_C@_07DHBNLFAG@Gmacron?$AA@ 00519c40     sdl_ttf:psmodule.obj
 0006:0001bba8       ??_C@_0M@ODHNNEBB@Gjecyrillic?$AA@ 00519c48     sdl_ttf:psmodule.obj
 0006:0001bbb4       ??_C@_0M@KCDGGMP@Gimarmenian?$AA@ 00519c54     sdl_ttf:psmodule.obj
 0006:0001bbc0       ??_C@_05FDOFIBCA@Ghook?$AA@ 00519c60     sdl_ttf:psmodule.obj
 0006:0001bbc8       ??_C@_0BC@MDMDFIKE@Gheupturncyrillic?$AA@ 00519c68     sdl_ttf:psmodule.obj
 0006:0001bbdc       ??_C@_0BC@JDAENILE@Ghestrokecyrillic?$AA@ 00519c7c     sdl_ttf:psmodule.obj
 0006:0001bbf0       ??_C@_0BG@FJFHKBLM@Ghemiddlehookcyrillic?$AA@ 00519c90     sdl_ttf:psmodule.obj
 0006:0001bc08       ??_C@_0N@JCAPPPNH@Ghadarmenian?$AA@ 00519ca8     sdl_ttf:psmodule.obj
 0006:0001bc18       ??_C@_0L@PKNMDPDN@Gecyrillic?$AA@ 00519cb8     sdl_ttf:psmodule.obj
 0006:0001bc24       ??_C@_0L@GABGFNLL@Gdotaccent?$AA@ 00519cc4     sdl_ttf:psmodule.obj
 0006:0001bc30       ??_C@_04GPJCNMAA@Gdot?$AA@ 00519cd0     sdl_ttf:psmodule.obj
 0006:0001bc38       ??_C@_0N@EBDANBEP@Gcommaaccent?$AA@ 00519cd8     sdl_ttf:psmodule.obj
 0006:0001bc48       ??_C@_0M@GAGGCHAM@Gcircumflex?$AA@ 00519ce8     sdl_ttf:psmodule.obj
 0006:0001bc54       ??_C@_07NPOGKFGM@Gcircle?$AA@ 00519cf4     sdl_ttf:psmodule.obj
 0006:0001bc5c       ??_C@_08GPHDDJOM@Gcedilla?$AA@ 00519cfc     sdl_ttf:psmodule.obj
 0006:0001bc68       ??_C@_06LAMOOKFM@Gcaron?$AA@ 00519d08     sdl_ttf:psmodule.obj
 0006:0001bc70       ??_C@_06GBBPPKLJ@Gbreve?$AA@ 00519d10     sdl_ttf:psmodule.obj
 0006:0001bc78       ??_C@_0N@JDPMPDM@Gangiacoptic?$AA@ 00519d18     sdl_ttf:psmodule.obj
 0006:0001bc88       ??_C@_0N@MKNEBACO@Gammaafrican?$AA@ 00519d28     sdl_ttf:psmodule.obj
 0006:0001bc98       ??_C@_05NJHBHDO@Gamma?$AA@ 00519d38     sdl_ttf:psmodule.obj
 0006:0001bca0       ??_C@_06OJJGLFNE@Gacute?$AA@ 00519d40     sdl_ttf:psmodule.obj
 0006:0001bca8       ??_C@_08CIBEIINI@GBsquare?$AA@ 00519d48     sdl_ttf:psmodule.obj
 0006:0001bcb4       ??_C@_09LFODHEFL@Fourroman?$AA@ 00519d54     sdl_ttf:psmodule.obj
 0006:0001bcc0       ??_C@_0L@BADMDHNC@Fmonospace?$AA@ 00519d60     sdl_ttf:psmodule.obj
 0006:0001bccc       ??_C@_09OKAPKIHC@Fiveroman?$AA@ 00519d6c     sdl_ttf:psmodule.obj
 0006:0001bcd8       ??_C@_0N@IONPFNNL@Fitacyrillic?$AA@ 00519d78     sdl_ttf:psmodule.obj
 0006:0001bce8       ??_C@_05JILJFCIF@Fhook?$AA@ 00519d88     sdl_ttf:psmodule.obj
 0006:0001bcf0       ??_C@_09BCEGLCN@Feicoptic?$AA@ 00519d90     sdl_ttf:psmodule.obj
 0006:0001bcfc       ??_C@_0M@HNLFHDCD@Feharmenian?$AA@ 00519d9c     sdl_ttf:psmodule.obj
 0006:0001bd08       ??_C@_0L@KBJIICHL@Fdotaccent?$AA@ 00519da8     sdl_ttf:psmodule.obj
 0006:0001bd14       ??_C@_07BDEMKFPC@Fcircle?$AA@ 00519db4     sdl_ttf:psmodule.obj
 0006:0001bd1c       ??_C@_0M@NGJNJCEC@Ezhreversed?$AA@ 00519dbc     sdl_ttf:psmodule.obj
 0006:0001bd28       ??_C@_08FLMLKDOJ@Ezhcaron?$AA@ 00519dc8     sdl_ttf:psmodule.obj
 0006:0001bd34       ??_C@_03IGDDIEMF@Ezh?$AA@  00519dd4     sdl_ttf:psmodule.obj
 0006:0001bd38       ??_C@_04EADPEECD@Euro?$AA@ 00519dd8     sdl_ttf:psmodule.obj
 0006:0001bd40       ??_C@_0M@DOHADFPD@Etildebelow?$AA@ 00519de0     sdl_ttf:psmodule.obj
 0006:0001bd4c       ??_C@_06FGJFJEBB@Etilde?$AA@ 00519dec     sdl_ttf:psmodule.obj
 0006:0001bd54       ??_C@_08JPJJPMHB@Etatonos?$AA@ 00519df4     sdl_ttf:psmodule.obj
 0006:0001bd60       ??_C@_0L@JLHPIAB@Etarmenian?$AA@ 00519e00     sdl_ttf:psmodule.obj
 0006:0001bd6c       ??_C@_03FNGPBCIG@Eta?$AA@  00519e0c     sdl_ttf:psmodule.obj
 0006:0001bd70       ??_C@_03IJOCLPEK@Esh?$AA@  00519e10     sdl_ttf:psmodule.obj
 0006:0001bd74       ??_C@_0BE@FJBMACDF@Esdescendercyrillic?$AA@ 00519e14     sdl_ttf:psmodule.obj
 0006:0001bd88       ??_C@_0L@IIAAHHFD@Escyrillic?$AA@ 00519e28     sdl_ttf:psmodule.obj
 0006:0001bd94       ??_C@_0BC@MPDBHGMH@Ereversedcyrillic?$AA@ 00519e34     sdl_ttf:psmodule.obj
 0006:0001bda8       ??_C@_09EACMHOKM@Ereversed?$AA@ 00519e48     sdl_ttf:psmodule.obj
 0006:0001bdb4       ??_C@_0L@GHMCBMGN@Ercyrillic?$AA@ 00519e54     sdl_ttf:psmodule.obj
 0006:0001bdc0       ??_C@_0N@EBPFHPDF@Epsilontonos?$AA@ 00519e60     sdl_ttf:psmodule.obj
 0006:0001bdd0       ??_C@_07MHFJNEOI@Epsilon?$AA@ 00519e70     sdl_ttf:psmodule.obj
 0006:0001bdd8       ??_C@_05NEJHMKGB@Eopen?$AA@ 00519e78     sdl_ttf:psmodule.obj
 0006:0001bde0       ??_C@_07JLCBDEPK@Eogonek?$AA@ 00519e80     sdl_ttf:psmodule.obj
 0006:0001bde8       ??_C@_0P@NEBCDGAC@Enhookcyrillic?$AA@ 00519e88     sdl_ttf:psmodule.obj
 0006:0001bdf8       ??_C@_0O@DIEBEGPC@Enghecyrillic?$AA@ 00519e98     sdl_ttf:psmodule.obj
 0006:0001be08       ??_C@_03BKIEJDKG@Eng?$AA@  00519ea8     sdl_ttf:psmodule.obj
 0006:0001be0c       ??_C@_0BE@HNHFKJAA@Endescendercyrillic?$AA@ 00519eac     sdl_ttf:psmodule.obj
 0006:0001be20       ??_C@_0L@FKFAHNAL@Encyrillic?$AA@ 00519ec0     sdl_ttf:psmodule.obj
 0006:0001be2c       ??_C@_0L@IJNOFBND@Emonospace?$AA@ 00519ecc     sdl_ttf:psmodule.obj
 0006:0001be38       ??_C@_0L@LBGHMGAI@Emcyrillic?$AA@ 00519ed8     sdl_ttf:psmodule.obj
 0006:0001be44       ??_C@_0N@BMMGPJHP@Emacrongrave?$AA@ 00519ee4     sdl_ttf:psmodule.obj
 0006:0001be54       ??_C@_0N@ELOALAPG@Emacronacute?$AA@ 00519ef4     sdl_ttf:psmodule.obj
 0006:0001be64       ??_C@_07HFDILCHL@Emacron?$AA@ 00519f04     sdl_ttf:psmodule.obj
 0006:0001be6c       ??_C@_0M@KHHOJFDF@Elevenroman?$AA@ 00519f0c     sdl_ttf:psmodule.obj
 0006:0001be78       ??_C@_0L@FOKFKNDG@Elcyrillic?$AA@ 00519f18     sdl_ttf:psmodule.obj
 0006:0001be84       ??_C@_0BC@IJLLKIOB@Eiotifiedcyrillic?$AA@ 00519f24     sdl_ttf:psmodule.obj
 0006:0001be98       ??_C@_0P@NHBLBBJN@Einvertedbreve?$AA@ 00519f38     sdl_ttf:psmodule.obj
 0006:0001bea8       ??_C@_0L@BLBBPDOJ@Eightroman?$AA@ 00519f48     sdl_ttf:psmodule.obj
 0006:0001beb4       ??_C@_0L@PJBOMPMA@Ehookabove?$AA@ 00519f54     sdl_ttf:psmodule.obj
 0006:0001bec0       ??_C@_0L@DECFJJGH@Eharmenian?$AA@ 00519f60     sdl_ttf:psmodule.obj
 0006:0001becc       ??_C@_0L@EJIHDNPP@Efcyrillic?$AA@ 00519f6c     sdl_ttf:psmodule.obj
 0006:0001bed8       ??_C@_09DCGOLABB@Edotbelow?$AA@ 00519f78     sdl_ttf:psmodule.obj
 0006:0001bee4       ??_C@_0L@DIHKOEHK@Edotaccent?$AA@ 00519f84     sdl_ttf:psmodule.obj
 0006:0001bef0       ??_C@_04BFFCIPGA@Edot?$AA@ 00519f90     sdl_ttf:psmodule.obj
 0006:0001bef8       ??_C@_09OGDOJNLJ@Edblgrave?$AA@ 00519f98     sdl_ttf:psmodule.obj
 0006:0001bf04       ??_C@_09MCPPOJBL@Ecyrillic?$AA@ 00519fa4     sdl_ttf:psmodule.obj
 0006:0001bf10       ??_C@_0BB@CHLLNIDK@Ecircumflextilde?$AA@ 00519fb0     sdl_ttf:psmodule.obj
 0006:0001bf24       ??_C@_0BF@NLKINLNN@Ecircumflexhookabove?$AA@ 00519fc4     sdl_ttf:psmodule.obj
 0006:0001bf3c       ??_C@_0BB@FIABKBFP@Ecircumflexgrave?$AA@ 00519fdc     sdl_ttf:psmodule.obj
 0006:0001bf50       ??_C@_0BE@IGGMBEKH@Ecircumflexdotbelow?$AA@ 00519ff0     sdl_ttf:psmodule.obj
 0006:0001bf64       ??_C@_0BB@EDGFELIP@Ecircumflexbelow?$AA@ 0051a004     sdl_ttf:psmodule.obj
 0006:0001bf78       ??_C@_0BB@PCHOING@Ecircumflexacute?$AA@ 0051a018     sdl_ttf:psmodule.obj
 0006:0001bf8c       ??_C@_07JNMDKCBB@Ecircle?$AA@ 0051a02c     sdl_ttf:psmodule.obj
 0006:0001bf94       ??_C@_0M@OCJOGLJA@Echarmenian?$AA@ 0051a034     sdl_ttf:psmodule.obj
 0006:0001bfa0       ??_C@_0O@LHJLGJPG@Ecedillabreve?$AA@ 0051a040     sdl_ttf:psmodule.obj
 0006:0001bfb0       ??_C@_06CHFBPLHF@Ecaron?$AA@ 0051a050     sdl_ttf:psmodule.obj
 0006:0001bfb8       ??_C@_06PGIAOLJA@Ebreve?$AA@ 0051a058     sdl_ttf:psmodule.obj
 0006:0001bfc0       ??_C@_0N@DIACCBOK@Dzhecyrillic?$AA@ 0051a060     sdl_ttf:psmodule.obj
 0006:0001bfd0       ??_C@_0M@DKBFMCCK@Dzecyrillic?$AA@ 0051a070     sdl_ttf:psmodule.obj
 0006:0001bfdc       ??_C@_0BF@IPCFOOFJ@Dzeabkhasiancyrillic?$AA@ 0051a07c     sdl_ttf:psmodule.obj
 0006:0001bff4       ??_C@_07CMODOCMO@Dzcaron?$AA@ 0051a094     sdl_ttf:psmodule.obj
 0006:0001bffc       ??_C@_02KCPNJCIN@Dz?$AA@   0051a09c     sdl_ttf:psmodule.obj
 0006:0001c000       ??_C@_07OKGOMABC@Dtopbar?$AA@ 0051a0a0     sdl_ttf:psmodule.obj
 0006:0001c008       ??_C@_06HLKKDDAI@Dslash?$AA@ 0051a0a8     sdl_ttf:psmodule.obj
 0006:0001c010       ??_C@_0L@EIFAIOBD@Dmonospace?$AA@ 0051a0b0     sdl_ttf:psmodule.obj
 0006:0001c01c       ??_C@_0L@JDPGFLEP@Dlinebelow?$AA@ 0051a0bc     sdl_ttf:psmodule.obj
 0006:0001c028       ??_C@_0M@JEODAGOB@Djecyrillic?$AA@ 0051a0c8     sdl_ttf:psmodule.obj
 0006:0001c034       ??_C@_0N@OGIDFMDP@Digammagreek?$AA@ 0051a0d4     sdl_ttf:psmodule.obj
 0006:0001c044       ??_C@_0O@FPGPANFB@DieresisGrave?$AA@ 0051a0e4     sdl_ttf:psmodule.obj
 0006:0001c054       ??_C@_0O@IEJEENI@DieresisAcute?$AA@ 0051a0f4     sdl_ttf:psmodule.obj
 0006:0001c064       ??_C@_08KBAEOAJH@Dieresis?$AA@ 0051a104     sdl_ttf:psmodule.obj
 0006:0001c070       ??_C@_05NFHBPDIO@Dhook?$AA@ 0051a110     sdl_ttf:psmodule.obj
 0006:0001c078       ??_C@_0L@CIKFHBBK@Deltagreek?$AA@ 0051a118     sdl_ttf:psmodule.obj
 0006:0001c084       ??_C@_05NFMIDMMK@Delta?$AA@ 0051a124     sdl_ttf:psmodule.obj
 0006:0001c08c       ??_C@_09FNBLLBA@Deicoptic?$AA@ 0051a12c     sdl_ttf:psmodule.obj
 0006:0001c098       ??_C@_0L@GDDOFJDM@Decyrillic?$AA@ 0051a138     sdl_ttf:psmodule.obj
 0006:0001c0a4       ??_C@_09NNKMNLCP@Ddotbelow?$AA@ 0051a144     sdl_ttf:psmodule.obj
 0006:0001c0b0       ??_C@_0L@PJPEDLLK@Ddotaccent?$AA@ 0051a150     sdl_ttf:psmodule.obj
 0006:0001c0bc       ??_C@_06LOKGEFAA@Dcroat?$AA@ 0051a15c     sdl_ttf:psmodule.obj
 0006:0001c0c4       ??_C@_0BB@MEMDIAMM@Dcircumflexbelow?$AA@ 0051a164     sdl_ttf:psmodule.obj
 0006:0001c0d8       ??_C@_07FBGJKCIP@Dcircle?$AA@ 0051a178     sdl_ttf:psmodule.obj
 0006:0001c0e0       ??_C@_08FGPOAFCJ@Dcedilla?$AA@ 0051a180     sdl_ttf:psmodule.obj
 0006:0001c0ec       ??_C@_06IBCGPAMB@Dcaron?$AA@ 0051a18c     sdl_ttf:psmodule.obj
 0006:0001c0f4       ??_C@_08CHJPGGIF@Dafrican?$AA@ 0051a194     sdl_ttf:psmodule.obj
 0006:0001c100       ??_C@_0L@JLOGNGN@Daarmenian?$AA@ 0051a1a0     sdl_ttf:psmodule.obj
 0006:0001c10c       ??_C@_07ODFONLFC@DZcaron?$AA@ 0051a1ac     sdl_ttf:psmodule.obj
 0006:0001c114       ??_C@_02DHHJLGCP@DZ?$AA@   0051a1b4     sdl_ttf:psmodule.obj
 0006:0001c118       ??_C@_0L@DOEMEIFN@Coarmenian?$AA@ 0051a1b8     sdl_ttf:psmodule.obj
 0006:0001c124       ??_C@_0L@GBGLJLJA@Cmonospace?$AA@ 0051a1c4     sdl_ttf:psmodule.obj
 0006:0001c130       ??_C@_05MIHEMDDG@Chook?$AA@ 0051a1d0     sdl_ttf:psmodule.obj
 0006:0001c138       ??_C@_03KFOBJNEG@Chi?$AA@  0051a1d8     sdl_ttf:psmodule.obj
 0006:0001c13c       ??_C@_0BK@IKFKBEGC@Cheverticalstrokecyrillic?$AA@ 0051a1dc     sdl_ttf:psmodule.obj
 0006:0001c158       ??_C@_0BG@GHOOFNPF@Chekhakassiancyrillic?$AA@ 0051a1f8     sdl_ttf:psmodule.obj
 0006:0001c170       ??_C@_0N@PIFDAGEN@Cheharmenian?$AA@ 0051a210     sdl_ttf:psmodule.obj
 0006:0001c180       ??_C@_0BE@EFPOMGKB@Chedieresiscyrillic?$AA@ 0051a220     sdl_ttf:psmodule.obj
 0006:0001c194       ??_C@_0BF@LKABPFJO@Chedescendercyrillic?$AA@ 0051a234     sdl_ttf:psmodule.obj
 0006:0001c1ac       ??_C@_0BO@JIIEIJKJ@Chedescenderabkhasiancyrillic?$AA@ 0051a24c     sdl_ttf:psmodule.obj
 0006:0001c1cc       ??_C@_0M@LIBHFGKP@Checyrillic?$AA@ 0051a26c     sdl_ttf:psmodule.obj
 0006:0001c1d8       ??_C@_0BF@MMMKLFKI@Cheabkhasiancyrillic?$AA@ 0051a278     sdl_ttf:psmodule.obj
 0006:0001c1f0       ??_C@_0M@NCJHGCPO@Chaarmenian?$AA@ 0051a290     sdl_ttf:psmodule.obj
 0006:0001c1fc       ??_C@_0L@NAMPCODJ@Cdotaccent?$AA@ 0051a29c     sdl_ttf:psmodule.obj
 0006:0001c208       ??_C@_04JKBCHKMA@Cdot?$AA@ 0051a2a8     sdl_ttf:psmodule.obj
 0006:0001c210       ??_C@_0M@GDGABMHD@Ccircumflex?$AA@ 0051a2b0     sdl_ttf:psmodule.obj
 0006:0001c21c       ??_C@_07FLKMKLJG@Ccircle?$AA@ 0051a2bc     sdl_ttf:psmodule.obj
 0006:0001c224       ??_C@_0O@MHNAGNCN@Ccedillaacute?$AA@ 0051a2c4     sdl_ttf:psmodule.obj
 0006:0001c234       ??_C@_06EEIBMOEP@Ccaron?$AA@ 0051a2d4     sdl_ttf:psmodule.obj
 0006:0001c23c       ??_C@_05BKGANKEA@Caron?$AA@ 0051a2dc     sdl_ttf:psmodule.obj
 0006:0001c244       ??_C@_06BNNJJBMH@Cacute?$AA@ 0051a2e4     sdl_ttf:psmodule.obj
 0006:0001c24c       ??_C@_0L@CAIFHIOO@Caarmenian?$AA@ 0051a2ec     sdl_ttf:psmodule.obj
 0006:0001c258       ??_C@_07CMABMJJF@Btopbar?$AA@ 0051a2f8     sdl_ttf:psmodule.obj
 0006:0001c260       ??_C@_0L@KAOFEEFA@Bmonospace?$AA@ 0051a300     sdl_ttf:psmodule.obj
 0006:0001c26c       ??_C@_0L@HLEDJBAM@Blinebelow?$AA@ 0051a30c     sdl_ttf:psmodule.obj
 0006:0001c278       ??_C@_05DCIBAJD@Bhook?$AA@ 0051a318     sdl_ttf:psmodule.obj
 0006:0001c280       ??_C@_04DIAIJOJA@Beta?$AA@ 0051a320     sdl_ttf:psmodule.obj
 0006:0001c288       ??_C@_0M@HDKNDIBL@Benarmenian?$AA@ 0051a328     sdl_ttf:psmodule.obj
 0006:0001c294       ??_C@_0L@ILILJDHP@Becyrillic?$AA@ 0051a334     sdl_ttf:psmodule.obj
 0006:0001c2a0       ??_C@_09NALCKLGI@Bdotbelow?$AA@ 0051a340     sdl_ttf:psmodule.obj
 0006:0001c2ac       ??_C@_0L@BBEBPBPJ@Bdotaccent?$AA@ 0051a34c     sdl_ttf:psmodule.obj
 0006:0001c2b8       ??_C@_07JHAGKLAI@Bcircle?$AA@ 0051a358     sdl_ttf:psmodule.obj
 0006:0001c2c0       ??_C@_0M@LKODFMGJ@Aybarmenian?$AA@ 0051a360     sdl_ttf:psmodule.obj
 0006:0001c2cc       ??_C@_0L@EMFJFHHP@Aringbelow?$AA@ 0051a36c     sdl_ttf:psmodule.obj
 0006:0001c2d8       ??_C@_0L@BLPECG@Aringacute?$AA@ 0051a378     sdl_ttf:psmodule.obj
 0006:0001c2e4       ??_C@_07BPGLDKAA@Aogonek?$AA@ 0051a384     sdl_ttf:psmodule.obj
 0006:0001c2ec       ??_C@_0L@DJAHCCFB@Amonospace?$AA@ 0051a38c     sdl_ttf:psmodule.obj
 0006:0001c2f8       ??_C@_07PBHCLMIB@Amacron?$AA@ 0051a398     sdl_ttf:psmodule.obj
 0006:0001c300       ??_C@_0L@IBLINKBL@Alphatonos?$AA@ 0051a3a0     sdl_ttf:psmodule.obj
 0006:0001c30c       ??_C@_05IHOGHNDL@Alpha?$AA@ 0051a3ac     sdl_ttf:psmodule.obj
 0006:0001c314       ??_C@_0P@FNGHHEPO@Ainvertedbreve?$AA@ 0051a3b4     sdl_ttf:psmodule.obj
 0006:0001c324       ??_C@_0M@JFKCBHPA@Aiecyrillic?$AA@ 0051a3c4     sdl_ttf:psmodule.obj
 0006:0001c330       ??_C@_0L@EJMHLMEC@Ahookabove?$AA@ 0051a3d0     sdl_ttf:psmodule.obj
 0006:0001c33c       ??_C@_0L@HOOKKDEN@Adotmacron?$AA@ 0051a3dc     sdl_ttf:psmodule.obj
 0006:0001c348       ??_C@_09DLIFBAGL@Adotbelow?$AA@ 0051a3e8     sdl_ttf:psmodule.obj
 0006:0001c354       ??_C@_0BA@MCEMAOAH@Adieresismacron?$AA@ 0051a3f4     sdl_ttf:psmodule.obj
 0006:0001c364       ??_C@_0BC@IDKCJHDC@Adieresiscyrillic?$AA@ 0051a404     sdl_ttf:psmodule.obj
 0006:0001c378       ??_C@_09OPNFDNMD@Adblgrave?$AA@ 0051a418     sdl_ttf:psmodule.obj
 0006:0001c384       ??_C@_09MLBEEJGB@Acyrillic?$AA@ 0051a424     sdl_ttf:psmodule.obj
 0006:0001c390       ??_C@_05EDDIIFMI@Acute?$AA@ 0051a430     sdl_ttf:psmodule.obj
 0006:0001c398       ??_C@_0BB@FELDPPPF@Acircumflextilde?$AA@ 0051a438     sdl_ttf:psmodule.obj
 0006:0001c3ac       ??_C@_0BF@MJFBNPGG@Acircumflexhookabove?$AA@ 0051a44c     sdl_ttf:psmodule.obj
 0006:0001c3c4       ??_C@_0BB@CLAJIGJA@Acircumflexgrave?$AA@ 0051a464     sdl_ttf:psmodule.obj
 0006:0001c3d8       ??_C@_0BE@MIIBPPPO@Acircumflexdotbelow?$AA@ 0051a478     sdl_ttf:psmodule.obj
 0006:0001c3ec       ??_C@_0BB@HMCPMPBJ@Acircumflexacute?$AA@ 0051a48c     sdl_ttf:psmodule.obj
 0006:0001c400       ??_C@_07BJIJKMOL@Acircle?$AA@ 0051a4a0     sdl_ttf:psmodule.obj
 0006:0001c408       ??_C@_06NDBONPGG@Acaron?$AA@ 0051a4a8     sdl_ttf:psmodule.obj
 0006:0001c410       ??_C@_0M@FCJIGJKD@Abrevetilde?$AA@ 0051a4b0     sdl_ttf:psmodule.obj
 0006:0001c41c       ??_C@_0BA@EBLKBDAG@Abrevehookabove?$AA@ 0051a4bc     sdl_ttf:psmodule.obj
 0006:0001c42c       ??_C@_0M@CNCCBAMG@Abrevegrave?$AA@ 0051a4cc     sdl_ttf:psmodule.obj
 0006:0001c438       ??_C@_0P@CLBHHJCG@Abrevedotbelow?$AA@ 0051a4d8     sdl_ttf:psmodule.obj
 0006:0001c448       ??_C@_0P@NLIGCACM@Abrevecyrillic?$AA@ 0051a4e8     sdl_ttf:psmodule.obj
 0006:0001c458       ??_C@_0M@HKAEFJEP@Abreveacute?$AA@ 0051a4f8     sdl_ttf:psmodule.obj
 0006:0001c464       ??_C@_06CMPMPID@Abreve?$AA@ 0051a504     sdl_ttf:psmodule.obj
 0006:0001c46c       ??_C@_08DPPKGOPI@AEmacron?$AA@ 0051a50c     sdl_ttf:psmodule.obj
 0006:0001c478       ??_C@_07GDHAGGJJ@AEacute?$AA@ 0051a518     sdl_ttf:psmodule.obj
 0006:0001c480       ??_C@_08MPFDBEBF@Semibold?$AA@ 0051a520     sdl_ttf:psmodule.obj
 0006:0001c48c       ??_C@_05GPDONPNM@Roman?$AA@ 0051a52c     sdl_ttf:psmodule.obj
 0006:0001c494       ??_C@_06LHIDHMIE@Medium?$AA@ 0051a534     sdl_ttf:psmodule.obj
 0006:0001c49c       ??_C@_05JODGIKH@Light?$AA@ 0051a53c     sdl_ttf:psmodule.obj
 0006:0001c4a4       ??_C@_04LNCJNKOP@Book?$AA@ 0051a544     sdl_ttf:psmodule.obj
 0006:0001c4ac       ??_C@_07CGIPOLNF@001?4003?$AA@ 0051a54c     sdl_ttf:psmodule.obj
 0006:0001c4b4       ??_C@_07DPJENKJE@001?4002?$AA@ 0051a554     sdl_ttf:psmodule.obj
 0006:0001c4bc       ??_C@_07BELJIJFH@001?4001?$AA@ 0051a55c     sdl_ttf:psmodule.obj
 0006:0001c4c4       ??_C@_07NKCLIBG@001?4000?$AA@ 0051a564     sdl_ttf:psmodule.obj
 0006:0001c4cc       ??_C@_0P@NBKACEPD@Ydieresissmall?$AA@ 0051a56c     sdl_ttf:psmodule.obj
 0006:0001c4dc       ??_C@_0L@MPACABAL@Thornsmall?$AA@ 0051a57c     sdl_ttf:psmodule.obj
 0006:0001c4e8       ??_C@_0M@CCNJJPCO@Yacutesmall?$AA@ 0051a588     sdl_ttf:psmodule.obj
 0006:0001c4f4       ??_C@_0P@JEFFINBH@Udieresissmall?$AA@ 0051a594     sdl_ttf:psmodule.obj
 0006:0001c504       ??_C@_0BB@PFNEOFBD@Ucircumflexsmall?$AA@ 0051a5a4     sdl_ttf:psmodule.obj
 0006:0001c518       ??_C@_0M@CHNDNCKP@Uacutesmall?$AA@ 0051a5b8     sdl_ttf:psmodule.obj
 0006:0001c524       ??_C@_0M@LEADOGDK@Ugravesmall?$AA@ 0051a5c4     sdl_ttf:psmodule.obj
 0006:0001c530       ??_C@_0M@FMFDIKBB@Oslashsmall?$AA@ 0051a5d0     sdl_ttf:psmodule.obj
 0006:0001c53c       ??_C@_07JLFIOABD@OEsmall?$AA@ 0051a5dc     sdl_ttf:psmodule.obj
 0006:0001c544       ??_C@_0P@LHDIGPEO@Odieresissmall?$AA@ 0051a5e4     sdl_ttf:psmodule.obj
 0006:0001c554       ??_C@_0M@HFKHOKHD@Otildesmall?$AA@ 0051a5f4     sdl_ttf:psmodule.obj
 0006:0001c560       ??_C@_0BB@NAKJKDDH@Ocircumflexsmall?$AA@ 0051a600     sdl_ttf:psmodule.obj
 0006:0001c574       ??_C@_0M@MBPMNHDC@Oacutesmall?$AA@ 0051a614     sdl_ttf:psmodule.obj
 0006:0001c580       ??_C@_0M@FCCMODKH@Ogravesmall?$AA@ 0051a620     sdl_ttf:psmodule.obj
 0006:0001c58c       ??_C@_0M@OOACKGBM@Ntildesmall?$AA@ 0051a62c     sdl_ttf:psmodule.obj
 0006:0001c598       ??_C@_08PKLLHKOL@Ethsmall?$AA@ 0051a638     sdl_ttf:psmodule.obj
 0006:0001c5a4       ??_C@_0P@JFMCLLLM@Idieresissmall?$AA@ 0051a644     sdl_ttf:psmodule.obj
 0006:0001c5b4       ??_C@_0BB@HHJNBEDP@Icircumflexsmall?$AA@ 0051a654     sdl_ttf:psmodule.obj
 0006:0001c5c8       ??_C@_0M@COMBHCNC@Iacutesmall?$AA@ 0051a668     sdl_ttf:psmodule.obj
 0006:0001c5d4       ??_C@_0M@LNBBEGEH@Igravesmall?$AA@ 0051a674     sdl_ttf:psmodule.obj
 0006:0001c5e0       ??_C@_0P@NADHBCFI@Edieresissmall?$AA@ 0051a680     sdl_ttf:psmodule.obj
 0006:0001c5f0       ??_C@_0BB@OCIFHMGO@Ecircumflexsmall?$AA@ 0051a690     sdl_ttf:psmodule.obj
 0006:0001c604       ??_C@_0M@CLMLDPFD@Eacutesmall?$AA@ 0051a6a4     sdl_ttf:psmodule.obj
 0006:0001c610       ??_C@_0M@LIBLALMG@Egravesmall?$AA@ 0051a6b0     sdl_ttf:psmodule.obj
 0006:0001c61c       ??_C@_0O@CKHCPJJF@Ccedillasmall?$AA@ 0051a6bc     sdl_ttf:psmodule.obj
 0006:0001c62c       ??_C@_07IONCPCCB@AEsmall?$AA@ 0051a6cc     sdl_ttf:psmodule.obj
 0006:0001c634       ??_C@_0L@ONLJGAJO@Aringsmall?$AA@ 0051a6d4     sdl_ttf:psmodule.obj
 0006:0001c640       ??_C@_0P@FKELHHDL@Adieresissmall?$AA@ 0051a6e0     sdl_ttf:psmodule.obj
 0006:0001c650       ??_C@_0M@JMJGDJGN@Atildesmall?$AA@ 0051a6f0     sdl_ttf:psmodule.obj
 0006:0001c65c       ??_C@_0BB@JBINFLKB@Acircumflexsmall?$AA@ 0051a6fc     sdl_ttf:psmodule.obj
 0006:0001c670       ??_C@_0M@CIMNAECM@Aacutesmall?$AA@ 0051a710     sdl_ttf:psmodule.obj
 0006:0001c67c       ??_C@_0M@LLBNDALJ@Agravesmall?$AA@ 0051a71c     sdl_ttf:psmodule.obj
 0006:0001c688       ??_C@_0O@PKKDAEDJ@commainferior?$AA@ 0051a728     sdl_ttf:psmodule.obj
 0006:0001c698       ??_C@_0P@EMDNGAFN@periodinferior?$AA@ 0051a738     sdl_ttf:psmodule.obj
 0006:0001c6a8       ??_C@_0P@POJAEHDJ@dollarinferior?$AA@ 0051a748     sdl_ttf:psmodule.obj
 0006:0001c6b8       ??_C@_0N@BAADHCCG@centinferior?$AA@ 0051a758     sdl_ttf:psmodule.obj
 0006:0001c6c8       ??_C@_0N@JKEJLFAP@nineinferior?$AA@ 0051a768     sdl_ttf:psmodule.obj
 0006:0001c6d8       ??_C@_0O@PIGDJONN@eightinferior?$AA@ 0051a778     sdl_ttf:psmodule.obj
 0006:0001c6e8       ??_C@_0O@JAAMKNEJ@seveninferior?$AA@ 0051a788     sdl_ttf:psmodule.obj
 0006:0001c6f8       ??_C@_0M@HLJPJEK@sixinferior?$AA@ 0051a798     sdl_ttf:psmodule.obj
 0006:0001c704       ??_C@_0N@NEHPEDOM@fiveinferior?$AA@ 0051a7a4     sdl_ttf:psmodule.obj
 0006:0001c714       ??_C@_0N@GHNCBKJM@fourinferior?$AA@ 0051a7b4     sdl_ttf:psmodule.obj
 0006:0001c724       ??_C@_0O@EJALKHHP@threeinferior?$AA@ 0051a7c4     sdl_ttf:psmodule.obj
 0006:0001c734       ??_C@_0M@EKNDGFJJ@twoinferior?$AA@ 0051a7d4     sdl_ttf:psmodule.obj
 0006:0001c740       ??_C@_0M@PFMAEGOM@oneinferior?$AA@ 0051a7e0     sdl_ttf:psmodule.obj
 0006:0001c74c       ??_C@_0N@FIDDPCAH@zeroinferior?$AA@ 0051a7ec     sdl_ttf:psmodule.obj
 0006:0001c75c       ??_C@_0N@IGHIPJGJ@ninesuperior?$AA@ 0051a7fc     sdl_ttf:psmodule.obj
 0006:0001c76c       ??_C@_0O@OEFCNCLL@eightsuperior?$AA@ 0051a80c     sdl_ttf:psmodule.obj
 0006:0001c77c       ??_C@_0O@IMDNOBCP@sevensuperior?$AA@ 0051a81c     sdl_ttf:psmodule.obj
 0006:0001c78c       ??_C@_0M@BLIILFCM@sixsuperior?$AA@ 0051a82c     sdl_ttf:psmodule.obj
 0006:0001c798       ??_C@_0N@MIEOAPIK@fivesuperior?$AA@ 0051a838     sdl_ttf:psmodule.obj
 0006:0001c7a8       ??_C@_0N@HLODFGPK@foursuperior?$AA@ 0051a848     sdl_ttf:psmodule.obj
 0006:0001c7b8       ??_C@_0N@EEACLOGB@zerosuperior?$AA@ 0051a858     sdl_ttf:psmodule.obj
 0006:0001c7c8       ??_C@_09JMIGODIN@twothirds?$AA@ 0051a868     sdl_ttf:psmodule.obj
 0006:0001c7d4       ??_C@_08KPPIKNKA@onethird?$AA@ 0051a874     sdl_ttf:psmodule.obj
 0006:0001c7e0       ??_C@_0N@GOKBJMHM@seveneighths?$AA@ 0051a880     sdl_ttf:psmodule.obj
 0006:0001c7f0       ??_C@_0M@BJGCEKBA@fiveeighths?$AA@ 0051a890     sdl_ttf:psmodule.obj
 0006:0001c7fc       ??_C@_0N@LPPBHGJF@threeeighths?$AA@ 0051a89c     sdl_ttf:psmodule.obj
 0006:0001c80c       ??_C@_09ONBKFENP@oneeighth?$AA@ 0051a8ac     sdl_ttf:psmodule.obj
 0006:0001c818       ??_C@_0BC@JJPNHNFL@questiondownsmall?$AA@ 0051a8b8     sdl_ttf:psmodule.obj
 0006:0001c82c       ??_C@_0N@HKBLFPAP@Cedillasmall?$AA@ 0051a8cc     sdl_ttf:psmodule.obj
 0006:0001c83c       ??_C@_09DNCPHMPL@Ringsmall?$AA@ 0051a8dc     sdl_ttf:psmodule.obj
 0006:0001c848       ??_C@_0M@PNMOGLLL@Ogoneksmall?$AA@ 0051a8e8     sdl_ttf:psmodule.obj
 0006:0001c854       ??_C@_0P@IFOFKPLN@hypheninferior?$AA@ 0051a8f4     sdl_ttf:psmodule.obj
 0006:0001c864       ??_C@_0L@OKCMGHON@figuredash?$AA@ 0051a904     sdl_ttf:psmodule.obj
 0006:0001c870       ??_C@_0M@GKHAFNOD@Macronsmall?$AA@ 0051a910     sdl_ttf:psmodule.obj
 0006:0001c87c       ??_C@_0P@KEAHGIKG@Dotaccentsmall?$AA@ 0051a91c     sdl_ttf:psmodule.obj
 0006:0001c88c       ??_C@_0L@OOLHKFF@Caronsmall?$AA@ 0051a92c     sdl_ttf:psmodule.obj
 0006:0001c898       ??_C@_0L@KKKOMODM@Brevesmall?$AA@ 0051a938     sdl_ttf:psmodule.obj
 0006:0001c8a4       ??_C@_0O@OCEHNFFG@Dieresissmall?$AA@ 0051a944     sdl_ttf:psmodule.obj
 0006:0001c8b4       ??_C@_0M@EOGJDAGM@Zcaronsmall?$AA@ 0051a954     sdl_ttf:psmodule.obj
 0006:0001c8c0       ??_C@_0M@NDMAAKPN@Scaronsmall?$AA@ 0051a960     sdl_ttf:psmodule.obj
 0006:0001c8cc       ??_C@_0M@CLMNFIOB@Lslashsmall?$AA@ 0051a96c     sdl_ttf:psmodule.obj
 0006:0001c8d8       ??_C@_0N@LLLAGEIO@centoldstyle?$AA@ 0051a978     sdl_ttf:psmodule.obj
 0006:0001c8e8       ??_C@_0BA@BEAKMPEL@exclamdownsmall?$AA@ 0051a988     sdl_ttf:psmodule.obj
 0006:0001c8f8       ??_C@_0L@KBJODKKG@Tildesmall?$AA@ 0051a998     sdl_ttf:psmodule.obj
 0006:0001c904       ??_C@_06BJEGGFAP@rupiah?$AA@ 0051a9a4     sdl_ttf:psmodule.obj
 0006:0001c90c       ??_C@_09FACMMNHM@onefitted?$AA@ 0051a9ac     sdl_ttf:psmodule.obj
 0006:0001c918       ??_C@_0O@NHDGIBEI@colonmonetary?$AA@ 0051a9b8     sdl_ttf:psmodule.obj
 0006:0001c928       ??_C@_06CDNNMGC@Zsmall?$AA@ 0051a9c8     sdl_ttf:psmodule.obj
 0006:0001c930       ??_C@_06DDNFMGPP@Ysmall?$AA@ 0051a9d0     sdl_ttf:psmodule.obj
 0006:0001c938       ??_C@_06JFKCMNEL@Xsmall?$AA@ 0051a9d8     sdl_ttf:psmodule.obj
 0006:0001c940       ??_C@_06GDOKLNKC@Wsmall?$AA@ 0051a9e0     sdl_ttf:psmodule.obj
 0006:0001c948       ??_C@_06MFJNLGBG@Vsmall?$AA@ 0051a9e8     sdl_ttf:psmodule.obj
 0006:0001c950       ??_C@_06PEHFKMIL@Usmall?$AA@ 0051a9f0     sdl_ttf:psmodule.obj
 0006:0001c958       ??_C@_06FCACKHDP@Tsmall?$AA@ 0051a9f8     sdl_ttf:psmodule.obj
 0006:0001c960       ??_C@_06JHKFJJLB@Ssmall?$AA@ 0051aa00     sdl_ttf:psmodule.obj
 0006:0001c968       ??_C@_06DBNCJCAF@Rsmall?$AA@ 0051aa08     sdl_ttf:psmodule.obj
 0006:0001c970       ??_C@_06DKIIJI@Qsmall?$AA@ 0051aa10     sdl_ttf:psmodule.obj
 0006:0001c978       ??_C@_06KGENIDCM@Psmall?$AA@ 0051aa18     sdl_ttf:psmodule.obj
 0006:0001c980       ??_C@_06DHNLGPAL@Osmall?$AA@ 0051aa20     sdl_ttf:psmodule.obj
 0006:0001c988       ??_C@_06JBKMGELP@Nsmall?$AA@ 0051aa28     sdl_ttf:psmodule.obj
 0006:0001c990       ??_C@_06KAEEHOCC@Msmall?$AA@ 0051aa30     sdl_ttf:psmodule.obj
 0006:0001c998       ??_C@_06GDDHFJG@Lsmall?$AA@ 0051aa38     sdl_ttf:psmodule.obj
 0006:0001c9a0       ??_C@_06MDJEELBI@Ksmall?$AA@ 0051aa40     sdl_ttf:psmodule.obj
 0006:0001c9a8       ??_C@_06GFODEAKM@Jsmall?$AA@ 0051aa48     sdl_ttf:psmodule.obj
 0006:0001c9b0       ??_C@_06FEALFKDB@Ismall?$AA@ 0051aa50     sdl_ttf:psmodule.obj
 0006:0001c9b8       ??_C@_06PCHMFBIF@Hsmall?$AA@ 0051aa58     sdl_ttf:psmodule.obj
 0006:0001c9c0       ??_C@_06EDECBGM@Gsmall?$AA@ 0051aa60     sdl_ttf:psmodule.obj
 0006:0001c9c8       ??_C@_06KCEDCKNI@Fsmall?$AA@ 0051aa68     sdl_ttf:psmodule.obj
 0006:0001c9d0       ??_C@_06JDKLDAEF@Esmall?$AA@ 0051aa70     sdl_ttf:psmodule.obj
 0006:0001c9d8       ??_C@_06DFNMDLPB@Dsmall?$AA@ 0051aa78     sdl_ttf:psmodule.obj
 0006:0001c9e0       ??_C@_06PAHLAFHP@Csmall?$AA@ 0051aa80     sdl_ttf:psmodule.obj
 0006:0001c9e8       ??_C@_06FGAMAOML@Bsmall?$AA@ 0051aa88     sdl_ttf:psmodule.obj
 0006:0001c9f0       ??_C@_06GHOEBEFG@Asmall?$AA@ 0051aa90     sdl_ttf:psmodule.obj
 0006:0001c9f8       ??_C@_0L@IGBFDDHC@Gravesmall?$AA@ 0051aa98     sdl_ttf:psmodule.obj
 0006:0001ca04       ??_C@_0P@JJNEODNL@hyphensuperior?$AA@ 0051aaa4     sdl_ttf:psmodule.obj
 0006:0001ca14       ??_C@_0BA@HJAGDEID@Circumflexsmall?$AA@ 0051aab4     sdl_ttf:psmodule.obj
 0006:0001ca24       ??_C@_0BD@NMCFDEON@parenrightinferior?$AA@ 0051aac4     sdl_ttf:psmodule.obj
 0006:0001ca38       ??_C@_0BC@LGMNHACH@parenleftinferior?$AA@ 0051aad8     sdl_ttf:psmodule.obj
 0006:0001ca4c       ??_C@_03EFOEBLAF@ffl?$AA@  0051aaec     sdl_ttf:psmodule.obj
 0006:0001ca50       ??_C@_03DIJDOPEA@ffi?$AA@  0051aaf0     sdl_ttf:psmodule.obj
 0006:0001ca54       ??_C@_02HPEDFNFO@ff?$AA@   0051aaf4     sdl_ttf:psmodule.obj
 0006:0001ca58       ??_C@_09OBKGAAAC@tsuperior?$AA@ 0051aaf8     sdl_ttf:psmodule.obj
 0006:0001ca64       ??_C@_09DHKBLHL@ssuperior?$AA@ 0051ab04     sdl_ttf:psmodule.obj
 0006:0001ca70       ??_C@_09OMLIHAEF@rsuperior?$AA@ 0051ab10     sdl_ttf:psmodule.obj
 0006:0001ca7c       ??_C@_09DOOIHKBN@osuperior?$AA@ 0051ab1c     sdl_ttf:psmodule.obj
 0006:0001ca88       ??_C@_09NBCKBBCD@nsuperior?$AA@ 0051ab28     sdl_ttf:psmodule.obj
 0006:0001ca94       ??_C@_09DKBNKKCA@msuperior?$AA@ 0051ab34     sdl_ttf:psmodule.obj
 0006:0001caa0       ??_C@_09NFNPMBBO@lsuperior?$AA@ 0051ab40     sdl_ttf:psmodule.obj
 0006:0001caac       ??_C@_09DDPGAKFK@isuperior?$AA@ 0051ab4c     sdl_ttf:psmodule.obj
 0006:0001cab8       ??_C@_09CJMKOKNE@esuperior?$AA@ 0051ab58     sdl_ttf:psmodule.obj
 0006:0001cac4       ??_C@_09MGAIIBOK@dsuperior?$AA@ 0051ab64     sdl_ttf:psmodule.obj
 0006:0001cad0       ??_C@_0N@MDCDOEA@centsuperior?$AA@ 0051ab70     sdl_ttf:psmodule.obj
 0006:0001cae0       ??_C@_09MLBGPBKN@bsuperior?$AA@ 0051ab80     sdl_ttf:psmodule.obj
 0006:0001caec       ??_C@_09CACBEKKO@asuperior?$AA@ 0051ab8c     sdl_ttf:psmodule.obj
 0006:0001caf8       ??_C@_0O@BDOFOJNO@questionsmall?$AA@ 0051ab98     sdl_ttf:psmodule.obj
 0006:0001cb08       ??_C@_0P@FAAMCMDL@periodsuperior?$AA@ 0051aba8     sdl_ttf:psmodule.obj
 0006:0001cb18       ??_C@_0BE@CNFIBNEA@threequartersemdash?$AA@ 0051abb8     sdl_ttf:psmodule.obj
 0006:0001cb2c       ??_C@_0O@OGJCEIFP@commasuperior?$AA@ 0051abcc     sdl_ttf:psmodule.obj
 0006:0001cb3c       ??_C@_0N@DBPKKDKH@nineoldstyle?$AA@ 0051abdc     sdl_ttf:psmodule.obj
 0006:0001cb4c       ??_C@_0O@FDNAIIHF@eightoldstyle?$AA@ 0051abec     sdl_ttf:psmodule.obj
 0006:0001cb5c       ??_C@_0O@DLLPLLOB@sevenoldstyle?$AA@ 0051abfc     sdl_ttf:psmodule.obj
 0006:0001cb6c       ??_C@_0M@KMAKOPOC@sixoldstyle?$AA@ 0051ac0c     sdl_ttf:psmodule.obj
 0006:0001cb78       ??_C@_0N@HPMMFFEE@fiveoldstyle?$AA@ 0051ac18     sdl_ttf:psmodule.obj
 0006:0001cb88       ??_C@_0N@MMGBAMDE@fouroldstyle?$AA@ 0051ac28     sdl_ttf:psmodule.obj
 0006:0001cb98       ??_C@_0O@OCLILBNH@threeoldstyle?$AA@ 0051ac38     sdl_ttf:psmodule.obj
 0006:0001cba8       ??_C@_0M@OBGAHDDB@twooldstyle?$AA@ 0051ac48     sdl_ttf:psmodule.obj
 0006:0001cbb4       ??_C@_0M@FOHDFAEE@oneoldstyle?$AA@ 0051ac54     sdl_ttf:psmodule.obj
 0006:0001cbc0       ??_C@_0N@PDIAOEKP@zerooldstyle?$AA@ 0051ac60     sdl_ttf:psmodule.obj
 0006:0001cbd0       ??_C@_0P@PJGDDLOF@onedotenleader?$AA@ 0051ac70     sdl_ttf:psmodule.obj
 0006:0001cbe0       ??_C@_0P@JBEOKHFO@twodotenleader?$AA@ 0051ac80     sdl_ttf:psmodule.obj
 0006:0001cbf0       ??_C@_0BD@MABEHIIL@parenrightsuperior?$AA@ 0051ac90     sdl_ttf:psmodule.obj
 0006:0001cc04       ??_C@_0BC@KKPMDMEB@parenleftsuperior?$AA@ 0051aca4     sdl_ttf:psmodule.obj
 0006:0001cc18       ??_C@_0L@BFMFAHOH@Acutesmall?$AA@ 0051acb8     sdl_ttf:psmodule.obj
 0006:0001cc24       ??_C@_0P@EPHACKNG@ampersandsmall?$AA@ 0051acc4     sdl_ttf:psmodule.obj
 0006:0001cc34       ??_C@_0P@OCKBALFP@dollarsuperior?$AA@ 0051acd4     sdl_ttf:psmodule.obj
 0006:0001cc44       ??_C@_0P@FFCDFBJB@dollaroldstyle?$AA@ 0051ace4     sdl_ttf:psmodule.obj
 0006:0001cc54       ??_C@_0BC@BCFCCHHA@Hungarumlautsmall?$AA@ 0051acf4     sdl_ttf:psmodule.obj
 0006:0001cc68       ??_C@_0M@OBJGJLOH@exclamsmall?$AA@ 0051ad08     sdl_ttf:psmodule.obj
 0006:0001cc74       ??_C@_06HJHKCOMO@zcaron?$AA@ 0051ad14     sdl_ttf:psmodule.obj
 0006:0001cc7c       ??_C@_09CMCKLALO@ydieresis?$AA@ 0051ad1c     sdl_ttf:psmodule.obj
 0006:0001cc88       ??_C@_06BBMKGLNL@yacute?$AA@ 0051ad28     sdl_ttf:psmodule.obj
 0006:0001cc90       ??_C@_06IBEMEICG@ugrave?$AA@ 0051ad30     sdl_ttf:psmodule.obj
 0006:0001cc98       ??_C@_09DGBGFADA@udieresis?$AA@ 0051ad38     sdl_ttf:psmodule.obj
 0006:0001cca4       ??_C@_0M@JIHEIPJH@ucircumflex?$AA@ 0051ad44     sdl_ttf:psmodule.obj
 0006:0001ccb0       ??_C@_06NGGKABKP@uacute?$AA@ 0051ad50     sdl_ttf:psmodule.obj
 0006:0001ccb8       ??_C@_06OMOCGLBN@scaron?$AA@ 0051ad58     sdl_ttf:psmodule.obj
 0006:0001ccc0       ??_C@_06DNFIPCMD@otilde?$AA@ 0051ad60     sdl_ttf:psmodule.obj
 0006:0001ccc8       ??_C@_06ECOCILKG@ograve?$AA@ 0051ad68     sdl_ttf:psmodule.obj
 0006:0001ccd0       ??_C@_09GJKEBBB@odieresis?$AA@ 0051ad70     sdl_ttf:psmodule.obj
 0006:0001ccdc       ??_C@_0M@HOFLIKAK@ocircumflex?$AA@ 0051ad7c     sdl_ttf:psmodule.obj
 0006:0001cce8       ??_C@_06BFMEMCCP@oacute?$AA@ 0051ad88     sdl_ttf:psmodule.obj
 0006:0001ccf0       ??_C@_06JLCPPJHH@ntilde?$AA@ 0051ad90     sdl_ttf:psmodule.obj
 0006:0001ccf8       ??_C@_06CBDCLOJM@igrave?$AA@ 0051ad98     sdl_ttf:psmodule.obj
 0006:0001cd00       ??_C@_09LIEDBFG@idieresis?$AA@ 0051ada0     sdl_ttf:psmodule.obj
 0006:0001cd0c       ??_C@_0M@JBGGCPOK@icircumflex?$AA@ 0051adac     sdl_ttf:psmodule.obj
 0006:0001cd18       ??_C@_06HGBEPHBF@iacute?$AA@ 0051adb8     sdl_ttf:psmodule.obj
 0006:0001cd20       ??_C@_06OGJCNEOI@egrave?$AA@ 0051adc0     sdl_ttf:psmodule.obj
 0006:0001cd28       ??_C@_09BBLINBNI@edieresis?$AA@ 0051adc8     sdl_ttf:psmodule.obj
 0006:0001cd34       ??_C@_0M@JEGMGCGL@ecircumflex?$AA@ 0051add4     sdl_ttf:psmodule.obj
 0006:0001cd40       ??_C@_06LBLEJNGB@eacute?$AA@ 0051ade0     sdl_ttf:psmodule.obj
 0006:0001cd48       ??_C@_08LAGOOKED@ccedilla?$AA@ 0051ade8     sdl_ttf:psmodule.obj
 0006:0001cd54       ??_C@_06GNGHIJJO@atilde?$AA@ 0051adf4     sdl_ttf:psmodule.obj
 0006:0001cd5c       ??_C@_05CAFMJCMP@aring?$AA@ 0051adfc     sdl_ttf:psmodule.obj
 0006:0001cd64       ??_C@_06BCNNPAPL@agrave?$AA@ 0051ae04     sdl_ttf:psmodule.obj
 0006:0001cd6c       ??_C@_09BIFDHBKC@adieresis?$AA@ 0051ae0c     sdl_ttf:psmodule.obj
 0006:0001cd78       ??_C@_0M@JHGKFJBE@acircumflex?$AA@ 0051ae18     sdl_ttf:psmodule.obj
 0006:0001cd84       ??_C@_06EFPLLJHC@aacute?$AA@ 0051ae24     sdl_ttf:psmodule.obj
 0006:0001cd8c       ??_C@_06LGMHBHFC@Zcaron?$AA@ 0051ae2c     sdl_ttf:psmodule.obj
 0006:0001cd94       ??_C@_09GDHHLDGO@Ydieresis?$AA@ 0051ae34     sdl_ttf:psmodule.obj
 0006:0001cda0       ??_C@_06NOHHFCEH@Yacute?$AA@ 0051ae40     sdl_ttf:psmodule.obj
 0006:0001cda8       ??_C@_06EOPBHBLK@Ugrave?$AA@ 0051ae48     sdl_ttf:psmodule.obj
 0006:0001cdb0       ??_C@_09HJELFDOA@Udieresis?$AA@ 0051ae50     sdl_ttf:psmodule.obj
 0006:0001cdbc       ??_C@_0M@IAEFFEGP@Ucircumflex?$AA@ 0051ae5c     sdl_ttf:psmodule.obj
 0006:0001cdc8       ??_C@_06BJNHDIDD@Uacute?$AA@ 0051ae68     sdl_ttf:psmodule.obj
 0006:0001cdd0       ??_C@_06CDFPFCIB@Scaron?$AA@ 0051ae70     sdl_ttf:psmodule.obj
 0006:0001cdd8       ??_C@_06PCOFMLFP@Otilde?$AA@ 0051ae78     sdl_ttf:psmodule.obj
 0006:0001cde0       ??_C@_06INFPLCDK@Ograve?$AA@ 0051ae80     sdl_ttf:psmodule.obj
 0006:0001cde8       ??_C@_09EJMHECMB@Odieresis?$AA@ 0051ae88     sdl_ttf:psmodule.obj
 0006:0001cdf4       ??_C@_0M@GGGKFBPC@Ocircumflex?$AA@ 0051ae94     sdl_ttf:psmodule.obj
 0006:0001ce00       ??_C@_06NKHJPLLD@Oacute?$AA@ 0051aea0     sdl_ttf:psmodule.obj
 0006:0001ce08       ??_C@_06FEJCMAOL@Ntilde?$AA@ 0051aea8     sdl_ttf:psmodule.obj
 0006:0001ce10       ??_C@_06OOIPIHAA@Igrave?$AA@ 0051aeb0     sdl_ttf:psmodule.obj
 0006:0001ce18       ??_C@_09EENJDCIG@Idieresis?$AA@ 0051aeb8     sdl_ttf:psmodule.obj
 0006:0001ce24       ??_C@_0M@IJFHPEBC@Icircumflex?$AA@ 0051aec4     sdl_ttf:psmodule.obj
 0006:0001ce30       ??_C@_06LJKJMOIJ@Iacute?$AA@ 0051aed0     sdl_ttf:psmodule.obj
 0006:0001ce38       ??_C@_06CJCPONHE@Egrave?$AA@ 0051aed8     sdl_ttf:psmodule.obj
 0006:0001ce40       ??_C@_09FOOFNCAI@Edieresis?$AA@ 0051aee0     sdl_ttf:psmodule.obj
 0006:0001ce4c       ??_C@_0M@IMFNLJJD@Ecircumflex?$AA@ 0051aeec     sdl_ttf:psmodule.obj
 0006:0001ce58       ??_C@_06HOAJKEPN@Eacute?$AA@ 0051aef8     sdl_ttf:psmodule.obj
 0006:0001ce60       ??_C@_08DCJPGIOA@Ccedilla?$AA@ 0051af00     sdl_ttf:psmodule.obj
 0006:0001ce6c       ??_C@_06KCNKLAAC@Atilde?$AA@ 0051af0c     sdl_ttf:psmodule.obj
 0006:0001ce74       ??_C@_05CHPAJHPJ@Aring?$AA@ 0051af14     sdl_ttf:psmodule.obj
 0006:0001ce7c       ??_C@_06NNGAMJGH@Agrave?$AA@ 0051af1c     sdl_ttf:psmodule.obj
 0006:0001ce84       ??_C@_09FHAOHCHC@Adieresis?$AA@ 0051af24     sdl_ttf:psmodule.obj
 0006:0001ce90       ??_C@_0M@IPFLICOM@Acircumflex?$AA@ 0051af30     sdl_ttf:psmodule.obj
 0006:0001ce9c       ??_C@_06IKEGIAOO@Aacute?$AA@ 0051af3c     sdl_ttf:psmodule.obj
 0006:0001cea4       ??_C@_09JHBDCMB@copyright?$AA@ 0051af44     sdl_ttf:psmodule.obj
 0006:0001ceb0       ??_C@_0O@FFDKOLBJ@threesuperior?$AA@ 0051af50     sdl_ttf:psmodule.obj
 0006:0001cec0       ??_C@_08MMOCDOEL@multiply?$AA@ 0051af60     sdl_ttf:psmodule.obj
 0006:0001cecc       ??_C@_03CMJPAGPB@eth?$AA@  0051af6c     sdl_ttf:psmodule.obj
 0006:0001ced0       ??_C@_05ODKEFHFK@minus?$AA@ 0051af70     sdl_ttf:psmodule.obj
 0006:0001ced8       ??_C@_0L@GAAEIPML@registered?$AA@ 0051af78     sdl_ttf:psmodule.obj
 0006:0001cee4       ??_C@_0M@FGOCCJPP@twosuperior?$AA@ 0051af84     sdl_ttf:psmodule.obj
 0006:0001cef0       ??_C@_0O@GMMFCNLM@threequarters?$AA@ 0051af90     sdl_ttf:psmodule.obj
 0006:0001cf00       ??_C@_05LIICDAEF@thorn?$AA@ 0051afa0     sdl_ttf:psmodule.obj
 0006:0001cf08       ??_C@_06PJOBIDPN@degree?$AA@ 0051afa8     sdl_ttf:psmodule.obj
 0006:0001cf10       ??_C@_09CMEANALB@brokenbar?$AA@ 0051afb0     sdl_ttf:psmodule.obj
 0006:0001cf1c       ??_C@_06FFHJEHBN@divide?$AA@ 0051afbc     sdl_ttf:psmodule.obj
 0006:0001cf24       ??_C@_0L@KHNGPIGD@onequarter?$AA@ 0051afc4     sdl_ttf:psmodule.obj
 0006:0001cf30       ??_C@_05LPCODFHD@Thorn?$AA@ 0051afd0     sdl_ttf:psmodule.obj
 0006:0001cf38       ??_C@_09MEMCDMOF@plusminus?$AA@ 0051afd8     sdl_ttf:psmodule.obj
 0006:0001cf44       ??_C@_07EIBEGJFP@onehalf?$AA@ 0051afe4     sdl_ttf:psmodule.obj
 0006:0001cf4c       ??_C@_03IMKNKJMP@Eth?$AA@  0051afec     sdl_ttf:psmodule.obj
 0006:0001cf50       ??_C@_09DFEHCCMK@trademark?$AA@ 0051aff0     sdl_ttf:psmodule.obj
 0006:0001cf5c       ??_C@_02BCPJPDCN@mu?$AA@   0051affc     sdl_ttf:psmodule.obj
 0006:0001cf60       ??_C@_0L@OPOJOCPI@logicalnot?$AA@ 0051b000     sdl_ttf:psmodule.obj
 0006:0001cf6c       ??_C@_0M@OJPBAKIK@onesuperior?$AA@ 0051b00c     sdl_ttf:psmodule.obj
 0006:0001cf78       ??_C@_0L@OIJPIDKK@germandbls?$AA@ 0051b018     sdl_ttf:psmodule.obj
 0006:0001cf84       ??_C@_02FLLPDFBC@oe?$AA@   0051b024     sdl_ttf:psmodule.obj
 0006:0001cf88       ??_C@_06LGBAFOGO@oslash?$AA@ 0051b028     sdl_ttf:psmodule.obj
 0006:0001cf90       ??_C@_06IHPIEEPD@lslash?$AA@ 0051b030     sdl_ttf:psmodule.obj
 0006:0001cf98       ??_C@_08LMHDEDFP@dotlessi?$AA@ 0051b038     sdl_ttf:psmodule.obj
 0006:0001cfa4       ??_C@_02FBCBBIBI@ae?$AA@   0051b044     sdl_ttf:psmodule.obj
 0006:0001cfa8       ??_C@_0N@BNDEFBJE@ordmasculine?$AA@ 0051b048     sdl_ttf:psmodule.obj
 0006:0001cfb8       ??_C@_02PGHGFHFA@OE?$AA@   0051b058     sdl_ttf:psmodule.obj
 0006:0001cfbc       ??_C@_06HJKNGHPC@Oslash?$AA@ 0051b05c     sdl_ttf:psmodule.obj
 0006:0001cfc4       ??_C@_06EIEFHNGP@Lslash?$AA@ 0051b064     sdl_ttf:psmodule.obj
 0006:0001cfcc       ??_C@_0M@OIKJKIPK@ordfeminine?$AA@ 0051b06c     sdl_ttf:psmodule.obj
 0006:0001cfd8       ??_C@_02PMOIHKFK@AE?$AA@   0051b078     sdl_ttf:psmodule.obj
 0006:0001cfdc       ??_C@_06BLMMCJAK@emdash?$AA@ 0051b07c     sdl_ttf:psmodule.obj
 0006:0001cfe4       ??_C@_05BNMMNPHG@caron?$AA@ 0051b084     sdl_ttf:psmodule.obj
 0006:0001cfec       ??_C@_06CBCPIGE@ogonek?$AA@ 0051b08c     sdl_ttf:psmodule.obj
 0006:0001cff4       ??_C@_0N@EAGNBIPM@hungarumlaut?$AA@ 0051b094     sdl_ttf:psmodule.obj
 0006:0001d004       ??_C@_07FGKLJMOF@cedilla?$AA@ 0051b0a4     sdl_ttf:psmodule.obj
 0006:0001d00c       ??_C@_04JEBEBIIO@ring?$AA@ 0051b0ac     sdl_ttf:psmodule.obj
 0006:0001d014       ??_C@_08CDPFGCDE@dieresis?$AA@ 0051b0b4     sdl_ttf:psmodule.obj
 0006:0001d020       ??_C@_09BHGIIIEN@dotaccent?$AA@ 0051b0c0     sdl_ttf:psmodule.obj
 0006:0001d02c       ??_C@_05MMBNMPJD@breve?$AA@ 0051b0cc     sdl_ttf:psmodule.obj
 0006:0001d034       ??_C@_06OMALHOOF@macron?$AA@ 0051b0d4     sdl_ttf:psmodule.obj
 0006:0001d03c       ??_C@_05GMAILABC@tilde?$AA@ 0051b0dc     sdl_ttf:psmodule.obj
 0006:0001d044       ??_C@_0L@DEMPAOPA@circumflex?$AA@ 0051b0e4     sdl_ttf:psmodule.obj
 0006:0001d050       ??_C@_05EEJEIAPO@acute?$AA@ 0051b0f0     sdl_ttf:psmodule.obj
 0006:0001d058       ??_C@_05BDLCMJHH@grave?$AA@ 0051b0f8     sdl_ttf:psmodule.obj
 0006:0001d060       ??_C@_0N@JPCBJLDC@questiondown?$AA@ 0051b100     sdl_ttf:psmodule.obj
 0006:0001d070       ??_C@_0M@IFDPBMOC@perthousand?$AA@ 0051b110     sdl_ttf:psmodule.obj
 0006:0001d07c       ??_C@_08CIOHNHGK@ellipsis?$AA@ 0051b11c     sdl_ttf:psmodule.obj
 0006:0001d088       ??_C@_0P@JDIPCBMH@guillemotright?$AA@ 0051b128     sdl_ttf:psmodule.obj
 0006:0001d098       ??_C@_0O@HLPFAHHJ@quotedblright?$AA@ 0051b138     sdl_ttf:psmodule.obj
 0006:0001d0a8       ??_C@_0N@BIJBKIGD@quotedblbase?$AA@ 0051b148     sdl_ttf:psmodule.obj
 0006:0001d0b8       ??_C@_0P@OBKGFEOJ@quotesinglbase?$AA@ 0051b158     sdl_ttf:psmodule.obj
 0006:0001d0c8       ??_C@_06NCIIGPB@bullet?$AA@ 0051b168     sdl_ttf:psmodule.obj
 0006:0001d0d0       ??_C@_09IODMMDJO@paragraph?$AA@ 0051b170     sdl_ttf:psmodule.obj
 0006:0001d0dc       ??_C@_0P@DLMLMCMB@periodcentered?$AA@ 0051b17c     sdl_ttf:psmodule.obj
 0006:0001d0ec       ??_C@_09PGCKALFK@daggerdbl?$AA@ 0051b18c     sdl_ttf:psmodule.obj
 0006:0001d0f8       ??_C@_06DEOCNA@dagger?$AA@ 0051b198     sdl_ttf:psmodule.obj
 0006:0001d100       ??_C@_06JNFIFLKE@endash?$AA@ 0051b1a0     sdl_ttf:psmodule.obj
 0006:0001d108       ??_C@_02IFKMLFNE@fl?$AA@   0051b1a8     sdl_ttf:psmodule.obj
 0006:0001d10c       ??_C@_02PINLEBJB@fi?$AA@   0051b1ac     sdl_ttf:psmodule.obj
 0006:0001d110       ??_C@_0P@KOEAEJN@guilsinglright?$AA@ 0051b1b0     sdl_ttf:psmodule.obj
 0006:0001d120       ??_C@_0O@MBHBKOJK@guilsinglleft?$AA@ 0051b1c0     sdl_ttf:psmodule.obj
 0006:0001d130       ??_C@_0O@KDAFEOJJ@guillemotleft?$AA@ 0051b1d0     sdl_ttf:psmodule.obj
 0006:0001d140       ??_C@_0N@GBPHMDNO@quotedblleft?$AA@ 0051b1e0     sdl_ttf:psmodule.obj
 0006:0001d150       ??_C@_0M@IKNHFGFF@quotesingle?$AA@ 0051b1f0     sdl_ttf:psmodule.obj
 0006:0001d15c       ??_C@_08JLPCGLMH@currency?$AA@ 0051b1fc     sdl_ttf:psmodule.obj
 0006:0001d168       ??_C@_07BNGFJMOB@section?$AA@ 0051b208     sdl_ttf:psmodule.obj
 0006:0001d170       ??_C@_06JDOPKIHC@florin?$AA@ 0051b210     sdl_ttf:psmodule.obj
 0006:0001d178       ??_C@_03HNOOIABH@yen?$AA@  0051b218     sdl_ttf:psmodule.obj
 0006:0001d17c       ??_C@_08IJNCILIF@fraction?$AA@ 0051b21c     sdl_ttf:psmodule.obj
 0006:0001d188       ??_C@_08BFLPHNCM@sterling?$AA@ 0051b228     sdl_ttf:psmodule.obj
 0006:0001d194       ??_C@_04OCKNFIJG@cent?$AA@ 0051b234     sdl_ttf:psmodule.obj
 0006:0001d19c       ??_C@_0L@IOFDOMGB@exclamdown?$AA@ 0051b23c     sdl_ttf:psmodule.obj
 0006:0001d1a8       ??_C@_0L@IOANNIPJ@asciitilde?$AA@ 0051b248     sdl_ttf:psmodule.obj
 0006:0001d1b4       ??_C@_0L@NLCADFJE@braceright?$AA@ 0051b254     sdl_ttf:psmodule.obj
 0006:0001d1c0       ??_C@_03BLIIKFAI@bar?$AA@  0051b260     sdl_ttf:psmodule.obj
 0006:0001d1c4       ??_C@_09LOCHFGDO@braceleft?$AA@ 0051b264     sdl_ttf:psmodule.obj
 0006:0001d1d0       ??_C@_09KBCMLBGO@quoteleft?$AA@ 0051b270     sdl_ttf:psmodule.obj
 0006:0001d1dc       ??_C@_0L@EJMOINGP@underscore?$AA@ 0051b27c     sdl_ttf:psmodule.obj
 0006:0001d1e8       ??_C@_0M@OIOEECOA@asciicircum?$AA@ 0051b288     sdl_ttf:psmodule.obj
 0006:0001d1f4       ??_C@_0N@NKGLCKDA@bracketright?$AA@ 0051b294     sdl_ttf:psmodule.obj
 0006:0001d204       ??_C@_09PMNHCLIH@backslash?$AA@ 0051b2a4     sdl_ttf:psmodule.obj
 0006:0001d210       ??_C@_0M@COEJPEHP@bracketleft?$AA@ 0051b2b0     sdl_ttf:psmodule.obj
 0006:0001d21c       ??_C@_01POHCFINO@Z?$AA@    0051b2bc     sdl_ttf:psmodule.obj
 0006:0001d220       ??_C@_01NFFPALBN@Y?$AA@    0051b2c0     sdl_ttf:psmodule.obj
 0006:0001d224       ??_C@_01MMEEDKFM@X?$AA@    0051b2c4     sdl_ttf:psmodule.obj
 0006:0001d228       ??_C@_01ELNMCGJD@W?$AA@    0051b2c8     sdl_ttf:psmodule.obj
 0006:0001d22c       ??_C@_01FCMHBHNC@V?$AA@    0051b2cc     sdl_ttf:psmodule.obj
 0006:0001d230       ??_C@_01HJOKEEBB@U?$AA@    0051b2d0     sdl_ttf:psmodule.obj
 0006:0001d234       ??_C@_01GAPBHFFA@T?$AA@    0051b2d4     sdl_ttf:psmodule.obj
 0006:0001d238       ??_C@_01CPLAODJH@S?$AA@    0051b2d8     sdl_ttf:psmodule.obj
 0006:0001d23c       ??_C@_01DGKLNCNG@R?$AA@    0051b2dc     sdl_ttf:psmodule.obj
 0006:0001d240       ??_C@_01BNIGIBBF@Q?$AA@    0051b2e0     sdl_ttf:psmodule.obj
 0006:0001d244       ??_C@_01EJNLAFE@P?$AA@     0051b2e4     sdl_ttf:psmodule.obj
 0006:0001d248       ??_C@_01MJMHLOMK@O?$AA@    0051b2e8     sdl_ttf:psmodule.obj
 0006:0001d24c       ??_C@_01NANMIPIL@N?$AA@    0051b2ec     sdl_ttf:psmodule.obj
 0006:0001d250       ??_C@_01PLPBNMEI@M?$AA@    0051b2f0     sdl_ttf:psmodule.obj
 0006:0001d254       ??_C@_01OCOKONAJ@L?$AA@    0051b2f4     sdl_ttf:psmodule.obj
 0006:0001d258       ??_C@_01KNKLHLMO@K?$AA@    0051b2f8     sdl_ttf:psmodule.obj
 0006:0001d25c       ??_C@_01LELAEKIP@J?$AA@    0051b2fc     sdl_ttf:psmodule.obj
 0006:0001d260       ??_C@_01JPJNBJEM@I?$AA@    0051b300     sdl_ttf:psmodule.obj
 0006:0001d264       ??_C@_01IGIGCIAN@H?$AA@    0051b304     sdl_ttf:psmodule.obj
 0006:0001d268       ??_C@_01BBODEMC@G?$AA@     0051b308     sdl_ttf:psmodule.obj
 0006:0001d26c       ??_C@_01BIAFAFID@F?$AA@    0051b30c     sdl_ttf:psmodule.obj
 0006:0001d270       ??_C@_01DDCIFGEA@E?$AA@    0051b310     sdl_ttf:psmodule.obj
 0006:0001d274       ??_C@_01CKDDGHAB@D?$AA@    0051b314     sdl_ttf:psmodule.obj
 0006:0001d278       ??_C@_01GFHCPBMG@C?$AA@    0051b318     sdl_ttf:psmodule.obj
 0006:0001d27c       ??_C@_01HMGJMAIH@B?$AA@    0051b31c     sdl_ttf:psmodule.obj
 0006:0001d280       ??_C@_01FHEEJDEE@A?$AA@    0051b320     sdl_ttf:psmodule.obj
 0006:0001d284       ??_C@_02CPIDLAI@at?$AA@    0051b324     sdl_ttf:psmodule.obj
 0006:0001d288       ??_C@_08LMCPILKM@question?$AA@ 0051b328     sdl_ttf:psmodule.obj
 0006:0001d294       ??_C@_07HACHKNFG@greater?$AA@ 0051b334     sdl_ttf:psmodule.obj
 0006:0001d29c       ??_C@_05OAKNMNI@equal?$AA@ 0051b33c     sdl_ttf:psmodule.obj
 0006:0001d2a4       ??_C@_04DLECGJKD@less?$AA@ 0051b344     sdl_ttf:psmodule.obj
 0006:0001d2ac       ??_C@_09BODIMOEC@semicolon?$AA@ 0051b34c     sdl_ttf:psmodule.obj
 0006:0001d2b8       ??_C@_05BCDKEBLL@colon?$AA@ 0051b358     sdl_ttf:psmodule.obj
 0006:0001d2c0       ??_C@_04DDCAAIP@nine?$AA@  0051b360     sdl_ttf:psmodule.obj
 0006:0001d2c8       ??_C@_05CJEADMFJ@eight?$AA@ 0051b368     sdl_ttf:psmodule.obj
 0006:0001d2d0       ??_C@_05GJGPGJKM@seven?$AA@ 0051b370     sdl_ttf:psmodule.obj
 0006:0001d2d8       ??_C@_03HNBCMMA@six?$AA@   0051b378     sdl_ttf:psmodule.obj
 0006:0001d2dc       ??_C@_04CBHHLJIG@five?$AA@ 0051b37c     sdl_ttf:psmodule.obj
 0006:0001d2e4       ??_C@_04DNJNMJF@four?$AA@  0051b384     sdl_ttf:psmodule.obj
 0006:0001d2ec       ??_C@_05OAGMNDDJ@three?$AA@ 0051b38c     sdl_ttf:psmodule.obj
 0006:0001d2f4       ??_C@_03IJDNBOJF@two?$AA@  0051b394     sdl_ttf:psmodule.obj
 0006:0001d2f8       ??_C@_03OHDNLOHO@one?$AA@  0051b398     sdl_ttf:psmodule.obj
 0006:0001d2fc       ??_C@_04DDFHDMOL@zero?$AA@ 0051b39c     sdl_ttf:psmodule.obj
 0006:0001d304       ??_C@_05OHEABMLP@slash?$AA@ 0051b3a4     sdl_ttf:psmodule.obj
 0006:0001d30c       ??_C@_06FBOEEHNL@period?$AA@ 0051b3ac     sdl_ttf:psmodule.obj
 0006:0001d314       ??_C@_06EEMFAOML@hyphen?$AA@ 0051b3b4     sdl_ttf:psmodule.obj
 0006:0001d31c       ??_C@_05COJKOOHP@comma?$AA@ 0051b3bc     sdl_ttf:psmodule.obj
 0006:0001d324       ??_C@_04OHNHCABI@plus?$AA@ 0051b3c4     sdl_ttf:psmodule.obj
 0006:0001d32c       ??_C@_08CFKNONFH@asterisk?$AA@ 0051b3cc     sdl_ttf:psmodule.obj
 0006:0001d338       ??_C@_0L@LAAGFBLM@parenright?$AA@ 0051b3d8     sdl_ttf:psmodule.obj
 0006:0001d344       ??_C@_09PDBCIKGO@parenleft?$AA@ 0051b3e4     sdl_ttf:psmodule.obj
 0006:0001d350       ??_C@_0L@LAFEGPIH@quoteright?$AA@ 0051b3f0     sdl_ttf:psmodule.obj
 0006:0001d35c       ??_C@_09MCHIICNM@ampersand?$AA@ 0051b3fc     sdl_ttf:psmodule.obj
 0006:0001d368       ??_C@_07HCJJCOPK@percent?$AA@ 0051b408     sdl_ttf:psmodule.obj
 0006:0001d370       ??_C@_06JNOGJNGM@dollar?$AA@ 0051b410     sdl_ttf:psmodule.obj
 0006:0001d378       ??_C@_0L@GIIGAKFG@numbersign?$AA@ 0051b418     sdl_ttf:psmodule.obj
 0006:0001d384       ??_C@_08JAFOHDGE@quotedbl?$AA@ 0051b424     sdl_ttf:psmodule.obj
 0006:0001d390       ??_C@_06GKEIDNLE@exclam?$AA@ 0051b430     sdl_ttf:psmodule.obj
 0006:0001d398       ??_C@_0BB@PDPKILDM@nonmarkingreturn?$AA@ 0051b438     sdl_ttf:psmodule.obj
 0006:0001d3ac       ??_C@_05IBPNLFHH@?4null?$AA@ 0051b44c     sdl_ttf:psmodule.obj
 0006:0001d3b8       _ps_table_funcs            0051b458     sdl_ttf:psaux.obj
 0006:0001d3c8       _ps_parser_funcs           0051b468     sdl_ttf:psaux.obj
 0006:0001d3fc       _t1_builder_funcs          0051b49c     sdl_ttf:psaux.obj
 0006:0001d41c       _t1_decoder_funcs          0051b4bc     sdl_ttf:psaux.obj
 0006:0001d428       _t1_cmap_standard_class_rec 0051b4c8     sdl_ttf:psaux.obj
 0006:0001d43c       _t1_cmap_expert_class_rec  0051b4dc     sdl_ttf:psaux.obj
 0006:0001d450       _t1_cmap_custom_class_rec  0051b4f0     sdl_ttf:psaux.obj
 0006:0001d464       _t1_cmap_unicode_class_rec 0051b504     sdl_ttf:psaux.obj
 0006:0001d478       _t1_cmap_classes           0051b518     sdl_ttf:psaux.obj
 0006:0001d4a0       _psaux_module_class        0051b540     sdl_ttf:psaux.obj
 0006:0001db58       _bdf_cmap_class            0051bbf8     sdl_ttf:bdf.obj
 0006:0001db70       _bdf_driver_class          0051bc10     sdl_ttf:bdf.obj
 0006:0001dbd0       ??_C@_03DDONLALG@bdf?$AA@  0051bc70     sdl_ttf:bdf.obj
 0006:0001dbd4       ??_C@_0BH@EGBLCDE@_MULE_RELATIVE_COMPOSE?$AA@ 0051bc74     sdl_ttf:bdf.obj
 0006:0001dbec       ??_C@_0BG@NJJHMBCE@_MULE_BASELINE_OFFSET?$AA@ 0051bc8c     sdl_ttf:bdf.obj
 0006:0001dc04       ??_C@_08IHHFFHAA@X_HEIGHT?$AA@ 0051bca4     sdl_ttf:bdf.obj
 0006:0001dc10       ??_C@_0M@FCJHKPGH@WEIGHT_NAME?$AA@ 0051bcb0     sdl_ttf:bdf.obj
 0006:0001dc1c       ??_C@_06CIAKHCPD@WEIGHT?$AA@ 0051bcbc     sdl_ttf:bdf.obj
 0006:0001dc24       ??_C@_0BE@KDKNDDDB@UNDERLINE_THICKNESS?$AA@ 0051bcc4     sdl_ttf:bdf.obj
 0006:0001dc38       ??_C@_0BD@FLNBCMPP@UNDERLINE_POSITION?$AA@ 0051bcd8     sdl_ttf:bdf.obj
 0006:0001dc4c       ??_C@_0O@EHDLJGOB@SUPERSCRIPT_Y?$AA@ 0051bcec     sdl_ttf:bdf.obj
 0006:0001dc5c       ??_C@_0O@FOCAKHKA@SUPERSCRIPT_X?$AA@ 0051bcfc     sdl_ttf:bdf.obj
 0006:0001dc6c       ??_C@_0BB@HOLJGBFI@SUPERSCRIPT_SIZE?$AA@ 0051bd0c     sdl_ttf:bdf.obj
 0006:0001dc80       ??_C@_0M@FMFMNELO@SUBSCRIPT_Y?$AA@ 0051bd20     sdl_ttf:bdf.obj
 0006:0001dc8c       ??_C@_0M@EFEHOFPP@SUBSCRIPT_X?$AA@ 0051bd2c     sdl_ttf:bdf.obj
 0006:0001dc98       ??_C@_0P@IMANBLC@SUBSCRIPT_SIZE?$AA@ 0051bd38     sdl_ttf:bdf.obj
 0006:0001dca8       ??_C@_0BC@PCLONKLB@STRIKEOUT_DESCENT?$AA@ 0051bd48     sdl_ttf:bdf.obj
 0006:0001dcbc       ??_C@_0BB@MOJIHJPL@STRIKEOUT_ASCENT?$AA@ 0051bd5c     sdl_ttf:bdf.obj
 0006:0001dcd0       ??_C@_07JKNGKIOL@SPACING?$AA@ 0051bd70     sdl_ttf:bdf.obj
 0006:0001dcd8       ??_C@_0P@CJBLANOF@SMALL_CAP_SIZE?$AA@ 0051bd78     sdl_ttf:bdf.obj
 0006:0001dce8       ??_C@_05NOFPJGIP@SLANT?$AA@ 0051bd88     sdl_ttf:bdf.obj
 0006:0001dcf0       ??_C@_0O@DANCJNNA@SETWIDTH_NAME?$AA@ 0051bd90     sdl_ttf:bdf.obj
 0006:0001dd00       ??_C@_0N@MICMOIBI@RESOLUTION_Y?$AA@ 0051bda0     sdl_ttf:bdf.obj
 0006:0001dd10       ??_C@_0N@NBDHNJFJ@RESOLUTION_X?$AA@ 0051bdb0     sdl_ttf:bdf.obj
 0006:0001dd20       ??_C@_0L@JGAABLGD@RESOLUTION?$AA@ 0051bdc0     sdl_ttf:bdf.obj
 0006:0001dd2c       ??_C@_0BA@NKHOPHOP@RELATIVE_WEIGHT?$AA@ 0051bdcc     sdl_ttf:bdf.obj
 0006:0001dd3c       ??_C@_0BC@JMGAMBDF@RELATIVE_SETWIDTH?$AA@ 0051bddc     sdl_ttf:bdf.obj
 0006:0001dd50       ??_C@_0N@LFICGJOL@RAW_X_HEIGHT?$AA@ 0051bdf0     sdl_ttf:bdf.obj
 0006:0001dd60       ??_C@_0BI@OEPMFPAK@RAW_UNDERLINE_THICKNESS?$AA@ 0051be00     sdl_ttf:bdf.obj
 0006:0001dd78       ??_C@_0BH@LIHCGIBB@RAW_UNDERLINE_POSITION?$AA@ 0051be18     sdl_ttf:bdf.obj
 0006:0001dd90       ??_C@_0BC@FFDANOJJ@RAW_SUPERSCRIPT_Y?$AA@ 0051be30     sdl_ttf:bdf.obj
 0006:0001dda4       ??_C@_0BC@EMCLOPNI@RAW_SUPERSCRIPT_X?$AA@ 0051be44     sdl_ttf:bdf.obj
 0006:0001ddb8       ??_C@_0BF@ILCJEECH@RAW_SUPERSCRIPT_SIZE?$AA@ 0051be58     sdl_ttf:bdf.obj
 0006:0001ddd0       ??_C@_0BA@JLPHJHAP@RAW_SUBSCRIPT_Y?$AA@ 0051be70     sdl_ttf:bdf.obj
 0006:0001dde0       ??_C@_0BA@ICOMKGEO@RAW_SUBSCRIPT_X?$AA@ 0051be80     sdl_ttf:bdf.obj
 0006:0001ddf0       ??_C@_0BD@FGAMCDPE@RAW_SUBSCRIPT_SIZE?$AA@ 0051be90     sdl_ttf:bdf.obj
 0006:0001de04       ??_C@_0BG@DCPBCGDJ@RAW_STRIKEOUT_DESCENT?$AA@ 0051bea4     sdl_ttf:bdf.obj
 0006:0001de1c       ??_C@_0BF@DLAIFMIE@RAW_STRIKEOUT_ASCENT?$AA@ 0051bebc     sdl_ttf:bdf.obj
 0006:0001de34       ??_C@_0BD@HHNHPPKD@RAW_SMALL_CAP_SIZE?$AA@ 0051bed4     sdl_ttf:bdf.obj
 0006:0001de48       ??_C@_0P@LMDGMIPB@RAW_QUAD_WIDTH?$AA@ 0051bee8     sdl_ttf:bdf.obj
 0006:0001de58       ??_C@_0O@FDNDDOFA@RAW_POINTSIZE?$AA@ 0051bef8     sdl_ttf:bdf.obj
 0006:0001de68       ??_C@_0O@HNFKKCGD@RAW_PIXELSIZE?$AA@ 0051bf08     sdl_ttf:bdf.obj
 0006:0001de78       ??_C@_0P@OOHCGKOO@RAW_POINT_SIZE?$AA@ 0051bf18     sdl_ttf:bdf.obj
 0006:0001de88       ??_C@_0P@FBIMICGE@RAW_PIXEL_SIZE?$AA@ 0051bf28     sdl_ttf:bdf.obj
 0006:0001de98       ??_C@_0P@FGMOAACN@RAW_NORM_SPACE?$AA@ 0051bf38     sdl_ttf:bdf.obj
 0006:0001dea8       ??_C@_0O@LFBDCJJJ@RAW_MIN_SPACE?$AA@ 0051bf48     sdl_ttf:bdf.obj
 0006:0001deb8       ??_C@_0O@LEBPLDCN@RAW_MAX_SPACE?$AA@ 0051bf58     sdl_ttf:bdf.obj
 0006:0001dec8       ??_C@_0BB@LHIJKBAI@RAW_FIGURE_WIDTH?$AA@ 0051bf68     sdl_ttf:bdf.obj
 0006:0001dedc       ??_C@_0O@FDGFBIGM@RAW_END_SPACE?$AA@ 0051bf7c     sdl_ttf:bdf.obj
 0006:0001deec       ??_C@_0M@JDDLHGCG@RAW_DESCENT?$AA@ 0051bf8c     sdl_ttf:bdf.obj
 0006:0001def8       ??_C@_0P@PDBKEGFB@RAW_CAP_HEIGHT?$AA@ 0051bf98     sdl_ttf:bdf.obj
 0006:0001df08       ??_C@_0BI@BEKJFFLM@RAW_AVG_LOWERCASE_WIDTH?$AA@ 0051bfa8     sdl_ttf:bdf.obj
 0006:0001df20       ??_C@_0BG@PEMOHOIO@RAW_AVG_CAPITAL_WIDTH?$AA@ 0051bfc0     sdl_ttf:bdf.obj
 0006:0001df38       ??_C@_0BC@LNOEENJF@RAW_AVERAGE_WIDTH?$AA@ 0051bfd8     sdl_ttf:bdf.obj
 0006:0001df4c       ??_C@_0L@CAMLDNCF@RAW_ASCENT?$AA@ 0051bfec     sdl_ttf:bdf.obj
 0006:0001df58       ??_C@_0L@MANNMNIK@QUAD_WIDTH?$AA@ 0051bff8     sdl_ttf:bdf.obj
 0006:0001df64       ??_C@_0L@JCJJGPJF@POINT_SIZE?$AA@ 0051c004     sdl_ttf:bdf.obj
 0006:0001df70       ??_C@_0L@CNGHIHBP@PIXEL_SIZE?$AA@ 0051c010     sdl_ttf:bdf.obj
 0006:0001df7c       ??_C@_06FMPEGAHJ@NOTICE?$AA@ 0051c01c     sdl_ttf:bdf.obj
 0006:0001df84       ??_C@_0L@CKCFAFFG@NORM_SPACE?$AA@ 0051c024     sdl_ttf:bdf.obj
 0006:0001df90       ??_C@_09ICPJOFFH@MIN_SPACE?$AA@ 0051c030     sdl_ttf:bdf.obj
 0006:0001df9c       ??_C@_09IDPFHPOD@MAX_SPACE?$AA@ 0051c03c     sdl_ttf:bdf.obj
 0006:0001dfa8       ??_C@_0N@LHJKBLMB@ITALIC_ANGLE?$AA@ 0051c048     sdl_ttf:bdf.obj
 0006:0001dfb8       ??_C@_09IGHCOKHJ@FULL_NAME?$AA@ 0051c058     sdl_ttf:bdf.obj
 0006:0001dfc4       ??_C@_07GMNLECKJ@FOUNDRY?$AA@ 0051c064     sdl_ttf:bdf.obj
 0006:0001dfcc       ??_C@_0N@BAIKBLGK@FONT_DESCENT?$AA@ 0051c06c     sdl_ttf:bdf.obj
 0006:0001dfdc       ??_C@_0M@ECCDLGDC@FONT_ASCENT?$AA@ 0051c07c     sdl_ttf:bdf.obj
 0006:0001dfe8       ??_C@_0BC@LNICJLFI@FONTNAME_REGISTRY?$AA@ 0051c088     sdl_ttf:bdf.obj
 0006:0001dffc       ??_C@_04IJMKNFPK@FONT?$AA@ 0051c09c     sdl_ttf:bdf.obj
 0006:0001e004       ??_C@_0N@LCIIJFB@FIGURE_WIDTH?$AA@ 0051c0a4     sdl_ttf:bdf.obj
 0006:0001e014       ??_C@_0M@FBEHGJKE@FAMILY_NAME?$AA@ 0051c0b4     sdl_ttf:bdf.obj
 0006:0001e020       ??_C@_09DLOGKOHL@FACE_NAME?$AA@ 0051c0c0     sdl_ttf:bdf.obj
 0006:0001e02c       ??_C@_09GEIPNEKC@END_SPACE?$AA@ 0051c0cc     sdl_ttf:bdf.obj
 0006:0001e038       ??_C@_0BB@PJMJCLEI@DEVICE_FONT_NAME?$AA@ 0051c0d8     sdl_ttf:bdf.obj
 0006:0001e04c       ??_C@_0M@LFJMPFGC@DESTINATION?$AA@ 0051c0ec     sdl_ttf:bdf.obj
 0006:0001e058       ??_C@_0N@LOGJBDOF@DEFAULT_CHAR?$AA@ 0051c0f8     sdl_ttf:bdf.obj
 0006:0001e068       ??_C@_09DJIAAPDG@COPYRIGHT?$AA@ 0051c108     sdl_ttf:bdf.obj
 0006:0001e074       ??_C@_07JEDAPFNH@COMMENT?$AA@ 0051c114     sdl_ttf:bdf.obj
 0006:0001e07c       ??_C@_0BB@OHIDJKBJ@CHARSET_REGISTRY?$AA@ 0051c11c     sdl_ttf:bdf.obj
 0006:0001e090       ??_C@_0BB@OBJAMPOC@CHARSET_ENCODING?$AA@ 0051c130     sdl_ttf:bdf.obj
 0006:0001e0a4       ??_C@_0BE@KNHMGHPI@CHARSET_COLLECTIONS?$AA@ 0051c144     sdl_ttf:bdf.obj
 0006:0001e0b8       ??_C@_0L@IPPBEDCK@CAP_HEIGHT?$AA@ 0051c158     sdl_ttf:bdf.obj
 0006:0001e0c4       ??_C@_0BE@FDPIDJIH@AVG_LOWERCASE_WIDTH?$AA@ 0051c164     sdl_ttf:bdf.obj
 0006:0001e0d8       ??_C@_0BC@DEIBICAG@AVG_CAPITAL_WIDTH?$AA@ 0051c178     sdl_ttf:bdf.obj
 0006:0001e0ec       ??_C@_0O@KPOPAFON@AVERAGE_WIDTH?$AA@ 0051c18c     sdl_ttf:bdf.obj
 0006:0001e0fc       ??_C@_0P@BLEODLOA@ADD_STYLE_NAME?$AA@ 0051c19c     sdl_ttf:bdf.obj
 0006:0001e10c       ??_C@_06PGFOEMDN@BITMAP?$AA@ 0051c1ac     sdl_ttf:bdf.obj
 0006:0001e114       ??_C@_03OONKDOKH@BBX?$AA@  0051c1b4     sdl_ttf:bdf.obj
 0006:0001e118       ??_C@_06NBNMPPJH@DWIDTH?$AA@ 0051c1b8     sdl_ttf:bdf.obj
 0006:0001e120       ??_C@_06HDKFFNNH@SWIDTH?$AA@ 0051c1c0     sdl_ttf:bdf.obj
 0006:0001e128       ??_C@_08LEFKDKKN@ENCODING?$AA@ 0051c1c8     sdl_ttf:bdf.obj
 0006:0001e134       ??_C@_09BPKMEANO@STARTCHAR?$AA@ 0051c1d4     sdl_ttf:bdf.obj
 0006:0001e140       ??_C@_07MDHLCACL@ENDCHAR?$AA@ 0051c1e0     sdl_ttf:bdf.obj
 0006:0001e148       ??_C@_07MLEKHHFJ@ENDFONT?$AA@ 0051c1e8     sdl_ttf:bdf.obj
 0006:0001e150       ??_C@_02EOIDJNGE@?5?$CL?$AA@ 0051c1f0     sdl_ttf:bdf.obj
 0006:0001e154       ??_C@_05HCHEPOAH@CHARS?$AA@ 0051c1f4     sdl_ttf:bdf.obj
 0006:0001e15c       ??_C@_0BB@DLKOPKAC@get_bdf_property?$AA@ 0051c1fc     sdl_ttf:bdf.obj
 0006:0001e170       ??_C@_0BG@NDMEGDOA@_XFREE86_GLYPH_RANGES?$AA@ 0051c210     sdl_ttf:bdf.obj
 0006:0001e188       ??_C@_03OACELNE@?$CFhd?$AA@ 0051c228     sdl_ttf:bdf.obj
 0006:0001e18c       ??_C@_0O@JFDPHGFD@ENDPROPERTIES?$AA@ 0051c22c     sdl_ttf:bdf.obj
 0006:0001e19c       ??_C@_04EMFHLKGI@SIZE?$AA@ 0051c23c     sdl_ttf:bdf.obj
 0006:0001e1a4       ??_C@_0BA@PIDAKDPC@FONTBOUNDINGBOX?$AA@ 0051c244     sdl_ttf:bdf.obj
 0006:0001e1b4       ??_C@_0BA@HGECMEMA@STARTPROPERTIES?$AA@ 0051c254     sdl_ttf:bdf.obj
 0006:0001e1c4       ??_C@_09BHJNBHKM@STARTFONT?$AA@ 0051c264     sdl_ttf:bdf.obj
 0006:0001e1d0       ??_C@_04LBDHIBCK@8859?$AA@ 0051c270     sdl_ttf:bdf.obj
 0006:0001e1d8       ??_C@_05FPAEEJJG@10646?$AA@ 0051c278     sdl_ttf:bdf.obj
 0006:0001e3f4       _pcf_cmap_class            0051c494     sdl_ttf:pcf.obj
 0006:0001e408       _pcf_driver_class          0051c4a8     sdl_ttf:pcf.obj
 0006:0001e468       ??_C@_03MMLCDJCH@pcf?$AA@  0051c508     sdl_ttf:pcf.obj
 0006:0001ea90       _t1cid_driver_class        0051cb30     sdl_ttf:type1cid.obj
 0006:0001eaf0       ??_C@_05CNMLIGFM@t1cid?$AA@ 0051cb90     sdl_ttf:type1cid.obj
 0006:0001eaf8       ??_C@_07PEKDNLEP@FDArray?$AA@ 0051cb98     sdl_ttf:type1cid.obj
 0006:0001eb00       ??_C@_0BA@PKGIFANC@ExpansionFactor?$AA@ 0051cba0     sdl_ttf:type1cid.obj
 0006:0001eb10       ??_C@_0BD@BGHMBBEO@ForceBoldThreshold?$AA@ 0051cbb0     sdl_ttf:type1cid.obj
 0006:0001eb24       ??_C@_0BC@HBJENNOG@lenBuildCharArray?$AA@ 0051cbc4     sdl_ttf:type1cid.obj
 0006:0001eb38       ??_C@_09NKAONILE@SubrCount?$AA@ 0051cbd8     sdl_ttf:type1cid.obj
 0006:0001eb44       ??_C@_07OJDBLIDF@SDBytes?$AA@ 0051cbe4     sdl_ttf:type1cid.obj
 0006:0001eb4c       ??_C@_0O@DKIHOHFK@SubrMapOffset?$AA@ 0051cbec     sdl_ttf:type1cid.obj
 0006:0001eb5c       ??_C@_08LPCKMOBH@CIDCount?$AA@ 0051cbfc     sdl_ttf:type1cid.obj
 0006:0001eb68       ??_C@_07BBMAIHOE@GDBytes?$AA@ 0051cc08     sdl_ttf:type1cid.obj
 0006:0001eb70       ??_C@_07NNGKIHHK@FDBytes?$AA@ 0051cc10     sdl_ttf:type1cid.obj
 0006:0001eb78       ??_C@_0N@LBMCPKAC@CIDMapOffset?$AA@ 0051cc18     sdl_ttf:type1cid.obj
 0006:0001eb88       ??_C@_07CNNFHHEA@UIDBase?$AA@ 0051cc28     sdl_ttf:type1cid.obj
 0006:0001eb90       ??_C@_0L@EJNILPMC@Supplement?$AA@ 0051cc30     sdl_ttf:type1cid.obj
 0006:0001eb9c       ??_C@_08HMKBFHBJ@Ordering?$AA@ 0051cc3c     sdl_ttf:type1cid.obj
 0006:0001eba8       ??_C@_08EPBENDNC@Registry?$AA@ 0051cc48     sdl_ttf:type1cid.obj
 0006:0001ebb4       ??_C@_0M@IBCFBNHK@CIDFontType?$AA@ 0051cc54     sdl_ttf:type1cid.obj
 0006:0001ebc0       ??_C@_0P@FDOGBFAP@CIDFontVersion?$AA@ 0051cc60     sdl_ttf:type1cid.obj
 0006:0001ebd0       ??_C@_0M@CKCGNNAK@CIDFontName?$AA@ 0051cc70     sdl_ttf:type1cid.obj
 0006:0001ebdc       ??_C@_09BFOLOCGO@StartData?$AA@ 0051cc7c     sdl_ttf:type1cid.obj
 0006:0001ebe8       ??_C@_0CA@JGHPJJJF@?$CF?$CBPS?9Adobe?93?40?5Resource?9CIDFont?$AA@ 0051cc88     sdl_ttf:type1cid.obj
 0006:0001ec08       ??_C@_0BC@JBBEDJNJ@?$CFADOBeginFontDict?$AA@ 0051cca8     sdl_ttf:type1cid.obj
 0006:0001ec20       _cff_driver_class          0051ccc0     sdl_ttf:cff.obj
 0006:0001fa6c       _cff_cmap_encoding_class_rec 0051db0c     sdl_ttf:cff.obj
 0006:0001fa80       _cff_cmap_unicode_class_rec 0051db20     sdl_ttf:cff.obj
 0006:0001fa98       _ah_arctan                 0051db38     sdl_ttf:autohint.obj
 0006:0001fe98       _ft_autohinter_service     0051df38     sdl_ttf:autohint.obj
 0006:0001fea8       _autohint_module_class     0051df48     sdl_ttf:autohint.obj
 0006:0001fecc       ??_C@_0L@LHCONJLB@autohinter?$AA@ 0051df6c     sdl_ttf:autohint.obj
 0006:0001fed8       ??_C@_05JMOBNJBB@pqgjy?$AA@ 0051df78     sdl_ttf:autohint.obj
 0006:0001fee0       ??_C@_07OEGHIANM@xzroesc?$AA@ 0051df80     sdl_ttf:autohint.obj
 0006:0001fee8       ??_C@_07IHMJHEEJ@fijkdbh?$AA@ 0051df88     sdl_ttf:autohint.obj
 0006:0001fef0       ??_C@_08EKBNCAKO@HEZLOCUS?$AA@ 0051df90     sdl_ttf:autohint.obj
 0006:0001fefc       ??_C@_08NIPMCBGH@THEZOCQS?$AA@ 0051df9c     sdl_ttf:autohint.obj
 0006:00020144       ??_C@_0CE@LOHAHEGK@incomplete?5dynamic?5bit?5lengths?5t@ 0051e1e4     sdl_ttf:ftgzip.obj
 0006:00020168       ??_C@_0CI@CGMOPDPD@oversubscribed?5dynamic?5bit?5lengt@ 0051e208     sdl_ttf:ftgzip.obj
 0006:00020190       ??_C@_0BP@NEEEJJNA@incomplete?5literal?1length?5tree?$AA@ 0051e230     sdl_ttf:ftgzip.obj
 0006:000201b0       ??_C@_0CD@GJIDGCKE@oversubscribed?5literal?1length?5tr@ 0051e250     sdl_ttf:ftgzip.obj
 0006:000201d4       ??_C@_0CB@KPKKKLFO@empty?5distance?5tree?5with?5lengths@ 0051e274     sdl_ttf:ftgzip.obj
 0006:000201f8       ??_C@_0BJ@CBCPDPJF@incomplete?5distance?5tree?$AA@ 0051e298     sdl_ttf:ftgzip.obj
 0006:00020214       ??_C@_0BN@KBLCDIAI@oversubscribed?5distance?5tree?$AA@ 0051e2b4     sdl_ttf:ftgzip.obj
 0006:00020234       ??_C@_0BG@LBKINIKP@invalid?5distance?5code?$AA@ 0051e2d4     sdl_ttf:ftgzip.obj
 0006:0002024c       ??_C@_0BM@FFFLPBBC@invalid?5literal?1length?5code?$AA@ 0051e2ec     sdl_ttf:ftgzip.obj
 0006:00020268       ??_C@_0BK@BMMPFBBH@invalid?5bit?5length?5repeat?$AA@ 0051e308     sdl_ttf:ftgzip.obj
 0006:00020284       ??_C@_0CE@GMIGFPBB@too?5many?5length?5or?5distance?5symb@ 0051e324     sdl_ttf:ftgzip.obj
 0006:000202a8       ??_C@_0BN@LGAADGOK@invalid?5stored?5block?5lengths?$AA@ 0051e348     sdl_ttf:ftgzip.obj
 0006:000202c8       ??_C@_0BD@PJCBIDD@invalid?5block?5type?$AA@ 0051e368     sdl_ttf:ftgzip.obj
 0006:000202dc       ??_C@_0BA@MOKMMFOD@need?5dictionary?$AA@ 0051e37c     sdl_ttf:ftgzip.obj
 0006:000202ec       ??_C@_0BF@MEIGEHBE@incorrect?5data?5check?$AA@ 0051e38c     sdl_ttf:ftgzip.obj
 0006:00020304       ??_C@_0BH@LIBMMIGA@incorrect?5header?5check?$AA@ 0051e3a4     sdl_ttf:ftgzip.obj
 0006:0002031c       ??_C@_0BE@EMOGCLGO@invalid?5window?5size?$AA@ 0051e3bc     sdl_ttf:ftgzip.obj
 0006:00020330       ??_C@_0BL@IHKGDAEE@unknown?5compression?5method?$AA@ 0051e3d0     sdl_ttf:ftgzip.obj
 0006:0002034c       ??_C@_05DOIEBMOI@1?41?44?$AA@ 0051e3ec     sdl_ttf:ftgzip.obj
 0006:00020354       _ft_bitmap_glyph_class     0051e3f4     sdl_ttf:ftglyph.obj
 0006:00020374       _ft_outline_glyph_class    0051e414     sdl_ttf:ftglyph.obj
 0006:00020394       ??_C@_03NAIKFGEJ@PNG?$AA@  0051e434     sdl_image:IMG.obj
 0006:00020398       ??_C@_03DJLAKPIA@LBM?$AA@  0051e438     sdl_image:IMG.obj
 0006:0002039c       ??_C@_03EDLMOGNK@TIF?$AA@  0051e43c     sdl_image:IMG.obj
 0006:000203a0       ??_C@_03PJJGGPMI@JPG?$AA@  0051e440     sdl_image:IMG.obj
 0006:000203a4       ??_C@_03BBABOKL@GIF?$AA@   0051e444     sdl_image:IMG.obj
 0006:000203a8       ??_C@_03BFAIMLIE@PCX?$AA@  0051e448     sdl_image:IMG.obj
 0006:000203ac       ??_C@_03EPNNMLE@XCF?$AA@   0051e44c     sdl_image:IMG.obj
 0006:000203b0       ??_C@_03PJGJBIFG@XPM?$AA@  0051e450     sdl_image:IMG.obj
 0006:000203b4       ??_C@_03CKGFLOMD@PNM?$AA@  0051e454     sdl_image:IMG.obj
 0006:000203b8       ??_C@_03CNFPPDJC@BMP?$AA@  0051e458     sdl_image:IMG.obj
 0006:000203bc       ??_C@_03GGDFNBH@TGA?$AA@   0051e45c     sdl_image:IMG.obj
 0006:000203c0       ??_C@_0BJ@LIJHGAAG@Unsupported?5image?5format?$AA@ 0051e460     sdl_image:IMG.obj
 0006:000203dc       ??_C@_0BP@JLJPCEBL@Can?8t?5seek?5in?5this?5data?5source?$AA@ 0051e47c     sdl_image:IMG.obj
 0006:000203fc       ??_C@_0BM@MHFAGJLI@Error?5reading?5the?5PNG?5file?4?$AA@ 0051e49c     sdl_image:IMG_png.obj
 0006:00020418       ??_C@_0CP@IPNJEHJH@Couldn?8t?5create?5image?5informatio@ 0051e4b8     sdl_image:IMG_png.obj
 0006:00020448       ??_C@_0CG@GAFPEEMN@Couldn?8t?5allocate?5memory?5for?5PNG@ 0051e4e8     sdl_image:IMG_png.obj
 0006:00020470       ??_C@_05FBEGEHED@1?42?41?$AA@ 0051e510     sdl_image:IMG_png.obj
 0006:00020478       ??_C@_04ILDFLNLJ@ILBM?$AA@ 0051e518     sdl_image:IMG_lbm.obj
 0006:00020480       ??_C@_04NNBFGNKO@PBM?5?$AA@ 0051e520     sdl_image:IMG_lbm.obj
 0006:00020488       ??_C@_0BJ@MIFFGNKI@error?5reading?5BODY?5chunk?$AA@ 0051e528     sdl_image:IMG_lbm.obj
 0006:000204a4       ??_C@_0BJ@FIPGDMDB@error?5reading?5CMAP?5chunk?$AA@ 0051e544     sdl_image:IMG_lbm.obj
 0006:000204c0       ??_C@_0BJ@MNCKGKHL@error?5reading?5BMHD?5chunk?$AA@ 0051e560     sdl_image:IMG_lbm.obj
 0006:000204dc       ??_C@_0BN@HGLNFECC@error?5reading?5IFF?5chunk?5size?$AA@ 0051e57c     sdl_image:IMG_lbm.obj
 0006:000204fc       ??_C@_0BI@GKBDBIO@error?5reading?5IFF?5chunk?$AA@ 0051e59c     sdl_image:IMG_lbm.obj
 0006:00020514       ??_C@_0BC@FDGLBBLM@not?5a?5IFF?5picture?$AA@ 0051e5b4     sdl_image:IMG_lbm.obj
 0006:00020528       ??_C@_0CG@OOFMAKCI@no?5enough?5memory?5for?5temporary?5b@ 0051e5c8     sdl_image:IMG_lbm.obj
 0006:00020550       ??_C@_04IEBDBADI@CMAP?$AA@ 0051e5f0     sdl_image:IMG_lbm.obj
 0006:00020558       ??_C@_04JIAMNFFC@BMHD?$AA@ 0051e5f8     sdl_image:IMG_lbm.obj
 0006:00020560       ??_C@_04MEHDIIKB@BODY?$AA@ 0051e600     sdl_image:IMG_lbm.obj
 0006:00020568       ??_C@_0P@FFPMLBBC@not?5a?5IFF?5file?$AA@ 0051e608     sdl_image:IMG_lbm.obj
 0006:00020578       ??_C@_04HDOEGLCG@Exif?$AA@ 0051e618     sdl_image:IMG_jpg.obj
 0006:00020580       ??_C@_04EMIJBBCH@JFIF?$AA@ 0051e620     sdl_image:IMG_jpg.obj
 0006:00020588       ??_C@_0BD@EHGALHOF@JPEG?5loading?5error?$AA@ 0051e628     sdl_image:IMG_jpg.obj
 0006:0002059c       ??_C@_03LMHIHEFE@89a?$AA@  0051e63c     sdl_image:IMG_gif.obj
 0006:000205a0       ??_C@_03LGOGFJFO@87a?$AA@  0051e640     sdl_image:IMG_gif.obj
 0006:000205a4       ??_C@_0N@HHGGMAJN@bad?5colormap?$AA@ 0051e644     sdl_image:IMG_gif.obj
 0006:000205b4       ??_C@_0BL@ODDPPHHK@ran?5off?5the?5end?5of?5my?5bits?$AA@ 0051e654     sdl_image:IMG_gif.obj
 0006:000205d0       ??_C@_0BP@BJABAKBD@circular?5table?5entry?5BIG?5ERROR?$AA@ 0051e670     sdl_image:IMG_gif.obj
 0006:000205f0       ??_C@_0BE@CODANBMG@error?5reading?5image?$AA@ 0051e690     sdl_image:IMG_gif.obj
 0006:00020604       ??_C@_0BP@DKFLKNKF@EOF?5?1?5read?5error?5on?5image?5data?$AA@ 0051e6a4     sdl_image:IMG_gif.obj
 0006:00020624       ??_C@_0BB@NAKAPAGA@UNKNOWN?5?$CI0x?$CF02x?$CJ?$AA@ 0051e6c4     sdl_image:IMG_gif.obj
 0006:00020638       ??_C@_0BN@INCEKHE@error?5reading?5local?5colormap?$AA@ 0051e6d8     sdl_image:IMG_gif.obj
 0006:00020658       ??_C@_0CE@MLKHMBKB@couldn?8t?5read?5left?1top?1width?1hei@ 0051e6f8     sdl_image:IMG_gif.obj
 0006:0002067c       ??_C@_0CM@FGBFGBBH@EOF?5?1?5read?5error?5on?5extention?5fu@ 0051e71c     sdl_image:IMG_gif.obj
 0006:000206a8       ??_C@_0BO@DCICCHCJ@only?5?$CFd?5image?$CFs?5found?5in?5file?$AA@ 0051e748     sdl_image:IMG_gif.obj
 0006:000206c8       ??_C@_0BO@MACPBNFI@error?5reading?5global?5colormap?$AA@ 0051e768     sdl_image:IMG_gif.obj
 0006:000206e8       ??_C@_0CB@BMJIDJKL@failed?5to?5read?5screen?5descriptor@ 0051e788     sdl_image:IMG_gif.obj
 0006:0002070c       ??_C@_0CH@CIBONIJM@bad?5version?5number?0?5not?5?887a?8?5or@ 0051e7ac     sdl_image:IMG_gif.obj
 0006:00020734       ??_C@_0P@EEBOHICM@not?5a?5GIF?5file?$AA@ 0051e7d4     sdl_image:IMG_gif.obj
 0006:00020744       ??_C@_0BL@NDOPGIK@error?5reading?5magic?5number?$AA@ 0051e7e4     sdl_image:IMG_gif.obj
 0006:00020760       ??_C@_0BH@EEOEOKIC@unsupported?5PCX?5format?$AA@ 0051e800     sdl_image:IMG_pcx.obj
 0006:00020778       ??_C@_0P@FHGLDPFN@file?5truncated?$AA@ 0051e818     sdl_image:IMG_pcx.obj
 0006:00020788       ??_C@_04OBGPFBCN@blue?$AA@ 0051e828     sdl_image:IMG_xpm.obj
 0006:00020790       ??_C@_05GBEEJKMC@green?$AA@ 0051e830     sdl_image:IMG_xpm.obj
 0006:00020798       ??_C@_03FAAAOPJM@red?$AA@  0051e838     sdl_image:IMG_xpm.obj
 0006:0002079c       ??_C@_05PMAELIEO@white?$AA@ 0051e83c     sdl_image:IMG_xpm.obj
 0006:000207a4       ??_C@_05BIMBDNDC@black?$AA@ 0051e844     sdl_image:IMG_xpm.obj
 0006:000207ac       ??_C@_04CGFJFPFD@none?$AA@ 0051e84c     sdl_image:IMG_xpm.obj
 0006:000207b4       ??_C@_09HHKJMCAF@?1?$CK?5XPM?5?$CK?1?$AA@ 0051e854     sdl_image:IMG_xpm.obj
 0006:000207c0       ??_C@_0BG@MBBGNLFO@Premature?5end?5of?5data?$AA@ 0051e860     sdl_image:IMG_xpm.obj
 0006:000207d8       ??_C@_0BL@IMMEOGMK@Invalid?5format?5description?$AA@ 0051e878     sdl_image:IMG_xpm.obj
 0006:000207f4       ??_C@_0BD@LNMAOMCH@colour?5parse?5error?$AA@ 0051e894     sdl_image:IMG_xpm.obj
 0006:00020808       ??_C@_0M@FMGEODLN@?$CFd?5?$CFd?5?$CFd?5?$CFd?$AA@ 0051e8a8     sdl_image:IMG_xpm.obj
 0006:00020814       ??_C@_0CG@CJFJBLKE@Unable?5to?5read?5image?5width?5and?5h@ 0051e8b4     sdl_image:IMG_pnm.obj
 0006:0002083c       ??_C@_0BH@FHENGGAM@unsupported?5PNM?5format?$AA@ 0051e8dc     sdl_image:IMG_pnm.obj
 0006:00020854       ??_C@_0BH@PNLFMNFA@unsupported?5TGA?5format?$AA@ 0051e8f4     sdl_image:IMG_tga.obj
 0006:0002086c       ??_C@_0BH@NCPBFLFJ@Error?5reading?5TGA?5data?$AA@ 0051e90c     sdl_image:IMG_tga.obj
 0006:00020884       ??_C@_05CFPGMOJO@jcr2?6?$AA@ 0051e924     sdl_image:jdapimin.obj
 0006:0002088c       ??_C@_05CHLAHAMH@jcr1?6?$AA@ 0051e92c     sdl_image:jdapimin.obj
 0006:00020894       ??_C@_0L@LCMKPPCK@jci1case3?6?$AA@ 0051e934     sdl_image:jdapimin.obj
 0006:000208a0       ??_C@_0L@LDAIJFBN@jci1case2?6?$AA@ 0051e940     sdl_image:jdapimin.obj
 0006:000208ac       ??_C@_04FOCGKALP@jp1?6?$AA@ 0051e94c     sdl_image:jdapimin.obj
 0006:000208b4       ??_C@_04JOCCHLKJ@JM3?6?$AA@ 0051e954     sdl_image:jdmaster.obj
 0006:000208bc       ??_C@_04JPOABBJO@JM2?6?$AA@ 0051e95c     sdl_image:jdmaster.obj
 0006:000208c4       ??_C@_04JNKGKPMH@JM1?6?$AA@ 0051e964     sdl_image:jdmaster.obj
 0006:000208d0       _jpeg_std_message_table    0051e970     sdl_image:jerror.obj
 0006:00020ac4       ??_C@_0CL@OCGBAKPF@Application?5transferred?5too?5many@ 0051eb64     sdl_image:jerror.obj
 0006:00020af0       ??_C@_0CL@BAKCGOKJ@Invalid?5SOS?5parameters?5for?5seque@ 0051eb90     sdl_image:jerror.obj
 0006:00020b1c       ??_C@_0DI@NFMBADOH@Corrupt?5JPEG?5data?3?5found?5marker?5@ 0051ebbc     sdl_image:jerror.obj
 0006:00020b54       ??_C@_0BL@DPFPFMLM@Premature?5end?5of?5JPEG?5file?$AA@ 0051ebf4     sdl_image:jerror.obj
 0006:00020b70       ??_C@_0CO@ODCCEDLN@Warning?3?5unknown?5JFIF?5revision?5n@ 0051ec10     sdl_image:jerror.obj
 0006:00020ba0       ??_C@_0CE@PBLDOPKB@Corrupt?5JPEG?5data?3?5bad?5Huffman?5c@ 0051ec40     sdl_image:jerror.obj
 0006:00020bc4       ??_C@_0DB@PGMEPGHN@Corrupt?5JPEG?5data?3?5premature?5end@ 0051ec64     sdl_image:jerror.obj
 0006:00020bf8       ??_C@_0DM@PCOGCKJB@Corrupt?5JPEG?5data?3?5?$CFu?5extraneous@ 0051ec98     sdl_image:jerror.obj
 0006:00020c38       ??_C@_0EC@CBCJOINE@Inconsistent?5progression?5sequenc@ 0051ecd8     sdl_image:jerror.obj
 0006:00020c7c       ??_C@_0CG@KEGHCDOM@Unknown?5Adobe?5color?5transform?5co@ 0051ed1c     sdl_image:jerror.obj
 0006:00020ca4       ??_C@_0BH@LJLGPEFF@Obtained?5XMS?5handle?5?$CFu?$AA@ 0051ed44     sdl_image:jerror.obj
 0006:00020cbc       ??_C@_0BE@FOGGKKAO@Freed?5XMS?5handle?5?$CFu?$AA@ 0051ed5c     sdl_image:jerror.obj
 0006:00020cd0       ??_C@_0DE@EEJCDLOO@Unrecognized?5component?5IDs?5?$CFd?5?$CFd@ 0051ed70     sdl_image:jerror.obj
 0006:00020d04       ??_C@_0DG@FCFDGNHE@JFIF?5extension?5marker?3?5RGB?5thumb@ 0051eda4     sdl_image:jerror.obj
 0006:00020d3c       ??_C@_0DK@JGAPDCJL@JFIF?5extension?5marker?3?5palette?5t@ 0051eddc     sdl_image:jerror.obj
 0006:00020d78       ??_C@_0EC@ELDEPOJP@JFIF?5extension?5marker?3?5JPEG?9comp@ 0051ee18     sdl_image:jerror.obj
 0006:00020dbc       ??_C@_0BJ@GOCABEP@Opened?5temporary?5file?5?$CFs?$AA@ 0051ee5c     sdl_image:jerror.obj
 0006:00020dd8       ??_C@_0BJ@KDCGAOJB@Closed?5temporary?5file?5?$CFs?$AA@ 0051ee78     sdl_image:jerror.obj
 0006:00020df4       ??_C@_0BN@GAMIJLDC@?5?5Ss?$DN?$CFd?0?5Se?$DN?$CFd?0?5Ah?$DN?$CFd?0?5Al?$DN?$CFd?$AA@ 0051ee94     sdl_image:jerror.obj
 0006:00020e14       ??_C@_0BO@CDEKFGLC@?5?5?5?5Component?5?$CFd?3?5dc?$DN?$CFd?5ac?$DN?$CFd?$AA@ 0051eeb4     sdl_image:jerror.obj
 0006:00020e34       ??_C@_0BN@BLOOHNC@Start?5Of?5Scan?3?5?$CFd?5components?$AA@ 0051eed4     sdl_image:jerror.obj
 0006:00020e54       ??_C@_0P@JLCHJELA@Start?5of?5Image?$AA@ 0051eef4     sdl_image:jerror.obj
 0006:00020e64       ??_C@_0BP@EDCAMHHE@?5?5?5?5Component?5?$CFd?3?5?$CFdhx?$CFdv?5q?$DN?$CFd?$AA@ 0051ef04     sdl_image:jerror.obj
 0006:00020e84       ??_C@_0DK@DMINKOGN@Start?5Of?5Frame?50x?$CF02x?3?5width?$DN?$CFu?0@ 0051ef24     sdl_image:jerror.obj
 0006:00020ec0       ??_C@_0DJ@PCBCLFML@Smoothing?5not?5supported?5with?5non@ 0051ef60     sdl_image:jerror.obj
 0006:00020efc       ??_C@_05LLAPAOG@RST?$CFd?$AA@ 0051ef9c     sdl_image:jerror.obj
 0006:00020f04       ??_C@_0CF@NIMOLBCP@At?5marker?50x?$CF02x?0?5recovery?5actio@ 0051efa4     sdl_image:jerror.obj
 0006:00020f2c       ??_C@_0CE@FDPBEAOO@Selected?5?$CFd?5colors?5for?5quantizat@ 0051efcc     sdl_image:jerror.obj
 0006:00020f50       ??_C@_0BI@NEIBNACE@Quantizing?5to?5?$CFd?5colors?$AA@ 0051eff0     sdl_image:jerror.obj
 0006:00020f68       ??_C@_0CD@CNNAOOFA@Quantizing?5to?5?$CFd?5?$DN?5?$CFd?$CK?$CFd?$CK?$CFd?5colo@ 0051f008     sdl_image:jerror.obj
 0006:00020f8c       ??_C@_0CI@GHPOCOCL@?5?5?5?5?5?5?5?5?$CF4u?5?$CF4u?5?$CF4u?5?$CF4u?5?$CF4u?5?$CF4u?5@ 0051f02c     sdl_image:jerror.obj
 0006:00020fb4       ??_C@_0BJ@COPODLDN@Unexpected?5marker?50x?$CF02x?$AA@ 0051f054     sdl_image:jerror.obj
 0006:00020fd0       ??_C@_0CH@EHHJCMGA@Miscellaneous?5marker?50x?$CF02x?0?5len@ 0051f070     sdl_image:jerror.obj
 0006:00020ff8       ??_C@_0CB@BADBMAAB@?5?5?5?5with?5?$CFd?5x?5?$CFd?5thumbnail?5image@ 0051f098     sdl_image:jerror.obj
 0006:0002101c       ??_C@_0CO@KKPHGHBA@JFIF?5extension?5marker?3?5type?50x?$CF0@ 0051f0bc     sdl_image:jerror.obj
 0006:0002104c       ??_C@_0DM@JLHNPIBE@Warning?3?5thumbnail?5image?5size?5do@ 0051f0ec     sdl_image:jerror.obj
 0006:00021088       ??_C@_0DF@LOKNABIG@JFIF?5APP0?5marker?3?5version?5?$CFd?4?$CF02@ 0051f128     sdl_image:jerror.obj
 0006:000210c0       ??_C@_0CI@FKGPAJC@?5?5?5?5?5?5?5?5?$CF3d?5?$CF3d?5?$CF3d?5?$CF3d?5?$CF3d?5?$CF3d?5@ 0051f160     sdl_image:jerror.obj
 0006:000210e8       ??_C@_0N@HJHFKELG@End?5Of?5Image?$AA@ 0051f188     sdl_image:jerror.obj
 0006:000210f8       ??_C@_0BH@GIPOLIGC@Obtained?5EMS?5handle?5?$CFu?$AA@ 0051f198     sdl_image:jerror.obj
 0006:00021110       ??_C@_0BE@IPCOOGDJ@Freed?5EMS?5handle?5?$CFu?$AA@ 0051f1b0     sdl_image:jerror.obj
 0006:00021124       ??_C@_0BL@EMFIKBEK@Define?5Restart?5Interval?5?$CFu?$AA@ 0051f1c4     sdl_image:jerror.obj
 0006:00021140       ??_C@_0CL@KLDOJIKN@Define?5Quantization?5Table?5?$CFd?5?5pr@ 0051f1e0     sdl_image:jerror.obj
 0006:0002116c       ??_C@_0BM@MDIEILCE@Define?5Huffman?5Table?50x?$CF02x?$AA@ 0051f20c     sdl_image:jerror.obj
 0006:00021188       ??_C@_0CH@KIJGKPAA@Define?5Arithmetic?5Table?50x?$CF02x?3?5@ 0051f228     sdl_image:jerror.obj
 0006:000211b0       ??_C@_0CM@CAEPHFAA@Unknown?5APP14?5marker?5?$CInot?5Adobe?$CJ@ 0051f250     sdl_image:jerror.obj
 0006:000211dc       ??_C@_0CK@HCPFFNKJ@Unknown?5APP0?5marker?5?$CInot?5JFIF?$CJ?0?5@ 0051f27c     sdl_image:jerror.obj
 0006:00021208       ??_C@_0EC@EHPKAOHA@Adobe?5APP14?5marker?3?5version?5?$CFd?0?5@ 0051f2a8     sdl_image:jerror.obj
 0006:0002124c       ??_C@_0DO@EGLODMBB@Caution?3?5quantization?5tables?5are@ 0051f2ec     sdl_image:jerror.obj
 0006:0002128c       ??_C@_0BA@LIJBPGPA@6b?5?527?9Mar?91998?$AA@ 0051f32c     sdl_image:jerror.obj
 0006:0002129c       ??_C@_0CD@IMBKIDCD@Copyright?5?$CIC?$CJ?51998?0?5Thomas?5G?4?5La@ 0051f33c     sdl_image:jerror.obj
 0006:000212c0       ??_C@_0BE@FDPDCBIN@Write?5to?5XMS?5failed?$AA@ 0051f360     sdl_image:jerror.obj
 0006:000212d4       ??_C@_0BF@EKLGFGNM@Read?5from?5XMS?5failed?$AA@ 0051f374     sdl_image:jerror.obj
 0006:000212ec       ??_C@_0CH@LJLHCCHC@Image?5too?5wide?5for?5this?5implemen@ 0051f38c     sdl_image:jerror.obj
 0006:00021314       ??_C@_0CD@GCLFJCHC@Virtual?5array?5controller?5messed?5@ 0051f3b4     sdl_image:jerror.obj
 0006:00021338       ??_C@_0BP@BPKOBOIP@Unsupported?5marker?5type?50x?$CF02x?$AA@ 0051f3d8     sdl_image:jerror.obj
 0006:00021358       ??_C@_0CK@EPADOAKC@Application?5transferred?5too?5few?5@ 0051f3f8     sdl_image:jerror.obj
 0006:00021384       ??_C@_0DG@KALDLIJB@Write?5failed?5on?5temporary?5file?5?9@ 0051f424     sdl_image:jerror.obj
 0006:000213bc       ??_C@_0BO@GOBJOAAI@Seek?5failed?5on?5temporary?5file?$AA@ 0051f45c     sdl_image:jerror.obj
 0006:000213dc       ??_C@_0BO@EEPJGHHI@Read?5failed?5on?5temporary?5file?$AA@ 0051f47c     sdl_image:jerror.obj
 0006:000213fc       ??_C@_0CD@POKNOPOF@Failed?5to?5create?5temporary?5file?5@ 0051f49c     sdl_image:jerror.obj
 0006:00021420       ??_C@_0CM@HONLBDPH@Invalid?5JPEG?5file?5structure?3?5SOS@ 0051f4c0     sdl_image:jerror.obj
 0006:0002144c       ??_C@_0CN@HGJCMLNE@Invalid?5JPEG?5file?5structure?3?5two@ 0051f4ec     sdl_image:jerror.obj
 0006:0002147c       ??_C@_0CK@HMKECJK@Unsupported?5JPEG?5process?3?5SOF?5ty@ 0051f51c     sdl_image:jerror.obj
 0006:000214a8       ??_C@_0DA@GJIJGINK@Invalid?5JPEG?5file?5structure?3?5mis@ 0051f548     sdl_image:jerror.obj
 0006:000214d8       ??_C@_0CN@IHJJJAFJ@Invalid?5JPEG?5file?5structure?3?5two@ 0051f578     sdl_image:jerror.obj
 0006:00021508       ??_C@_0CH@NHMNHHIB@Cannot?5quantize?5to?5more?5than?5?$CFd?5@ 0051f5a8     sdl_image:jerror.obj
 0006:00021530       ??_C@_0CI@PLMPLCNO@Cannot?5quantize?5to?5fewer?5than?5?$CFd@ 0051f5d0     sdl_image:jerror.obj
 0006:00021558       ??_C@_0CO@HPDBAEEA@Cannot?5quantize?5more?5than?5?$CFd?5col@ 0051f5f8     sdl_image:jerror.obj
 0006:00021588       ??_C@_0BO@DJPLELIB@Insufficient?5memory?5?$CIcase?5?$CFd?$CJ?$AA@ 0051f628     sdl_image:jerror.obj
 0006:000215a8       ??_C@_0CL@GNLFDFCL@Not?5a?5JPEG?5file?3?5starts?5with?50x?$CF@ 0051f648     sdl_image:jerror.obj
 0006:000215d4       ??_C@_0CK@CCHKIENB@Quantization?5table?50x?$CF02x?5was?5no@ 0051f674     sdl_image:jerror.obj
 0006:00021600       ??_C@_0CC@BKPLBDLJ@JPEG?5datastream?5contains?5no?5imag@ 0051f6a0     sdl_image:jerror.obj
 0006:00021624       ??_C@_0CF@BKANFCCL@Huffman?5table?50x?$CF02x?5was?5not?5def@ 0051f6c4     sdl_image:jerror.obj
 0006:0002164c       ??_C@_0BM@HJHFKLAF@Backing?5store?5not?5supported?$AA@ 0051f6ec     sdl_image:jerror.obj
 0006:00021668       ??_C@_0CO@BEHINNOI@Requested?5feature?5was?5omitted?5at@ 0051f708     sdl_image:jerror.obj
 0006:00021698       ??_C@_0BE@EOAAHHJ@Not?5implemented?5yet?$AA@ 0051f738     sdl_image:jerror.obj
 0006:000216ac       ??_C@_0CH@EFBBPPCK@Invalid?5color?5quantization?5mode?5@ 0051f74c     sdl_image:jerror.obj
 0006:000216d4       ??_C@_0CH@NIBDNILP@Scan?5script?5does?5not?5transmit?5al@ 0051f774     sdl_image:jerror.obj
 0006:000216fc       ??_C@_0DO@OPNPKGO@Cannot?5transcode?5due?5to?5multiple@ 0051f79c     sdl_image:jerror.obj
 0006:0002173c       ??_C@_0BM@KEKMMNGA@Premature?5end?5of?5input?5file?$AA@ 0051f7dc     sdl_image:jerror.obj
 0006:00021758       ??_C@_0BB@JJAIKFBB@Empty?5input?5file?$AA@ 0051f7f8     sdl_image:jerror.obj
 0006:0002176c       ??_C@_0CP@EKFPGPNP@Maximum?5supported?5image?5dimensio@ 0051f80c     sdl_image:jerror.obj
 0006:0002179c       ??_C@_0CB@LFBMFPHI@Missing?5Huffman?5code?5table?5entry@ 0051f83c     sdl_image:jerror.obj
 0006:000217c0       ??_C@_0CB@LLDOGNPJ@Huffman?5code?5size?5table?5overflow@ 0051f860     sdl_image:jerror.obj
 0006:000217e4       ??_C@_0CI@EKDDDHFF@Fractional?5sampling?5not?5implemen@ 0051f884     sdl_image:jerror.obj
 0006:0002180c       ??_C@_0CP@IDOBLGGD@Output?5file?5write?5error?5?9?9?9?5out?5@ 0051f8ac     sdl_image:jerror.obj
 0006:0002183c       ??_C@_0BG@BALCKDNL@Input?5file?5read?5error?$AA@ 0051f8dc     sdl_image:jerror.obj
 0006:00021854       ??_C@_0CB@DMGINPNE@Didn?8t?5expect?5more?5than?5one?5scan@ 0051f8f4     sdl_image:jerror.obj
 0006:00021878       ??_C@_0BE@DGJBKIEB@Write?5to?5EMS?5failed?$AA@ 0051f918     sdl_image:jerror.obj
 0006:0002188c       ??_C@_0BF@CPNENPBA@Read?5from?5EMS?5failed?$AA@ 0051f92c     sdl_image:jerror.obj
 0006:000218a4       ??_C@_0CF@DAGGEAPM@Empty?5JPEG?5image?5?$CIDNL?5not?5suppor@ 0051f944     sdl_image:jerror.obj
 0006:000218cc       ??_C@_0BD@DIMECAOP@Bogus?5DQT?5index?5?$CFd?$AA@ 0051f96c     sdl_image:jerror.obj
 0006:000218e0       ??_C@_0BD@KJHFPHIC@Bogus?5DHT?5index?5?$CFd?$AA@ 0051f980     sdl_image:jerror.obj
 0006:000218f4       ??_C@_0BF@CLIOOJFM@Bogus?5DAC?5value?50x?$CFx?$AA@ 0051f994     sdl_image:jerror.obj
 0006:0002190c       ??_C@_0BD@LDBBBMFL@Bogus?5DAC?5index?5?$CFd?$AA@ 0051f9ac     sdl_image:jerror.obj
 0006:00021920       ??_C@_0CF@JDLOPNGO@Unsupported?5color?5conversion?5req@ 0051f9c0     sdl_image:jerror.obj
 0006:00021948       ??_C@_0CG@BEBDNOCG@Too?5many?5color?5components?3?5?$CFd?0?5m@ 0051f9e8     sdl_image:jerror.obj
 0006:00021970       ??_C@_0CF@LAEFHNAH@CCIR601?5sampling?5not?5implemented@ 0051fa10     sdl_image:jerror.obj
 0006:00021998       ??_C@_0BM@PKHCPJDH@Suspension?5not?5allowed?5here?$AA@ 0051fa38     sdl_image:jerror.obj
 0006:000219b4       ??_C@_0CL@JKHIPJLJ@Buffer?5passed?5to?5JPEG?5library?5is@ 0051fa54     sdl_image:jerror.obj
 0006:000219e0       ??_C@_0BL@CBOEEPLK@Bogus?5virtual?5array?5access?$AA@ 0051fa80     sdl_image:jerror.obj
 0006:00021a00       ??_C@_0EN@DKAEGIBH@JPEG?5parameter?5struct?5mismatch?3?5@ 0051faa0     sdl_image:jerror.obj
 0006:00021a50       ??_C@_0CK@BAMFIBMM@Improper?5call?5to?5JPEG?5library?5in@ 0051faf0     sdl_image:jerror.obj
 0006:00021a7c       ??_C@_0CA@MJDDICLK@Invalid?5scan?5script?5at?5entry?5?$CFd?$AA@ 0051fb1c     sdl_image:jerror.obj
 0006:00021a9c       ??_C@_0BH@HMMHPOPE@Bogus?5sampling?5factors?$AA@ 0051fb3c     sdl_image:jerror.obj
 0006:00021ab4       ??_C@_0DH@HIKEGPKP@Invalid?5progressive?5parameters?5a@ 0051fb54     sdl_image:jerror.obj
 0006:00021aec       ??_C@_0DH@LNGGEGOL@Invalid?5progressive?5parameters?5S@ 0051fb8c     sdl_image:jerror.obj
 0006:00021b24       ??_C@_0CD@LDBDNLHK@Unsupported?5JPEG?5data?5precision?5@ 0051fbc4     sdl_image:jerror.obj
 0006:00021b48       ??_C@_0BM@OEMICEFD@Invalid?5memory?5pool?5code?5?$CFd?$AA@ 0051fbe8     sdl_image:jerror.obj
 0006:00021b64       ??_C@_0DA@HLEOHNPA@Sampling?5factors?5too?5large?5for?5i@ 0051fc04     sdl_image:jerror.obj
 0006:00021b94       ??_C@_0DN@ELFKFKL@Wrong?5JPEG?5library?5version?3?5libr@ 0051fc34     sdl_image:jerror.obj
 0006:00021bd4       ??_C@_0BE@OGLAEMOG@Bogus?5marker?5length?$AA@ 0051fc74     sdl_image:jerror.obj
 0006:00021be8       ??_C@_0BG@NEGIHEMC@Bogus?5JPEG?5colorspace?$AA@ 0051fc88     sdl_image:jerror.obj
 0006:00021c00       ??_C@_0BH@BGDIGLHC@Bogus?5input?5colorspace?$AA@ 0051fca0     sdl_image:jerror.obj
 0006:00021c18       ??_C@_0BP@EOFJNLFD@Bogus?5Huffman?5table?5definition?$AA@ 0051fcb8     sdl_image:jerror.obj
 0006:00021c38       ??_C@_0CI@MBJANLAP@IDCT?5output?5block?5size?5?$CFd?5not?5su@ 0051fcd8     sdl_image:jerror.obj
 0006:00021c60       ??_C@_0BN@OJEJKKDL@DCT?5coefficient?5out?5of?5range?$AA@ 0051fd00     sdl_image:jerror.obj
 0006:00021c80       ??_C@_0BP@ONFLCDHG@Invalid?5component?5ID?5?$CFd?5in?5SOS?$AA@ 0051fd20     sdl_image:jerror.obj
 0006:00021ca0       ??_C@_0BK@DKALDNKG@Bogus?5buffer?5control?5mode?$AA@ 0051fd40     sdl_image:jerror.obj
 0006:00021cbc       ??_C@_0CF@DENLILGA@MAX_ALLOC_CHUNK?5is?5wrong?0?5please@ 0051fd5c     sdl_image:jerror.obj
 0006:00021ce4       ??_C@_0CA@FDMPGPNI@ALIGN_TYPE?5is?5wrong?0?5please?5fix?$AA@ 0051fd84     sdl_image:jerror.obj
 0006:00021d04       ??_C@_0DJ@KONAFFHE@Sorry?0?5there?5are?5legal?5restricti@ 0051fda4     sdl_image:jerror.obj
 0006:00021d40       ??_C@_0BG@MIBALFBH@Bogus?5message?5code?5?$CFd?$AA@ 0051fde0     sdl_image:jerror.obj
 0006:00021d58       ??_C@_03OFAPEBGM@?$CFs?6?$AA@ 0051fdf8     sdl_image:jerror.obj
 0006:00021d60       _jpeg_natural_order        0051fe00     sdl_image:jutils.obj
 0006:00022070       __real@3fd1a855de72ab5d    00520110     sdl_image:jddctmgr.obj
 0006:00022078       __real@3fe1517a7bc720bb    00520118     sdl_image:jddctmgr.obj
 0006:00022080       __real@3fe92469c0a7bf3b    00520120     sdl_image:jddctmgr.obj
 0006:00022088       __real@3ff2d062ef6c11aa    00520128     sdl_image:jddctmgr.obj
 0006:00022090       __real@3ff4e7ae914d6fca    00520130     sdl_image:jddctmgr.obj
 0006:00022098       __real@3ff63150b14861ef    00520138     sdl_image:jddctmgr.obj
 0006:000221b0       __real@3ff1517a7bc720bb    00520250     sdl_image:jidctflt.obj
 0006:000221b8       __real@4004e7ae914d6fca    00520258     sdl_image:jidctflt.obj
 0006:000221c0       __real@3ffd906bcf310028    00520260     sdl_image:jidctflt.obj
 0006:000221c8       __real@3ff6a09e6665983e    00520268     sdl_image:jidctflt.obj
 0006:000221d0       ??_C@_0CC@ILLCLCJL@MPEG?9?$CFd?5Layer?5?$CFd?5?$CFdkbit?1s?5?$CFdHz?5?$CF@ 00520270     libsmpegx:smpeg.obj
 0006:000221f4       ??_C@_06BDDNELGJ@stereo?$AA@ 00520294     libsmpegx:smpeg.obj
 0006:000221fc       ??_C@_04JLBGMNAJ@mono?$AA@ 0052029c     libsmpegx:smpeg.obj
 0006:00022204       ??_7MPEG@@6B@              005202a4     libsmpegx:MPEG.obj
 0006:00022214       ??_C@_0CE@BDNMKCLP@No?5audio?1video?5stream?5found?5in?5M@ 005202b4     libsmpegx:MPEG.obj
 0006:00022238       __real@3fe921fb54442d18    005202d8     libsmpegx:mpegtoraw.obj
 0006:00022240       __real@4030000000000000    005202e0     libsmpegx:mpegtoraw.obj
 0006:00022248       __real@4040000000000000    005202e8     libsmpegx:mpegtoraw.obj
 0006:00022250       __real@4050000000000000    005202f0     libsmpegx:mpegtoraw.obj
 0006:00022440       ??_C@_0CL@HBMFPLIJ@Could?5not?5find?5the?5beginning?5of?5@ 005204e0     libsmpegx:MPEGsystem.obj
 0006:0002246c       ??_7MPEGsystem@@6B@        0052050c     libsmpegx:MPEGsystem.obj
 0006:00022494       ??_C@_04DPHCJMMM@Read?$AA@ 00520534     libsmpegx:MPEGsystem.obj
 0006:0002249c       ??_C@_0CC@BOADAMHG@Skiping?5to?5?$CF02d?3?$CF02d?5?$CI?$CF02d?3?$CF02d?$CJ@ 0052053c     libsmpegx:MPEGsystem.obj
 0006:000224c0       __real@3fb1111111111111    00520560     libsmpegx:MPEGsystem.obj
 0006:000224c8       __real@3f91111111111111    00520568     libsmpegx:MPEGsystem.obj
 0006:000224d0       __real@3f911570aad666ad    00520570     libsmpegx:MPEGsystem.obj
 0006:000224d8       __real@3f947ae147ae147b    00520578     libsmpegx:MPEGsystem.obj
 0006:000224e0       __real@3fa1111111111111    00520580     libsmpegx:MPEGsystem.obj
 0006:000224e8       __real@3fa11570aad666ad    00520588     libsmpegx:MPEGsystem.obj
 0006:000224f0       __real@3fa47ae147ae147b    00520590     libsmpegx:MPEGsystem.obj
 0006:000224f8       __real@3fa5555555555555    00520598     libsmpegx:MPEGsystem.obj
 0006:00022500       __real@3fa55c2b25b35147    005205a0     libsmpegx:MPEGsystem.obj
 0006:00022508       __real@40ac200000000000    005205a8     libsmpegx:MPEGsystem.obj
 0006:00022510       __real@404e000000000000    005205b0     libsmpegx:MPEGsystem.obj
 0006:00022518       __real@40f5f90000000000    005205b8     libsmpegx:MPEGsystem.obj
 0006:00022520       ??_7MPEGaudio@@6B@         005205c0     libsmpegx:MPEGaudio.obj
 0006:00022550       ??_7MPEGaudioaction@@6B@   005205f0     libsmpegx:MPEGaudio.obj
 0006:0002257c       ??_7MPEGaction@@6B@        0052061c     libsmpegx:MPEGaudio.obj
 0006:000225a0       ??_C@_0CB@MJHFGONE@Warning?3?5incorrect?5audio?5format?6@ 00520640     libsmpegx:MPEGaudio.obj
 0006:000225c4       ??_C@_0BP@KKFDKFCD@Audio?3?5Skipping?5?$CFf?5seconds?4?4?4?6?$AA@ 00520664     libsmpegx:MPEGaudio.obj
 0006:000225e4       ??_C@_0BO@GMLFGKPD@Not?5a?5valid?5MPEG?5video?5stream?$AA@ 00520684     libsmpegx:MPEGvideo.obj
 0006:00022608       ??_7MPEGvideo@@6B@         005206a8     libsmpegx:MPEGvideo.obj
 0006:00022658       ??_7MPEGvideoaction@@6B@   005206f8     libsmpegx:MPEGvideo.obj
 0006:000226a0       ??_C@_0BP@NOPLAALL@Video?3?5Skipping?5?$CFf?5seconds?4?4?4?6?$AA@ 00520740     libsmpegx:MPEGvideo.obj
 0006:000226c0       ??_C@_0BJ@CBFFAOMN@Not?5an?5MPEG?5video?5stream?$AA@ 00520760     libsmpegx:MPEGvideo.obj
 0006:000226e0       __real@3fe6a09e667f6ee7    00520780     libsmpegx:mpeglayer3.obj
 0006:000226e8       __real@3feae89f995b2417    00520788     libsmpegx:mpeglayer3.obj
 0006:000226f0       __real@406a400000000000    00520790     libsmpegx:mpeglayer3.obj
 0006:000226f8       __real@3ff5555555555555    00520798     libsmpegx:mpeglayer3.obj
 0006:00022700       __real@3fd0c152572c7e55    005207a0     libsmpegx:mpeglayer3.obj
 0006:00022708       __real@3fb65718743b531c    005207a8     libsmpegx:mpeglayer3.obj
 0006:00022710       __real@3fc65718743b531c    005207b0     libsmpegx:mpeglayer3.obj
 0006:00022718       __real@3fc0c152572c7e55    005207b8     libsmpegx:mpeglayer3.obj
 0006:00022720       __real@3fa65718743b531c    005207c0     libsmpegx:mpeglayer3.obj
 0006:00022728       __real@3f3504f4            005207c8     libsmpegx:mpeglayer3.obj
 0006:0002272c       ??_C@_0M@HBKDDFMJ@Notchecked?$CB?$AA@ 005207cc     libsmpegx:mpeglayer3.obj
 0006:00022738       __real@3fe0c152572c7e55    005207d8     libsmpegx:mpeglayer3.obj
 0006:00022740       __real@3ff0c152572c7e55    005207e0     libsmpegx:mpeglayer3.obj
 0006:00022748       ?frequencies@MPEGaudio@@0QAY02$$CBHA 005207e8     libsmpegx:mpegtable.obj
 0006:00022760       ?bitrate@MPEGaudio@@0QAY12P@$$CBHA 00520800     libsmpegx:mpegtable.obj
 0006:000228c8       ?scalefactorstable@MPEGaudio@@0QBMB 00520968     libsmpegx:mpegtable.obj
 0006:000229c8       ?filter@MPEGaudio@@0QBMB   00520a68     libsmpegx:mpegtable.obj
 0006:00026058       ??_7MPEG_ring@@6B@         005240f8     libsmpegx:MPEGring.obj
 0006:0002605c       ??_C@_0BL@LGJMDAC@Alloc?5?3?5Not?5enough?5memory?6?$AA@ 005240fc     libsmpegx:MPEGlist.obj
 0006:00026078       __real@3feccccccccccccd    00524118     libsmpegx:gdith.obj
 0006:00026080       __real@4010000000000000    00524120     libsmpegx:gdith.obj
 0006:00026288       ?scan@@3QAY07$$CBHA        00524328     libsmpegx:video.obj
 0006:000263c8       ??_C@_0BI@FMAMCFEM@mpegVidRsrc?5ParseSlice?6?$AA@ 00524468     libsmpegx:video.obj
 0006:000263e0       ??_C@_0BK@KGJOCJDO@mpegVidRsrc?5ParsePicture?6?$AA@ 00524480     libsmpegx:video.obj
 0006:000263fc       ??_C@_0BG@BKJDAHIN@mpegVidRsrc?5ParseGOP?6?$AA@ 0052449c     libsmpegx:video.obj
 0006:00026414       ??_C@_0BK@GIMLEPEB@mpegVidRsrc?5ParseSeqHead?6?$AA@ 005244b4     libsmpegx:video.obj
 0006:00026430       ??_C@_0CB@JJBELKGC@Invalid?5sequence?5in?5video?5stream@ 005244d0     libsmpegx:video.obj
 0006:00026454       ??_C@_0BP@PAJOANH@Fatal?5error?4?5Ring?5buffer?5full?4?$AA@ 005244f4     libsmpegx:video.obj
 0006:00026474       ??_C@_0DF@INLCKOCA@Warning?3?5picture?5block?5before?5se@ 00524514     libsmpegx:video.obj
 0006:000264ac       ??_C@_0DI@OIFLLAGI@ERROR?3?5?5MPEG?91?5Streams?5with?5D?9fr@ 0052454c     libsmpegx:video.obj
 0006:000265e8       ?coded_block_pattern@@3QBUcoded_block_pattern_entry@@B 00524688     libsmpegx:decoders.obj
 0006:000275e8       ?dct_dc_size_luminance@@3QBUdct_dc_size_entry@@B 00525688     libsmpegx:decoders.obj
 0006:000276e8       ?dct_dc_size_luminance1@@3QBUdct_dc_size_entry@@B 00525788     libsmpegx:decoders.obj
 0006:00027768       ?dct_dc_size_chrominance@@3QBUdct_dc_size_entry@@B 00525808     libsmpegx:decoders.obj
 0006:00027868       ?dct_dc_size_chrominance1@@3QBUdct_dc_size_entry@@B 00525908     libsmpegx:decoders.obj
 0006:00027968       ?dct_coeff_tbl_0@@3QBGB    00525a08     libsmpegx:decoders.obj
 0006:00027b68       ?dct_coeff_tbl_1@@3QBGB    00525c08     libsmpegx:decoders.obj
 0006:00027b88       ?dct_coeff_tbl_2@@3QBGB    00525c28     libsmpegx:decoders.obj
 0006:00027b90       ?dct_coeff_tbl_3@@3QBGB    00525c30     libsmpegx:decoders.obj
 0006:00027b98       ?dct_coeff_next@@3QBGB     00525c38     libsmpegx:decoders.obj
 0006:00027d98       ?dct_coeff_first@@3QBGB    00525e38     libsmpegx:decoders.obj
 0006:0002d738       ?ht@MPEGaudio@@0QBUHUFFMANCODETABLE@@B 0052b7d8     libsmpegx:huffmantable.obj
 0006:0002da68       __real@40c4e7c000000000    0052bb08     libsmpegx:jrevdct.obj
 0006:0002da70       ??_C@_0CJ@LJEFNILB@?6Improper?5or?5missing?5sequence?5en@ 0052bb10     libsmpegx:util.obj
 0006:0002da9c       ??_C@_0BH@CMLGDNHJ@Unexpected?5read?5error?4?$AA@ 0052bb3c     libsmpegx:util.obj
 0006:0002dab4       ??_C@_01EEMJAFIK@?6?$AA@   0052bb54     libsmpegx:util.obj
 0006:0002dad4       ??_C@_06IDFKHCBC@?2?$DP?$DP?2D?3?$AA@ 0052bb74     xapilib:launch.obj
 0006:0002daec       ??_C@_06JHKEECDB@?2?$DP?$DP?2Y?3?$AA@ 0052bb8c     xapilib:bootutil.obj
 0006:0002daf4       ??_C@_08FCIBIDEF@t?3?2$u?2?$CFs?$AA@ 0052bb94     xapilib:bootutil.obj
 0006:0002db00       ??_C@_0BA@PHOGFBJD@contentmeta?4xbx?$AA@ 0052bba0     xapilib:bootutil.obj
 0006:0002db10       ??_C@_06EJNCFCDC@t?3?2$u?2?$AA@ 0052bbb0     xapilib:bootutil.obj
 0006:0002db24       ??_C@_0CD@LFDIGKDL@?2Device?2Harddisk0?2partition1?2UDA@ 0052bbc4     xapilib:xapiinit.obj
 0006:0002db48       ??_C@_06JOLOLLFF@?2?$DP?$DP?2U?3?$AA@ 0052bbe8     xapilib:xapiinit.obj
 0006:0002db50       ??_C@_0CD@HOGELJJO@?2Device?2Harddisk0?2partition1?2TDA@ 0052bbf0     xapilib:xapiinit.obj
 0006:0002db74       ??_C@_06JPHMNBGC@?2?$DP?$DP?2T?3?$AA@ 0052bc14     xapilib:xapiinit.obj
 0006:0002db7c       ??_C@_0BO@GJJLMLHN@?2Device?2Harddisk0?2partition1?2?$AA@ 0052bc1c     xapilib:xapiinit.obj
 0006:0002db9c       ??_C@_0P@DOJDIGAH@?2Device?2CdRom0?$AA@ 0052bc3c     xapilib:xapiinit.obj
 0006:0002dc8c       ??_C@_1CA@NCOAEKIF@?$AA?$CF?$AAl?$AAc?$AA?$CF?$AAl?$AAs?$AA?$CF?$AAl?$AAc?$AA?$CF?$AAl?$AAs?$AA?$CF?$AAl?$AAs?$AA?$AA@ 0052bd2c     xapilib:xapiinit.obj
 0006:0002dcac       ??_C@_09ECGHCENE@$$XSIMAGE?$AA@ 0052bd4c     xapilib:xapiinit.obj
 0006:0002dcb8       ??_C@_09IHMABKFK@$$XTIMAGE?$AA@ 0052bd58     xapilib:xapiinit.obj
 0006:0002dcc4       ??_C@_08BBCMAOON@$$XTINFO?$AA@ 0052bd64     xapilib:xapiinit.obj
 0006:0002dcd0       ??_C@_05CLMJGDKL@?$CF08lx?$AA@ 0052bd70     xapilib:xapiinit.obj
 0006:0002dcd8       __tls_used                 0052bd78     xapilib:xapitls.obj
 0006:0002dcf0       ??_C@_06JNDKGPDL@?2?$DP?$DP?2W?3?$AA@ 0052bd90     xapilib:contsig.obj
 0006:0002ddd8       _XapipContentDirectoryTemplate 0052be78     xapilib:contsig.obj
 0006:0002def8       _XapiHardDisk              0052bf98     xapilib:pathmisc.obj
 0006:0002df00       ??_C@_0BN@OGMPKPAN@?2Device?2Harddisk0?2partition0?$AA@ 0052bfa0     xapilib:pathmisc.obj
 0006:0002df20       ??_C@_06JGGGCIAG@?2?$DP?$DP?2X?3?$AA@ 0052bfc0     xapilib:pathmisc.obj
 0006:0002df28       ??_C@_06IOMNPHME@?2?$DP?$DP?2N?3?$AA@ 0052bfc8     xapilib:pathmisc.obj
 0006:0002df30       ??_C@_06JFOCPMGI@?2?$DP?$DP?2Z?3?$AA@ 0052bfd0     xapilib:pathmisc.obj
 0006:0002df8c       __real@bf000000            0052c02c     d3d8:state.obj
 0006:0002df90       __real@46293e5939a08cea    0052c030     d3d8:clear.obj
 0006:0002df98       __real@407fff0000000000    0052c038     d3d8:clear.obj
 0006:0002dfa0       __real@4b7fffff            0052c040     d3d8:clear.obj
 0006:0002dfa4       __real@477fff00            0052c044     d3d8:clear.obj
 0006:0002dfa8       __real@408a7fac            0052c048     d3d8:math.obj
 0006:0002dfac       __real@c0851592            0052c04c     d3d8:math.obj
 0006:0002dfb0       __real@40400000            0052c050     d3d8:math.obj
 0006:0002dfb4       __real@43800000            0052c054     d3d8:lazy.obj
 0006:0002dfb8       __real@be596d0b            0052c058     d3d8:lazy.obj
 0006:0002dfbc       __real@bdb8aa0a            0052c05c     d3d8:lazy.obj
 0006:0002dfc0       __real@3b808081            0052c060     d3d8:lazy.obj
 0006:0002dfc8       __real@40efffe000000000    0052c068     d3dx8:pngrtran.obj
 0006:0002dfd0       __real@3ef0001000100010    0052c070     d3dx8:pngrtran.obj
 0006:0002dfd8       __real@3f70000000000000    0052c078     d3dx8:pngrtran.obj
 0006:0002dfe0       __real@406fe00000000000    0052c080     d3dx8:pngrtran.obj
 0006:0002dfe8       __real@407f400000000000    0052c088     d3dx8:pngrutil.obj
 0006:0002dff0       __real@40e631e000000000    0052c090     d3dx8:pngrutil.obj
 0006:0002dff8       __real@47c35000            0052c098     d3dx8:pngrutil.obj
 0006:0002e000       __real@3fdd1758e0000000    0052c0a0     d3dx8:pngset.obj
 0006:0002e008       __real@44fa0000            0052c0a8     dsound:dsapi.obj
 0006:0002e00c       __real@37aec33e            0052c0ac     dsound:dsapi.obj
 0006:0002e010       ??_7CDirectSound@DirectSound@@6B@ 0052c0b0     dsound:dsapi.obj
 0006:0002e020       ??_7CDirectSoundVoiceSettings@DirectSound@@6B@ 0052c0c0     dsound:dsapi.obj
 0006:0002e030       ??_7CDirectSoundVoice@DirectSound@@6B@ 0052c0d0     dsound:dsapi.obj
 0006:0002e040       ??_7CDirectSoundBuffer@DirectSound@@6B@ 0052c0e0     dsound:dsapi.obj
 0006:0002e050       ??_7CDirectSoundBufferSettings@DirectSound@@6B@ 0052c0f0     dsound:dsapi.obj
 0006:0002e060       ??_7CRefCount@DirectSound@@6B@ 0052c100     dsound:dsapi.obj
 0006:0002e060       ??_7CDirectSoundSettings@DirectSound@@6B@ 0052c100     dsound:dsapi.obj
 0006:0002e070       ??_7CMcpxAPU@DirectSound@@6BCMcpxCore@1@@ 0052c110     dsound:mcpapu.obj
 0006:0002e074       ??_7CMcpxAPU@DirectSound@@6BCRefCount@1@@ 0052c114     dsound:mcpapu.obj
 0006:0002e084       ??_7CMcpxBufferSgeHeap@DirectSound@@6B@ 0052c124     dsound:heap.obj
 0006:0002e088       ??_7CMcpxSlopMemoryHeap@DirectSound@@6B@ 0052c128     dsound:heap.obj
 0006:0002e098       ??_7CMcpxVoiceClient@DirectSound@@6B@ 0052c138     dsound:mcpvoice.obj
 0006:0002e0c0       ??_7CMcpxBuffer@DirectSound@@6B@ 0052c160     dsound:mcpbuf.obj
 0006:0002e0e8       __real@3a03126f            0052c188     dsound:i3dl2.obj
 0006:0002e0ec       __real@40c90fdb            0052c18c     dsound:i3dl2.obj
 0006:0002e0f0       __real@473b8000            0052c190     dsound:i3dl2.obj
 0006:0002e0f4       ??_7CMcpxCore@DirectSound@@6B@ 0052c194     dsound:mcpxcore.obj
 0006:0002e0f8       ??_7out_of_range@std@@6B@  0052c198     libcpmt:string.obj
 0006:0002e100       ??_C@_0BI@CFPLBAOH@invalid?5string?5position?$AA@ 0052c1a0     libcpmt:string.obj
 0006:0002e118       ??_C@_0BA@JFNIOLAK@string?5too?5long?$AA@ 0052c1b8     libcpmt:string.obj
 0006:0002e128       ??_7bad_alloc@std@@6B@     0052c1c8     libcpmt:nomemory.obj
 0006:0002e130       ??_C@_0P@GHFPNOJB@bad?5allocation?$AA@ 0052c1d0     libcpmt:nomemory.obj
 0006:0002e160       ??_7exception@@6B@         0052c200     LIBCMT:stdexcpt.obj
 0006:0002e168       ??_C@_0BC@EOODALEL@Unknown?5exception?$AA@ 0052c208     LIBCMT:stdexcpt.obj
 0006:0002e17c       ??_7type_info@@6B@         0052c21c     LIBCMT:typinfo.obj
 0006:0002e2f4       ??_C@_02LMMGGCAJ@?3?5?$AA@ 0052c394     LIBCMT:perror.obj
 0006:0002e314       ??_C@_05KLBDPFGC@e?$CL000?$AA@ 0052c3b4     LIBCMT:cvt.obj
 0006:0002e3b0       ___lookuptable             0052c450     LIBCMT:output.obj
 0006:0002e40c       ___nullstring              0052c4ac     LIBCMT:output.obj
 0006:0002e414       ___wnullstring             0052c4b4     LIBCMT:output.obj
 0006:0002e424       ??_C@_09KLGCKDOD@Program?3?5?$AA@ 0052c4c4     LIBCMT:secfail.obj
 0006:0002e430       ??_C@_02PHMGELLB@?6?6?$AA@ 0052c4d0     LIBCMT:secfail.obj
 0006:0002e434       ??_C@_03KHICJKCI@?4?4?4?$AA@ 0052c4d4     LIBCMT:secfail.obj
 0006:0002e438       ??_C@_0BH@DNAGHKFM@?$DMprogram?5name?5unknown?$DO?$AA@ 0052c4d8     LIBCMT:secfail.obj
 0006:0002e450       ??_C@_0KA@JEHFIFGP@A?5buffer?5overrun?5has?5been?5detect@ 0052c4f0     LIBCMT:secfail.obj
 0006:0002e4f0       ??_C@_0BJ@MDEKIEOJ@Buffer?5overrun?5detected?$CB?$AA@ 0052c590     LIBCMT:secfail.obj
 0006:0002e510       ??_C@_0LB@BPLHHLFD@A?5security?5error?5of?5unknown?5caus@ 0052c5b0     LIBCMT:secfail.obj
 0006:0002e5c4       ??_C@_0CD@GMKACBEK@Unknown?5security?5failure?5detecte@ 0052c664     LIBCMT:secfail.obj
 0006:0002e668       ___newctype                0052c708     LIBCMT:ctype.obj
 0006:0002e968       __wctype                   0052ca08     LIBCMT:ctype.obj
 0006:0002eb8c       ??_C@_0L@KDOEJCKC@_nextafter?$AA@ 0052cc2c     LIBCMT:fpexcept.obj
 0006:0002eb98       ??_C@_05JGDBENOH@_logb?$AA@ 0052cc38     LIBCMT:fpexcept.obj
 0006:0002eba0       ??_C@_03ONILCKOB@_yn?$AA@  0052cc40     LIBCMT:fpexcept.obj
 0006:0002eba4       ??_C@_03NAKIGLHK@_y1?$AA@  0052cc44     LIBCMT:fpexcept.obj
 0006:0002eba8       ??_C@_03MJLDFKDL@_y0?$AA@  0052cc48     LIBCMT:fpexcept.obj
 0006:0002ebac       ??_C@_05GKKHEGJL@frexp?$AA@ 0052cc4c     LIBCMT:fpexcept.obj
 0006:0002ebb4       ??_C@_04KEPJIHGP@fmod?$AA@ 0052cc54     LIBCMT:fpexcept.obj
 0006:0002ebbc       ??_C@_06MEIMCGCF@_hypot?$AA@ 0052cc5c     LIBCMT:fpexcept.obj
 0006:0002ebc4       ??_C@_05KBKMEMPO@_cabs?$AA@ 0052cc64     LIBCMT:fpexcept.obj
 0006:0002ebcc       ??_C@_05CEJMAHNP@ldexp?$AA@ 0052cc6c     LIBCMT:fpexcept.obj
 0006:0002ebd4       ??_C@_04EHEDPDJG@modf?$AA@ 0052cc74     LIBCMT:fpexcept.obj
 0006:0002ebdc       ??_C@_04ODHECPBC@fabs?$AA@ 0052cc7c     LIBCMT:fpexcept.obj
 0006:0002ebe4       ??_C@_05PBJFFIGL@floor?$AA@ 0052cc84     LIBCMT:fpexcept.obj
 0006:0002ebec       ??_C@_04GFPJNGEK@ceil?$AA@ 0052cc8c     LIBCMT:fpexcept.obj
 0006:0002ebf4       ??_C@_03IIINPABG@tan?$AA@  0052cc94     LIBCMT:fpexcept.obj
 0006:0002ebf8       ??_C@_03LALBNOCG@cos?$AA@  0052cc98     LIBCMT:fpexcept.obj
 0006:0002ebfc       ??_C@_03BLEJJJBH@sin?$AA@  0052cc9c     LIBCMT:fpexcept.obj
 0006:0002ec00       ??_C@_04EIAKFFMI@sqrt?$AA@ 0052cca0     LIBCMT:fpexcept.obj
 0006:0002ec08       ??_C@_05KNGEOGJB@atan2?$AA@ 0052cca8     LIBCMT:fpexcept.obj
 0006:0002ec10       ??_C@_04MLLJIGOK@atan?$AA@ 0052ccb0     LIBCMT:fpexcept.obj
 0006:0002ec18       ??_C@_04PDIFKINK@acos?$AA@ 0052ccb8     LIBCMT:fpexcept.obj
 0006:0002ec20       ??_C@_04FIHNOPOL@asin?$AA@ 0052ccc0     LIBCMT:fpexcept.obj
 0006:0002ec28       ??_C@_04FJHINJAO@tanh?$AA@ 0052ccc8     LIBCMT:fpexcept.obj
 0006:0002ec30       ??_C@_04HPJJNFIM@cosh?$AA@ 0052ccd0     LIBCMT:fpexcept.obj
 0006:0002ec38       ??_C@_04COOMCNPB@sinh?$AA@ 0052ccd8     LIBCMT:fpexcept.obj
 0006:0002ec40       ??_C@_05HGHHAHAP@log10?$AA@ 0052cce0     LIBCMT:fpexcept.obj
 0006:0002ec48       ??_C@_03MGHMBJCF@log?$AA@  0052cce8     LIBCMT:fpexcept.obj
 0006:0002ec4c       ??_C@_03JGHBODFD@pow?$AA@  0052ccec     LIBCMT:fpexcept.obj
 0006:0002ec50       ??_C@_03KHJOGHMM@exp?$AA@  0052ccf0     LIBCMT:fpexcept.obj
 0006:0002ec54       ??_C@_0BG@KLEAJEFJ@Illegal?5byte?5sequence?$AA@ 0052ccf4     LIBCMT:syserr.obj
 0006:0002ec6c       ??_C@_0BE@ICMCHPHH@Directory?5not?5empty?$AA@ 0052cd0c     LIBCMT:syserr.obj
 0006:0002ec80       ??_C@_0BJ@IHEHINLI@Function?5not?5implemented?$AA@ 0052cd20     LIBCMT:syserr.obj
 0006:0002ec9c       ??_C@_0BD@CLHBCGPB@No?5locks?5available?$AA@ 0052cd3c     LIBCMT:syserr.obj
 0006:0002ecb0       ??_C@_0BC@BEDIHIDK@Filename?5too?5long?$AA@ 0052cd50     LIBCMT:syserr.obj
 0006:0002ecc4       ??_C@_0BK@JAEBMJJM@Resource?5deadlock?5avoided?$AA@ 0052cd64     LIBCMT:syserr.obj
 0006:0002ece0       ??_C@_0BB@FCBJFCAJ@Result?5too?5large?$AA@ 0052cd80     LIBCMT:syserr.obj
 0006:0002ecf4       ??_C@_0N@MMJPGLJK@Domain?5error?$AA@ 0052cd94     LIBCMT:syserr.obj
 0006:0002ed04       ??_C@_0M@LHEPIIOM@Broken?5pipe?$AA@ 0052cda4     LIBCMT:syserr.obj
 0006:0002ed10       ??_C@_0P@PKCJJLLM@Too?5many?5links?$AA@ 0052cdb0     LIBCMT:syserr.obj
 0006:0002ed20       ??_C@_0BG@DDBFNKBH@Read?9only?5file?5system?$AA@ 0052cdc0     LIBCMT:syserr.obj
 0006:0002ed38       ??_C@_0N@FEHLOILP@Invalid?5seek?$AA@ 0052cdd8     LIBCMT:syserr.obj
 0006:0002ed48       ??_C@_0BI@FEALHKLD@No?5space?5left?5on?5device?$AA@ 0052cde8     LIBCMT:syserr.obj
 0006:0002ed60       ??_C@_0P@LFMMIPAE@File?5too?5large?$AA@ 0052ce00     LIBCMT:syserr.obj
 0006:0002ed70       ??_C@_0CE@ONOKNLPF@Inappropriate?5I?1O?5control?5operat@ 0052ce10     LIBCMT:syserr.obj
 0006:0002ed94       ??_C@_0BE@INBJMKGG@Too?5many?5open?5files?$AA@ 0052ce34     LIBCMT:syserr.obj
 0006:0002eda8       ??_C@_0BO@IIFBODJE@Too?5many?5open?5files?5in?5system?$AA@ 0052ce48     LIBCMT:syserr.obj
 0006:0002edc8       ??_C@_0BB@HMGGCEBG@Invalid?5argument?$AA@ 0052ce68     LIBCMT:syserr.obj
 0006:0002eddc       ??_C@_0P@NDHGCGKE@Is?5a?5directory?$AA@ 0052ce7c     LIBCMT:syserr.obj
 0006:0002edec       ??_C@_0BA@CJBACOOL@Not?5a?5directory?$AA@ 0052ce8c     LIBCMT:syserr.obj
 0006:0002edfc       ??_C@_0P@NLEIANHE@No?5such?5device?$AA@ 0052ce9c     LIBCMT:syserr.obj
 0006:0002ee0c       ??_C@_0O@OAMDNOCP@Improper?5link?$AA@ 0052ceac     LIBCMT:syserr.obj
 0006:0002ee1c       ??_C@_0M@NAAJNNGH@File?5exists?$AA@ 0052cebc     LIBCMT:syserr.obj
 0006:0002ee28       ??_C@_0BA@BIBLIOEK@Resource?5device?$AA@ 0052cec8     LIBCMT:syserr.obj
 0006:0002ee38       ??_C@_0M@LOEHLCJD@Bad?5address?$AA@ 0052ced8     LIBCMT:syserr.obj
 0006:0002ee44       ??_C@_0BC@HFNFNKAI@Permission?5denied?$AA@ 0052cee4     LIBCMT:syserr.obj
 0006:0002ee58       ??_C@_0BB@IMDKMPFB@Not?5enough?5space?$AA@ 0052cef8     LIBCMT:syserr.obj
 0006:0002ee6c       ??_C@_0CB@EPFKGNAK@Resource?5temporarily?5unavailable@ 0052cf0c     LIBCMT:syserr.obj
 0006:0002ee90       ??_C@_0BD@LOHELEP@No?5child?5processes?$AA@ 0052cf30     LIBCMT:syserr.obj
 0006:0002eea4       ??_C@_0BE@NFGDDCEF@Bad?5file?5descriptor?$AA@ 0052cf44     LIBCMT:syserr.obj
 0006:0002eeb8       ??_C@_0BC@HKPNECK@Exec?5format?5error?$AA@ 0052cf58     LIBCMT:syserr.obj
 0006:0002eecc       ??_C@_0BC@MFFGCDFL@Arg?5list?5too?5long?$AA@ 0052cf6c     LIBCMT:syserr.obj
 0006:0002eee0       ??_C@_0BK@DPKMCKJ@No?5such?5device?5or?5address?$AA@ 0052cf80     LIBCMT:syserr.obj
 0006:0002eefc       ??_C@_0BD@KKNFOBBD@Input?1output?5error?$AA@ 0052cf9c     LIBCMT:syserr.obj
 0006:0002ef10       ??_C@_0BK@FJBOAFDK@Interrupted?5function?5call?$AA@ 0052cfb0     LIBCMT:syserr.obj
 0006:0002ef2c       ??_C@_0BA@FKIAIBGA@No?5such?5process?$AA@ 0052cfcc     LIBCMT:syserr.obj
 0006:0002ef3c       ??_C@_0BK@FMDHKPNF@No?5such?5file?5or?5directory?$AA@ 0052cfdc     LIBCMT:syserr.obj
 0006:0002ef58       ??_C@_0BI@BJFCGOHL@Operation?5not?5permitted?$AA@ 0052cff8     LIBCMT:syserr.obj
 0006:0002efa0       __DEFAULT_CW_in_mem        0052d040     LIBCMT:common.obj
 0006:0002efa2       __pi_by_2_to_61            0052d042     LIBCMT:common.obj
 0006:0002f074       ??_C@_0P@GGKDKEEG@runtime?5error?5?$AA@ 0052d114     LIBCMT:crt0msg.obj
 0006:0002f084       ??_C@_0N@HLECBOKK@TLOSS?5error?6?$AA@ 0052d124     LIBCMT:crt0msg.obj
 0006:0002f094       ??_C@_0M@HDJFGCEL@SING?5error?6?$AA@ 0052d134     LIBCMT:crt0msg.obj
 0006:0002f0a0       ??_C@_0O@KIGJDBC@DOMAIN?5error?6?$AA@ 0052d140     LIBCMT:crt0msg.obj
 0006:0002f0b0       ??_C@_0KA@LCBCGMCJ@R6029?6?9?5This?5application?5cannot?5@ 0052d150     LIBCMT:crt0msg.obj
 0006:0002f150       ??_C@_0CD@CBIHNGLM@R6028?6?9?5unable?5to?5initialize?5hea@ 0052d1f0     LIBCMT:crt0msg.obj
 0006:0002f174       ??_C@_0DD@ELMNFFL@R6027?6?9?5not?5enough?5space?5for?5low@ 0052d214     LIBCMT:crt0msg.obj
 0006:0002f1a8       ??_C@_0DD@ECMPPDKJ@R6026?6?9?5not?5enough?5space?5for?5std@ 0052d248     LIBCMT:crt0msg.obj
 0006:0002f1dc       ??_C@_0CE@BNOBCALH@R6025?6?9?5pure?5virtual?5function?5ca@ 0052d27c     LIBCMT:crt0msg.obj
 0006:0002f200       ??_C@_0DD@KDOBPJEN@R6024?6?9?5not?5enough?5space?5for?5_on@ 0052d2a0     LIBCMT:crt0msg.obj
 0006:0002f234       ??_C@_0CH@IJNGNKLN@R6019?6?9?5unable?5to?5open?5console?5d@ 0052d2d4     LIBCMT:crt0msg.obj
 0006:0002f25c       ??_C@_0BP@BHAKIOHE@R6018?6?9?5unexpected?5heap?5error?6?$AA@ 0052d2fc     LIBCMT:crt0msg.obj
 0006:0002f27c       ??_C@_0CL@LODECPDF@R6017?6?9?5unexpected?5multithread?5l@ 0052d31c     LIBCMT:crt0msg.obj
 0006:0002f2a8       ??_C@_0CK@NONBIDPM@R6016?6?9?5not?5enough?5space?5for?5thr@ 0052d348     LIBCMT:crt0msg.obj
 0006:0002f2d8       ??_C@_0JE@GCAJEKJH@?6This?5application?5has?5requested?5@ 0052d378     LIBCMT:crt0msg.obj
 0006:0002f36c       ??_C@_0CK@DGPNILPC@R6009?6?9?5not?5enough?5space?5for?5env@ 0052d40c     LIBCMT:crt0msg.obj
 0006:0002f398       ??_C@_0CI@MOMFHLKF@R6008?6?9?5not?5enough?5space?5for?5arg@ 0052d438     LIBCMT:crt0msg.obj
 0006:0002f3c0       ??_C@_0CD@IEKHEPMF@R6002?6?9?5floating?5point?5not?5loade@ 0052d460     LIBCMT:crt0msg.obj
 0006:0002f3e4       ??_C@_06IMKFLFPG@1?$CDQNAN?$AA@ 0052d484     LIBCMT:x10fout.obj
 0006:0002f3ec       ??_C@_05DNEBIAHO@1?$CDINF?$AA@ 0052d48c     LIBCMT:x10fout.obj
 0006:0002f3f4       ??_C@_05PHHOCPM@1?$CDIND?$AA@ 0052d494     LIBCMT:x10fout.obj
 0006:0002f3fc       ??_C@_06PGGFOGJG@1?$CDSNAN?$AA@ 0052d49c     LIBCMT:x10fout.obj
 0006:0002f408       __real@3ffc5fe740317f9c    0052d4a8     libsdlx:SDL_yuv_sw.obj
 0006:0002f410       __real@bfd60ad3ea582b50    0052d4b0     libsdlx:SDL_yuv_sw.obj
 0006:0002f418       __real@bfe6d5d7ace82bfe    0052d4b8     libsdlx:SDL_yuv_sw.obj
 0006:0002f420       __real@3ff66be12d60bfc9    0052d4c0     libsdlx:SDL_yuv_sw.obj
 0006:0002f428       ??_C@_0BH@NPDOPCKC@Unsupported?5YUV?5format?$AA@ 0052d4c8     libsdlx:SDL_yuv_sw.obj
 0006:0002f440       ??_C@_0DA@MHLMGFIG@Can?8t?5use?5YUV?5data?5on?5non?516?124?1@ 0052d4e0     libsdlx:SDL_yuv_sw.obj
 0006:0002f470       ??_C@_0BP@CBHLGOCC@Unsupported?5YUV?5format?5in?5blit?$AA@ 0052d510     libsdlx:SDL_yuv_sw.obj
 0006:0002f490       ??_C@_0BF@DPLOCEIG@Copy?5buffer?5overflow?$AA@ 0052d530     libsdlx:SDL_stretch.obj
 0006:0002f4a8       ??_C@_0CJ@DPIICOMI@ASM?5stretch?5of?5?$CFd?5bytes?5isn?8t?5su@ 0052d548     libsdlx:SDL_stretch.obj
 0006:0002f4d4       ??_C@_0CD@JKBIJKNH@Invalid?5destination?5blit?5rectang@ 0052d574     libsdlx:SDL_stretch.obj
 0006:0002f4f8       ??_C@_0BO@BIKFPOBL@Invalid?5source?5blit?5rectangle?$AA@ 0052d598     libsdlx:SDL_stretch.obj
 0006:0002f518       ??_C@_0CF@MJPDNGPI@Only?5works?5with?5same?5format?5surf@ 0052d5b8     libsdlx:SDL_stretch.obj
 0006:0002f654       __CT??_R0?AVexception@@@8??0exception@@QAE@ABV0@@Z12 0052d6f4     Furby.obj
 0006:0002f670       __CT??_R0?AVlogic_error@std@@@8??0logic_error@std@@QAE@ABV01@@Z40 0052d710     Furby.obj
 0006:0002f68c       __CT??_R0?AVlength_error@std@@@8??0length_error@std@@QAE@ABV01@@Z40 0052d72c     Furby.obj
 0006:0002f6a8       __CTA3?AVlength_error@std@@ 0052d748     Furby.obj
 0006:0002f6b8       __TI3?AVlength_error@std@@ 0052d758     Furby.obj
 0006:0002faf4       __CT??_R0?AVout_of_range@std@@@8??0out_of_range@std@@QAE@ABV01@@Z40 0052db94     libcpmt:string.obj
 0006:0002fb10       __CTA3?AVout_of_range@std@@ 0052dbb0     libcpmt:string.obj
 0006:0002fb20       __TI3?AVout_of_range@std@@ 0052dbc0     libcpmt:string.obj
 0006:0002fb54       __CT??_R0?AVbad_alloc@std@@@8??0bad_alloc@std@@QAE@ABV01@@Z12 0052dbf4     libcpmt:nomemory.obj
 0006:0002fb70       __CTA2?AVbad_alloc@std@@   0052dc10     libcpmt:nomemory.obj
 0006:0002fb7c       __TI2?AVbad_alloc@std@@    0052dc1c     libcpmt:nomemory.obj
 0007:00000000       ___xri_a                   0052dc40     xapilib:xapi0dat.obj
 0007:00000004       ___pmtinit                 0052dc44     LIBCMT:tidtable.obj
 0007:0000000c       ___xri_z                   0052dc4c     xapilib:xapi0dat.obj
 0007:00000010       ___xc_a                    0052dc50     xapilib:xapi0dat.obj
 0007:00000030       ___xc_z                    0052dc70     xapilib:xapi0dat.obj
 0007:00000034       ___xi_a                    0052dc74     xapilib:xapi0dat.obj
 0007:00000048       ___xi_z                    0052dc88     xapilib:xapi0dat.obj
 0007:0000004c       ___xp_a                    0052dc8c     LIBCMT:crt0init.obj
 0007:00000058       ___xp_z                    0052dc98     LIBCMT:crt0init.obj
 0007:0000005c       ___xt_a                    0052dc9c     LIBCMT:crt0init.obj
 0007:00000064       ___xt_z                    0052dca4     LIBCMT:crt0init.obj
 0007:000000c4       ??_R0?AVexception@@@8      0052dd04     Furby.obj
 0007:000000dc       ??_R0?AVlogic_error@std@@@8 0052dd1c     Furby.obj
 0007:000000fc       ??_R0?AVlength_error@std@@@8 0052dd3c     Furby.obj
 0007:00000314       ?PosH@@3HA                 0052df54     x_Framework.obj
 0007:00000318       ?PosW@@3HA                 0052df58     x_Framework.obj
 0007:0000031c       ?LEFT@@3_NA                0052df5c     x_Framework.obj
 0007:000003f4       _music_active              0052e034     libsdlx:music.obj
 0007:000003fc       _XBOX_bootstrap            0052e03c     libsdlx:SDL_xboxvideo.obj
 0007:0000044c       _SDL_cursorstate           0052e08c     libsdlx:SDL_cursor.obj
 0007:000004b8       _g_PollingParameters       0052e0f8     libsdlx:SDL_sysjoystick.obj
 0007:000004c0       __mm_errmsg                0052e100     libsdlx:mmerror.obj
 0007:000005c8       _finetune                  0052e208     libsdlx:mloader.obj
 0007:000005e8       _voices                    0052e228     libsdlx:playmidi.obj
 0007:000005ec       _amplification             0052e22c     libsdlx:playmidi.obj
 0007:000005f0       _drumchannels              0052e230     libsdlx:playmidi.obj
 0007:00001498       _md_mixfreq                0052f0d8     libsdlx:mdriver.obj
 0007:0000149c       _md_mode                   0052f0dc     libsdlx:mdriver.obj
 0007:0000149e       _md_pansep                 0052f0de     libsdlx:mdriver.obj
 0007:0000149f       _md_reverb                 0052f0df     libsdlx:mdriver.obj
 0007:000014a0       _md_volume                 0052f0e0     libsdlx:mdriver.obj
 0007:000014a1       _md_musicvolume            0052f0e1     libsdlx:mdriver.obj
 0007:000014a2       _md_sndfxvolume            0052f0e2     libsdlx:mdriver.obj
 0007:000014a4       _md_bpm                    0052f0e4     libsdlx:mdriver.obj
 0007:000014a8       _md_player                 0052f0e8     libsdlx:mdriver.obj
 0007:000014b8       _DSOUND_bootstrap          0052f0f8     libsdlx:SDL_xboxaudio.obj
 0007:00001528       _unioperands               0052f168     libsdlx:munitrk.obj
 0007:000015b0       _tonebank                  0052f1f0     libsdlx:instrum.obj
 0007:000017b0       _drumset                   0052f3f0     libsdlx:instrum.obj
 0007:000019b0       _fast_decay                0052f5f0     libsdlx:instrum.obj
 0007:000019bc       _ctl_list                  0052f5fc     libsdlx:controls.obj
 0007:000019c4       _ctl                       0052f604     libsdlx:controls.obj
 0007:000019c8       _freq_table                0052f608     libsdlx:tables.obj
 0007:00001bc8       _vol_table                 0052f808     libsdlx:tables.obj
 0007:00001fc8       _bend_fine                 0052fc08     libsdlx:tables.obj
 0007:000027c8       _bend_coarse               00530408     libsdlx:tables.obj
 0007:00002bc8       __l2u_                     00530808     libsdlx:tables.obj
 0007:00004bc8       __l2u                      00532808     libsdlx:tables.obj
 0007:00004bcc       _play_mode_list            0053280c     libsdlx:output.obj
 0007:00004bd4       _play_mode                 00532814     libsdlx:output.obj
 0007:00004bf8       _drv_nos                   00532838     libsdlx:drv_nos.obj
 0007:00004c70       _drv_sdl                   005328b0     libsdlx:drv_sdl.obj
 0007:00004ce8       _load_xm                   00532928     libsdlx:load_xm.obj
 0007:00004d30       _load_s3m                  00532970     libsdlx:load_s3m.obj
 0007:00004db4       _load_mod                  005329f4     libsdlx:load_mod.obj
 0007:00004df8       _load_it                   00532a38     libsdlx:load_it.obj
 0007:00005218       _analysis_noisy            00532e58     libsdlx:analysis.obj
 0007:00005220       _sdl_control_mode          00532e60     libsdlx:sdl_c.obj
 0007:0000527c       _sdl_play_mode             00532ebc     libsdlx:sdl_a.obj
 0007:00005288       _npertab                   00532ec8     libsdlx:npertab.obj
 0007:0000b340       __floor_P                  00538f80     libsdlx:registry.obj
 0007:0000b348       __residue_P                00538f88     libsdlx:registry.obj
 0007:0000b354       __mapping_P                00538f94     libsdlx:registry.obj
 0007:00013328       _mapping0_exportbundle     00540f68     libsdlx:mapping0.obj
 0007:0001333c       _residue0_exportbundle     00540f7c     libsdlx:res0.obj
 0007:0001335c       _residue1_exportbundle     00540f9c     libsdlx:res0.obj
 0007:0001337c       _residue2_exportbundle     00540fbc     libsdlx:res0.obj
 0007:000137a0       _floor1_exportbundle       005413e0     libsdlx:floor1.obj
 0007:000137bc       _floor0_exportbundle       005413fc     libsdlx:floor0.obj
 0007:00014ebc       ?quietFlag@@3HA            00542afc     libsmpegx:MPEGvideo.obj
 0007:00014ec0       ?framerate@@3HA            00542b00     libsmpegx:MPEGvideo.obj
 0007:000155f0       ?nBitMask@@3PAIA           00543230     libsmpegx:util.obj
 0007:00015670       ?bitMask@@3PAIA            005432b0     libsmpegx:util.obj
 0007:000156f0       ?rBitMask@@3PAIA           00543330     libsmpegx:util.obj
 0007:00015770       ?bitTest@@3PAIA            005433b0     libsmpegx:util.obj
 0007:000157f0       _XapiMmTimerCriticalSection 00543430     xapilib:mmtimer.obj
 0007:0001580c       _XapiProcessLock           0054344c     xapilib:thread.obj
 0007:00015828       _XapiThreadNotifyRoutineList 00543468     xapilib:thread.obj
 0007:00015830       _DashPartition             00543470     xapilib:bootutil.obj
 0007:00015850       _TitleRebootPath           00543490     xapilib:bootutil.obj
 0007:00015880       _YDrive                    005434c0     xapilib:bootutil.obj
 0007:00015888       _DDrive                    005434c8     xapilib:xapiinit.obj
 0007:00015890       _CdDevice                  005434d0     xapilib:xapiinit.obj
 0007:00015898       _MainVol                   005434d8     xapilib:xapiinit.obj
 0007:000158a0       _TDrive                    005434e0     xapilib:xapiinit.obj
 0007:000158a8       _TitleData                 005434e8     xapilib:xapiinit.obj
 0007:000158b0       _UDrive                    005434f0     xapilib:xapiinit.obj
 0007:000158b8       _UserData                  005434f8     xapilib:xapiinit.obj
 0007:000158c8       _g_rgdwLoc                 00543508     xapilib:compstra.obj
 0007:00015d08       _g_iZDriveDBIndex          00543948     xapilib:pathmisc.obj
 0007:00015d0c       _g_iNDriveDBIndex          0054394c     xapilib:pathmisc.obj
 0007:00015d10       _MmHeapSegmentReserve      00543950     xapilib:heap.obj
 0007:00015d14       _MmHeapSegmentCommit       00543954     xapilib:heap.obj
 0007:00015d18       _MmHeapDeCommitTotalFreeThreshold 00543958     xapilib:heap.obj
 0007:00015d1c       _MmHeapDeCommitFreeBlockThreshold 0054395c     xapilib:heap.obj
 0007:00015d20       _XapiShutdownRegistration  00543960     xapilib:xapiterm.obj
 0007:00015d30       _XapiShutdownIrpCompleteEvent 00543970     xapilib:xapiterm.obj
 0007:00015d80       ?g_SlotMapping@D3D@@3PAEA  005439c0     d3d8:state.obj
 0007:00015e10       ?ostMovieBuffer@D3D@@3PADA 00543a50     d3d8:shadersnapshot.obj
 0007:00015e40       ?ostMovie@D3D@@3U_STRING@@A 00543a80     d3d8:shadersnapshot.obj
 0007:00015e68       ?z_errmsg@D3DX@@3PAPBDA    00543aa8     d3dx8:zutil.obj
 0007:00016f98       ?inflate_mask@D3DX@@3PAIA  00544bd8     d3dx8:infutil.obj
 0007:00016fdc       ??_R0?AVout_of_range@std@@@8 00544c1c     libcpmt:string.obj
 0007:00016ffc       ??_R0?AVbad_alloc@std@@@8  00544c3c     libcpmt:nomemory.obj
 0007:00017018       __fltused                  00544c58     LIBCMT:fpinit.obj
 0007:0001701c       __ldused                   00544c5c     LIBCMT:fpinit.obj
 0007:00017020       __FPinit                   00544c60     LIBCMT:fpinit.obj
 0007:00017024       __FPmtinit                 00544c64     LIBCMT:fpinit.obj
 0007:00017028       __FPmtterm                 00544c68     LIBCMT:fpinit.obj
 0007:00017030       __NLG_Destination          00544c70     LIBCMT:exsup.obj
 0007:00017040       ?__pMyUnhandledExceptionFilter@@3PAXA 00544c80     LIBCMT:throw.obj
 0007:00017044       ___security_cookie         00544c84     LIBCMT:seccook.obj
 0007:00017048       __iob                      00544c88     LIBCMT:_file.obj
 0007:00017444       __half                     00545084     LIBCMT:pow.obj
 0007:00017470       __cfltcvt_tab              005450b0     LIBCMT:cmiscdat.obj
 0007:0001748c       ?__pInconsistency@@3P6AXXZA 005450cc     LIBCMT:hooks.obj
 0007:000175b0       __aexit_rtn                005451f0     LIBCMT:crt0.obj
 0007:000175b4       ___badioinfo               005451f4     LIBCMT:ioinit.obj
 0007:000175dc       __amblksiz                 0054521c     LIBCMT:heapinit.obj
 0007:000175e0       __pctype                   00545220     LIBCMT:ctype.obj
 0007:000175e4       __pwctype                  00545224     LIBCMT:ctype.obj
 0007:000175e8       ___mb_cur_max              00545228     LIBCMT:nlsdata1.obj
 0007:000175ec       ___decimal_point           0054522c     LIBCMT:nlsdata1.obj
 0007:000175f0       ___decimal_point_length    00545230     LIBCMT:nlsdata1.obj
 0007:000176e0       __d_inf                    00545320     LIBCMT:util.obj
 0007:000176e8       __d_ind                    00545328     LIBCMT:util.obj
 0007:000176f0       __d_max                    00545330     LIBCMT:util.obj
 0007:000176f8       __d_min                    00545338     LIBCMT:util.obj
 0007:00017700       __d_mzero                  00545340     LIBCMT:util.obj
 0007:00017720       __sys_errlist              00545360     LIBCMT:syserr.obj
 0007:000177d0       __sys_nerr                 00545410     LIBCMT:syserr.obj
 0007:000177d4       __infinity                 00545414     LIBCMT:87tran.obj
 0007:000177de       __minfinity                0054541e     LIBCMT:87tran.obj
 0007:000177e8       __logemax                  00545428     LIBCMT:87tran.obj
 0007:0001780e       __OP_EXPjmptab             0054544e     LIBCMT:87tran.obj
 0007:00017830       __indefinite               00545470     LIBCMT:87disp.obj
 0007:0001783a       __piby2                    0054547a     LIBCMT:87disp.obj
 0007:0001785c       __tmpoff                   0054549c     LIBCMT:rmtmp.obj
 0007:00017860       __tempoff                  005454a0     LIBCMT:rmtmp.obj
 0007:00017870       ___lc_clike                005454b0     LIBCMT:nlsdata2.obj
 0007:0001788a       __OP_SINHjmptab            005454ca     LIBCMT:87trigh.obj
 0007:000178aa       __OP_COSHjmptab            005454ea     LIBCMT:87trigh.obj
 0007:000178ca       __OP_TANHjmptab            0054550a     LIBCMT:87trigh.obj
 0007:00017920       __XcptActTab               00545560     LIBCMT:winxfltr.obj
 0007:00017998       __First_FPE_Indx           005455d8     LIBCMT:winxfltr.obj
 0007:0001799c       __Num_FPE                  005455dc     LIBCMT:winxfltr.obj
 0007:000179a0       __XcptActTabSize           005455e0     LIBCMT:winxfltr.obj
 0007:000179a4       __XcptActTabCount          005455e4     LIBCMT:winxfltr.obj
 0007:00017b80       __matherr_flag             005457c0     LIBCMT:matherr.obj
 0007:00017b88       __pow10pos                 005457c8     LIBCMT:constpow.obj
 0007:00017ce8       __pow10neg                 00545928     LIBCMT:constpow.obj
 0007:00017e54       _XapiTlsAllocBitmap        00545a94     xapilib:tls.obj
 0007:00017eb0       ?temp@?1??Rotate@Vec2@@QAEXM@Z@4MA 00545af0     Raycaster.obj
 0007:00017f58       ?joy@@3PAU_SDL_Joystick@@A 00545b98     x_Framework.obj
 0007:00017f5c       ?framework@@3PAVFramework@@A 00545b9c     x_Framework.obj
 0007:00017f60       ?UP@@3_NA                  00545ba0     x_Framework.obj
 0007:00018c8c       _current_video             005468cc     libsdlx:SDL_video.obj
 0007:00018c90       _SDL_numjoysticks          005468d0     libsdlx:SDL_joystick.obj
 0007:00018c94       _SDL_joysticks             005468d4     libsdlx:SDL_joystick.obj
 0007:00019ac4       _SDL_EventOK               00547704     libsdlx:SDL_events.obj
 0007:00019b28       _cal_xoffset               00547768     libsdlx:SDL_xboxvideo.obj
 0007:00019b2c       _cal_yoffset               0054776c     libsdlx:SDL_xboxvideo.obj
 0007:00019b30       _cal_xstretch              00547770     libsdlx:SDL_xboxvideo.obj
 0007:00019b34       _cal_ystretch              00547774     libsdlx:SDL_xboxvideo.obj
 0007:00019b38       _have_vertexbuffer         00547778     libsdlx:SDL_xboxvideo.obj
 0007:00019b3c       _have_direct3dtexture      0054777c     libsdlx:SDL_xboxvideo.obj
 0007:0001a19c       _SDL_TranslateUNICODE      00547ddc     libsdlx:SDL_keyboard.obj
 0007:0001a1a8       _SDL_cursor                00547de8     libsdlx:SDL_cursor.obj
 0007:0001a1b0       _SDL_cursorlock            00547df0     libsdlx:SDL_cursor.obj
 0007:0001a1c0       _SDL_timer_started         00547e00     libsdlx:SDL_timer.obj
 0007:0001a1c4       _SDL_timer_running         00547e04     libsdlx:SDL_timer.obj
 0007:0001a1c8       _SDL_alarm_interval        00547e08     libsdlx:SDL_timer.obj
 0007:0001a650       _current_audio             00548290     libsdlx:SDL_audio.obj
 0007:0001a654       __Mix_effects_max_speed    00548294     libsdlx:effects_internal.obj
 0007:0001a658       __Eff_volume_table         00548298     libsdlx:effects_internal.obj
 0007:0001a9a0       __creating_thread_lock     005485e0     libsdlx:SDL_thread.obj
 0007:0001a9c4       __mm_errorhandler          00548604     libsdlx:mmerror.obj
 0007:0001a9c8       _MikMod_errno              00548608     libsdlx:mmerror.obj
 0007:0001a9cc       _MikMod_critical           0054860c     libsdlx:mmerror.obj
 0007:0001a9f0       _free_instruments_afterwards 00548630     libsdlx:timidity.obj
 0007:0001ab00       _timidity_error            00548740     libsdlx:timidity.obj
 0007:0001af20       _control_ratio             00548b60     libsdlx:playmidi.obj
 0007:0001af24       _adjust_panning_immediately 00548b64     libsdlx:playmidi.obj
 0007:0001af3c       _pf                        00548b7c     libsdlx:mplayer.obj
 0007:0001af50       _md_driver                 00548b90     libsdlx:mdriver.obj
 0007:0001af54       _md_device                 00548b94     libsdlx:mdriver.obj
 0007:0001af56       _md_numchn                 00548b96     libsdlx:mdriver.obj
 0007:0001af57       _md_sngchn                 00548b97     libsdlx:mdriver.obj
 0007:0001af58       _md_sfxchn                 00548b98     libsdlx:mdriver.obj
 0007:0001af59       _md_hardchn                00548b99     libsdlx:mdriver.obj
 0007:0001af5a       _md_softchn                00548b9a     libsdlx:mdriver.obj
 0007:0001b3fc       _g_bDevicesInitialized     0054903c     libsdlx:SDL_xboxevents.obj
 0007:0001b408       _SDL_CDcaps                00549048     libsdlx:SDL_cdrom.obj
 0007:0001d878       _default_instrument        0054b4b8     libsdlx:instrum.obj
 0007:0001d87c       _default_program           0054b4bc     libsdlx:instrum.obj
 0007:0001d880       _antialiasing_allowed      0054b4c0     libsdlx:instrum.obj
 0007:0001d8c4       _quietchannels             0054b504     libsdlx:readmidi.obj
 0007:0001da7c       _poslookup                 0054b6bc     libsdlx:mlutil.obj
 0007:0001da80       _origpositions             0054b6c0     libsdlx:mlutil.obj
 0007:0001da84       _noteindex                 0054b6c4     libsdlx:mlutil.obj
 0007:0002e044       ?qualityFlag@@3HA          0055bc84     libsmpegx:MPEGvideo.obj
 0007:0003f050       ?hcos_64@MPEGaudio@@0PAMA  0056cc90     libsmpegx:mpegtable.obj
 0007:0003f090       ?hcos_16@MPEGaudio@@0PAMA  0056ccd0     libsmpegx:mpegtable.obj
 0007:0003f0a0       ?hcos_8@MPEGaudio@@0PAMA   0056cce0     libsmpegx:mpegtable.obj
 0007:0003f0a8       ?hcos_4@MPEGaudio@@0MA     0056cce8     libsmpegx:mpegtable.obj
 0007:0003f0ac       ?hcos_32@MPEGaudio@@0PAMA  0056ccec     libsmpegx:mpegtable.obj
 0007:0003f0d0       ?mb_type_B@@3PAUmb_type_entry@@A 0056cd10     libsmpegx:decoders.obj
 0007:0003f6d0       ?mb_type_P@@3PAUmb_type_entry@@A 0056d310     libsmpegx:decoders.obj
 0007:0003fcd0       ?motion_vectors@@3PAUmotion_vectors_entry@@A 0056d910     libsmpegx:decoders.obj
 0007:00043cd0       ?mb_addr_inc@@3PAUmb_addr_inc_entry@@A 00571910     libsmpegx:decoders.obj
 0007:00049cd0       __tls_index                00577910     xapilib:xapitls.obj
 0007:00049cd8       ?XID_Globals@@3U_XID_GLOBALS@@A 00577918     xapilib:xid.obj
 0007:00049d78       ?GLOBAL_HostControllerCount@@3EA 005779b8     xapilib:usbd.obj
 0007:00049d7c       _XapiMuInfo                005779bc     xapilib:pathmisc.obj
 0007:00049d88       ?g_DeviceTree@@3VCDeviceTree@@A 005779c8     xapilib:tree.obj
 0007:00049e70       _g_pfnxcsbOnline           00577ab0     xapilib:xcalcsig.obj
 0007:00049e74       _g_pfnxcsuOnline           00577ab4     xapilib:xcalcsig.obj
 0007:00049e78       _g_pfnxcseOnline           00577ab8     xapilib:xcalcsig.obj
 0007:00049e80       ?GLOBAL_HubEnum@@3U_USBHUB_ENUM_BLOCK@@A 00577ac0     xapilib:hub.obj
 0007:00049f38       ?GLOBAL_HubInfo@@3U_USBHUB_INFO@@A 00577b78     xapilib:hub.obj
 0007:00049f44       _IsrEntryCount             00577b84     xapilib:isr.obj
 0007:00049f48       ___@@_PchSym_@00@UcylcuivUkirezgvUdrmwldhUwrivxgcUwctUwDwIUhvUfhviUlyqUrDIGUkivxlnkOlyq@d3d8 00577b88     d3d8:precomp.obj
 0007:00049f70       ___fastflag                00577bb0     LIBCMT:fpinit.obj
 0007:00049f74       __adjust_fdiv              00577bb4     LIBCMT:fpinit.obj
 0007:00049f78       ___pPurecall               00577bb8     LIBCMT:purevirt.obj
 0007:00049f7c       __umaskval                 00577bbc     LIBCMT:crt0dat.obj
 0007:00049f80       __exitflag                 00577bc0     LIBCMT:crt0dat.obj
 0007:00049f84       __C_Termination_Done       00577bc4     LIBCMT:crt0dat.obj
 0007:00049f88       __C_Exit_Done              00577bc8     LIBCMT:crt0dat.obj
 0007:00049f8c       __cflush                   00577bcc     LIBCMT:_file.obj
 0007:0004a038       ?_pnhHeap@@3P6AHI@ZA       00577c78     LIBCMT:handler.obj
 0007:0004a048       _gpFlsAlloc                00577c88     LIBCMT:tidtable.obj
 0007:0004a04c       _gpFlsGetValue             00577c8c     LIBCMT:tidtable.obj
 0007:0004a050       _gpFlsSetValue             00577c90     LIBCMT:tidtable.obj
 0007:0004a054       _gpFlsFree                 00577c94     LIBCMT:tidtable.obj
 0007:0004a1e8       __stdbuf                   00577e28     LIBCMT:_sftbuf.obj
 0007:0004a1f4       __newmode                  00577e34     LIBCMT:_newmode.obj
 0007:0004a1f8       __old_pfxlen               00577e38     LIBCMT:rmtmp.obj
 0007:0004a1fc       __commode                  00577e3c     LIBCMT:ncommode.obj
 0007:0004a200       ___lc_handle               00577e40     LIBCMT:nlsdata2.obj
 0007:0004a218       ___lc_codepage             00577e58     LIBCMT:nlsdata2.obj
 0007:0004a21c       ___lc_collate_cp           00577e5c     LIBCMT:nlsdata2.obj
 0007:0004a228       __adbgmsg                  00577e68     LIBCMT:crt0msg.obj
 0007:0004a22c       __fmode                    00577e6c     LIBCMT:txtmode.obj
 0007:0004b250       _filtermacros              00578e90     <common>
 0007:0004b260       _poslookupcnt              00578ea0     <common>
 0007:0004b280       _remap                     00578ec0     <common>
 0007:0004b2c0       _filters                   00578f00     <common>
 0007:0004b2c4       _activemacro               00578f04     <common>
 0007:0004b2e0       _filtersettings            00578f20     <common>
 0007:0004b4e0       _m_currentSector           00579120     <common>
 0007:0004b4e4       _m_bDanger                 00579124     <common>
 0007:0004b4e8       _ThreadID                  00579128     <common>
 0007:0004b500       _TrackAddr                 00579140     <common>
 0007:0004b690       _m_bPaused                 005792d0     <common>
 0007:0004b694       _m_sectorTo                005792d4     <common>
 0007:0004b698       _current_adjustment        005792d8     <common>
 0007:0004b69c       _m_bDone                   005792dc     <common>
 0007:0004b6a0       _m_dwWritePos              005792e0     <common>
 0007:0004b6a4       _LastTrack                 005792e4     <common>
 0007:0004b6a8       _stream_buffer             005792e8     <common>
 0007:0004b6ac       _m_pSoundBufferData        005792ec     <common>
 0007:0004b6c0       _stream_desc               00579300     <common>
 0007:0004b6d8       _stream_buffer_in          00579318     <common>
 0007:0004b6dc       _m_totalBytesWritten       0057931c     <common>
 0007:0004b6e0       _stream_format             00579320     <common>
 0007:0004b6f4       _m_nVolume                 00579334     <common>
 0007:0004b6f8       _stream_buffer_size        00579338     <common>
 0007:0004b6fc       _m_repeat                  0057933c     <common>
 0007:0004b700       _m_sectorFrom              00579340     <common>
 0007:0004b720       _current_filename          00579360     <common>
 0007:0004bb20       _g_sound                   00579760     <common>
 0007:0004bb24       _SDL_numcds                00579764     <common>
 0007:0004bb40       _g_MouseStates             00579780     <common>
 0007:0004bb98       __mm_mutex_vars            005797d8     <common>
 0007:0004bb9c       __mm_mutex_lists           005797dc     <common>
 0007:0004bba0       _voice                     005797e0     <common>
 0007:0004e7e0       _channel                   0057c420     <common>
 0007:0004ea60       _master_volume             0057c6a0     <common>
 0007:0004ea64       _s32tobuf                  0057c6a4     <common>
 0007:0004ea68       _common_buffer             0057c6a8     <common>
 0007:0004ea6c       _resample_buffer           0057c6ac     <common>
 0007:0004ea70       _AUDIO_BUFFER_SIZE         0057c6b0     <common>
 0007:0004ea80       _of                        0057c6c0     <common>
 0007:0004ebbc       _modreader                 0057c7fc     <common>
 0007:0004ebc0       _g_InputStates             0057c800     <common>
 0007:0004ec18       _SDL_alarm_callback        0057c858     <common>
 0007:0004ec20       _SDL_KeyRepeat             0057c860     <common>
 0007:0004ec44       _SDL_vertexbuffer          0057c884     <common>
 0007:0004ec48       _D3D                       0057c888     <common>
 0007:0004ec4c       _D3D_Device                0057c88c     <common>
 0007:0004ec60       _D3D_PP                    0057c8a0     <common>
 0007:0004ecc0       _SDL_ProcessEvents         0057c900     <common>
 0007:0004ece0       _OHCD_GlobalPool           0057c920     <common>
 0007:0004ed20       _OHCD_InterruptObject      0057c960     <common>
 0007:0004ed90       _NtGlobalFlag              0057c9d0     <common>
 0007:0004ed94       _XapiProcessHeap           0057c9d4     <common>
 0007:0004ed98       _XapiOriginalCodeSelectorEntry 0057c9d8     <common>
 0007:0004eda0       ___@@_PchSym_@00@UcylcuivUkirezgvUmglhUczkrUpDCUoryUlyqUrDIGUyzhvwooOlyq@Xapi_k32 0057c9e0     <common>
 0007:0004edc0       _XapiAutoPowerDownGlobals  0057ca00     <common>
 0007:0004ee10       _XapiCurrentTopLevelFilter 0057ca50     <common>
 0007:0004ee14       _XapiTlsSize               0057ca54     <common>
 0007:0004ee18       _XapiMmTimerThreadState    0057ca58     <common>
 0007:0004ee1c       _XapiMmTimerSerialNumber   0057ca5c     <common>
 0007:0004ee20       ___@@_PchSym_@00@UcylcuivUkirezgvUdrmwldhUwrivxgcUwhlfmwUwhlfmwUlyqUrDIGUwhlfmwrOlyq@dsound 0057ca60     <common>
 0007:0004ee24       ___mblcid                  0057ca64     <common>
 0007:0004ee28       ___ptmbcinfo               0057ca68     <common>
 0007:0004ee2c       ___ismbcodepage            0057ca6c     <common>
 0007:0004ee40       __mbctype                  0057ca80     <common>
 0007:0004ef44       ___mbcodepage              0057cb84     <common>
 0007:0004ef60       ___mbulinfo                0057cba0     <common>
 0007:0004ef80       __mbcasemap                0057cbc0     <common>
 0007:0004f080       ___active_heap             0057ccc0     <common>
 0007:0004f084       __nhandle                  0057ccc4     <common>
 0007:0004f0a0       ___pioinfo                 0057cce0     <common>
 0007:0004f1a0       ___ptd_glob                0057cde0     <common>
 0007:0004f1a4       ___piob                    0057cde4     <common>
 0007:0004f1a8       __nstream                  0057cde8     <common>
 0007:0004f1ac       ___onexitend               0057cdec     <common>
 0007:0004f1b0       ___onexitbegin             0057cdf0     <common>
 0007:0004f1b4       ___mbctype_initialized     0057cdf4     <common>
 0009:00000000       __IMPORT_DESCRIPTOR_xboxkrnl 00583f80     xboxkrnl:xboxkrnl.exe
 0009:00000014       __NULL_IMPORT_DESCRIPTOR   00583f94     xboxkrnl:xboxkrnl.exe
 000a:00000000       _XapiBuildNumber           00584180     xapilib:xapi0.obj
 000a:00000010       ?XKbdBuildNumber@@3PAGA    00584190     libsdlx:queue.obj
 000a:00000020       ?XMouseBuildNumber@@3PAGA  005841a0     xapilib:mouse.obj
 000a:00000030       _D3D8BuildNumber           005841b0     d3d8:precomp.obj
 000a:00000040       _D3DX8BuildNumber          005841c0     d3dx8:png.obj
 000a:00000050       _DSoundBuildNumber         005841d0     dsound:dsapi.obj
 000a:00000060       _XboxKrnlBuildNumber       005841e0     xboxkrnl:bldnum.obj
 000a:00000070       _LibcpBuildNumberMT        005841f0     libcpmt:newop.obj
 000a:00000080       ___CrtBuildNumberMT        00584200     LIBCMT:fpinit.obj
 000b:00000000       __tls_start                00584220     xapilib:xapitls.obj
 000b:00000008       _XapiLastErrorCode         00584228     xapilib:error.obj
 000b:0000000c       ___ptd_cur                 0058422c     LIBCMT:tidtable.obj
 000b:00000010       _XapiTlsSlots              00584230     xapilib:tls.obj
 000b:00000090       __tls_end                  005842b0     xapilib:xapitls.obj

 entry point at        0001:000c40f9

 Static symbols

 0001:00000a63       $L30370                    00400e23 f i Furby.obj
 0001:00000afa       $L30372                    00400eba f i Furby.obj
 0001:00009740       _HandleAlarm@20            00409b00 f   libsdlx:SDL_systimer.obj
 0001:000099c0       _SDL_IntersectRect         00409d80 f   libsdlx:SDL_surface.obj
 0001:0000a710       _Mix_DoEffects             0040aad0 f   libsdlx:mixer.obj
 0001:0000ab60       __Mix_remove_all_effects   0040af20 f   libsdlx:mixer.obj
 0001:0000ac20       _mix_channels              0040afe0 f   libsdlx:mixer.obj
 0001:0000b450       _SDL_GetVideoMode          0040b810 f   libsdlx:SDL_video.obj
 0001:0000b630       _SDL_CreateShadowSurface   0040b9f0 f   libsdlx:SDL_video.obj
 0001:0000bad0       _SDL_WM_GrabInputRaw       0040be90 f   libsdlx:SDL_video.obj
 0001:0000bb90       _SDL_WM_GrabInputOff       0040bf50 f   libsdlx:SDL_video.obj
 0001:0000c280       _SDL_ClearSurface          0040c640 f   libsdlx:SDL_video.obj
 0001:0000cdc0       _SDL_GobbleEvents          0040d180 f   libsdlx:SDL_events.obj
 0001:0000ce80       _SDL_StartEventThread      0040d240 f   libsdlx:SDL_events.obj
 0001:0000cff0       _SDL_AddEvent              0040d3b0 f   libsdlx:SDL_events.obj
 0001:0000d0a0       _SDL_CutEvent              0040d460 f   libsdlx:SDL_events.obj
 0001:0000d5e0       _Map1to1                   0040d9a0 f   libsdlx:SDL_pixels.obj
 0001:0000d670       _Map1toN                   0040da30 f   libsdlx:SDL_pixels.obj
 0001:0000d7f0       _MapNto1                   0040dbb0 f   libsdlx:SDL_pixels.obj
 0001:0000df30       _ClipOffset                0040e2f0 f   libsdlx:SDL_mouse.obj
 0001:0000e650       _music_internal_position   0040ea10 f   libsdlx:music.obj
 0001:0000e700       _music_internal_volume     0040eac0 f   libsdlx:music.obj
 0001:0000e7e0       _music_internal_halt       0040eba0 f   libsdlx:music.obj
 0001:0000e890       _music_internal_playing    0040ec50 f   libsdlx:music.obj
 0001:0000ec40       _music_internal_play       0040f000 f   libsdlx:music.obj
 0001:0000f050       _stdio_seek                0040f410 f   libsdlx:SDL_rwops.obj
 0001:0000f090       _stdio_read                0040f450 f   libsdlx:SDL_rwops.obj
 0001:0000f0d0       _stdio_write               0040f490 f   libsdlx:SDL_rwops.obj
 0001:0000f110       _stdio_close               0040f4d0 f   libsdlx:SDL_rwops.obj
 0001:0000f260       _XBOX_DeleteDevice         0040f620 f   libsdlx:SDL_xboxvideo.obj
 0001:0000f280       _XBOX_BuildModesList       0040f640 f   libsdlx:SDL_xboxvideo.obj
 0001:0000f3a0       _XBOX_ListModes            0040f760 f   libsdlx:SDL_xboxvideo.obj
 0001:0000f3b0       _XBOX_SetVideoMode         0040f770 f   libsdlx:SDL_xboxvideo.obj
 0001:0000f650       _XBOX_AllocHWSurface       0040fa10 f   libsdlx:SDL_xboxvideo.obj
 0001:0000f660       _XBOX_RenderSurface        0040fa20 f   libsdlx:SDL_xboxvideo.obj
 0001:0000f9d0       _XBOX_LockHWSurface        0040fd90 f   libsdlx:SDL_xboxvideo.obj
 0001:0000fa20       _XBOX_UpdateRects          0040fde0 f   libsdlx:SDL_xboxvideo.obj
 0001:0000fd90       _XBOX_VideoQuit            00410150 f   libsdlx:SDL_xboxvideo.obj
 0001:0000fdd0       _XBOX_SetHWColorKey        00410190 f   libsdlx:SDL_xboxvideo.obj
 0001:0000fe60       _XBOX_VideoInit            00410220 f   libsdlx:SDL_xboxvideo.obj
 0001:0000ff70       _XBOX_CreateDevice         00410330 f   libsdlx:SDL_xboxvideo.obj
 0001:00010e00       _SDL_DrawCursorFast        004111c0 f   libsdlx:SDL_cursor.obj
 0001:00011330       _SDL_DrawCursorSlow        004116f0 f   libsdlx:SDL_cursor.obj
 0001:000115f0       _SDL_ConvertCursorSave     004119b0 f   libsdlx:SDL_cursor.obj
 0001:00012bf0       _callback_wrapper          00412fb0 f   libsdlx:SDL_timer.obj
 0001:00012d40       _SDL_LookupString          00413100 f   libsdlx:SDL_error.obj
 0001:00012d70       _PrintInt                  00413130 f   libsdlx:SDL_error.obj
 0001:00012de0       _PrintDouble               004131a0 f   libsdlx:SDL_error.obj
 0001:00012e50       _PrintPointer              00413210 f   libsdlx:SDL_error.obj
 0001:000133b0       _RLEClipBlit               00413770 f   libsdlx:SDL_RLEaccel.obj
 0001:00015610       _RLEAlphaClipBlit          004159d0 f   libsdlx:SDL_RLEaccel.obj
 0001:00015f80       _copy_opaque_16            00416340 f   libsdlx:SDL_RLEaccel.obj
 0001:00016030       _uncopy_opaque_16          004163f0 f   libsdlx:SDL_RLEaccel.obj
 0001:00016100       _copy_transl_565           004164c0 f   libsdlx:SDL_RLEaccel.obj
 0001:000161d0       _copy_transl_555           00416590 f   libsdlx:SDL_RLEaccel.obj
 0001:000162a0       _uncopy_transl_16          00416660 f   libsdlx:SDL_RLEaccel.obj
 0001:00016380       _copy_32                   00416740 f   libsdlx:SDL_RLEaccel.obj
 0001:00016430       _uncopy_32                 004167f0 f   libsdlx:SDL_RLEaccel.obj
 0001:000164f0       _RLEAlphaSurface           004168b0 f   libsdlx:SDL_RLEaccel.obj
 0001:00016a30       _getpix_8                  00416df0 f   libsdlx:SDL_RLEaccel.obj
 0001:00016a40       _getpix_16                 00416e00 f   libsdlx:SDL_RLEaccel.obj
 0001:00016a50       _getpix_24                 00416e10 f   libsdlx:SDL_RLEaccel.obj
 0001:00016a70       _RLEColorkeySurface        00416e30 f   libsdlx:SDL_RLEaccel.obj
 0001:00016e00       _UnRLEAlpha                004171c0 f   libsdlx:SDL_RLEaccel.obj
 0001:00017940       _InitMS_ADPCM              00417d00 f   libsdlx:SDL_wave.obj
 0001:00017a00       _MS_ADPCM_nibble           00417dc0 f   libsdlx:SDL_wave.obj
 0001:00017b00       _MS_ADPCM_decode           00417ec0 f   libsdlx:SDL_wave.obj
 0001:00017d20       _InitIMA_ADPCM             004180e0 f   libsdlx:SDL_wave.obj
 0001:00017d70       _IMA_ADPCM_nibble          00418130 f   libsdlx:SDL_wave.obj
 0001:00018200       _Fill_IMA_ADPCM_block      004185c0 f   libsdlx:SDL_wave.obj
 0001:00018260       _IMA_ADPCM_decode          00418620 f   libsdlx:SDL_wave.obj
 0001:00018400       _ReadChunk                 004187c0 f   libsdlx:SDL_wave.obj
 0001:00018710       _sdl_read_func             00418ad0 f   libsdlx:load_ogg.obj
 0001:00018730       _sdl_seek_func             00418af0 f   libsdlx:load_ogg.obj
 0001:00018740       _sdl_close_func_freesrc    00418b00 f   libsdlx:load_ogg.obj
 0001:00018750       _sdl_close_func_nofreesrc  00418b10 f   libsdlx:load_ogg.obj
 0001:00018760       _sdl_tell_func             00418b20 f   libsdlx:load_ogg.obj
 0001:00018950       _voc_check_header          00418d10 f   libsdlx:load_voc.obj
 0001:000189d0       _voc_get_block             00418d90 f   libsdlx:load_voc.obj
 0001:00018e20       _voc_read                  004191e0 f   libsdlx:load_voc.obj
 0001:000190a0       _SANE_to_Uint32            00419460 f   libsdlx:load_aiff.obj
 0001:00019710       _SDL_LockAudio_Default     00419ad0 f   libsdlx:SDL_audio.obj
 0001:00019740       _SDL_UnlockAudio_Default   00419b00 f   libsdlx:SDL_audio.obj
 0001:0001a8e0       _RunThread@4               0041aca0 f   libsdlx:SDL_systhread.obj
 0001:0001a970       _SDL_AddThread             0041ad30 f   libsdlx:SDL_thread.obj
 0001:0001aa50       _SDL_DelThread             0041ae10 f   libsdlx:SDL_thread.obj
 0001:0001acd0       _SDL_SoftBlit              0041b090 f   libsdlx:SDL_blit.obj
 0001:0001ae60       _SDL_BlitCopy              0041b220 f   libsdlx:SDL_blit.obj
 0001:0001aed0       _SDL_BlitCopyOverlap       0041b290 f   libsdlx:SDL_blit.obj
 0001:0001b3a0       _LoadWAVStream             0041b760 f   libsdlx:wavestream.obj
 0001:0001b5d0       _SANE_to_Uint32            0041b990 f   libsdlx:wavestream.obj
 0001:0001b630       _LoadAIFFStream            0041b9f0 f   libsdlx:wavestream.obj
 0001:0001bd90       _ML_FreeEx                 0041c150 f   libsdlx:mloader.obj
 0001:0001c2e0       _getpix_32                 0041c6a0 f   libsdlx:music_ogg.obj
 0001:0001c2f0       _OGG_getsome               0041c6b0 f   libsdlx:music_ogg.obj
 0001:0001c620       _read_config_file          0041c9e0 f   libsdlx:timidity.obj
 0001:0001d110       _reset_midi                0041d4d0 f   libsdlx:playmidi.obj
 0001:0001d170       _select_sample             0041d530 f   libsdlx:playmidi.obj
 0001:0001d1f0       _recompute_freq            0041d5b0 f   libsdlx:playmidi.obj
 0001:0001d340       _recompute_amp             0041d700 f   libsdlx:playmidi.obj
 0001:0001d490       _start_note                0041d850 f   libsdlx:playmidi.obj
 0001:0001d7b0       _note_on                   0041db70 f   libsdlx:playmidi.obj
 0001:0001d8f0       _finish_note               0041dcb0 f   libsdlx:playmidi.obj
 0001:0001d940       _note_off                  0041dd00 f   libsdlx:playmidi.obj
 0001:0001d9c0       _all_notes_off             0041dd80 f   libsdlx:playmidi.obj
 0001:0001da70       _all_sounds_off            0041de30 f   libsdlx:playmidi.obj
 0001:0001dad0       _adjust_pressure           0041de90 f   libsdlx:playmidi.obj
 0001:0001db40       _adjust_panning            0041df00 f   libsdlx:playmidi.obj
 0001:0001dbb0       _drop_sustain              0041df70 f   libsdlx:playmidi.obj
 0001:0001dc20       _adjust_pitchbend          0041dfe0 f   libsdlx:playmidi.obj
 0001:0001dc70       _adjust_volume             0041e030 f   libsdlx:playmidi.obj
 0001:0001dcd0       _seek_forward              0041e090 f   libsdlx:playmidi.obj
 0001:0001df00       _skip_to                   0041e2c0 f   libsdlx:playmidi.obj
 0001:0001df50       _apply_controls            0041e310 f   libsdlx:playmidi.obj
 0001:0001e170       _do_compute_data           0041e530 f   libsdlx:playmidi.obj
 0001:0001e1f0       _compute_data              0041e5b0 f   libsdlx:playmidi.obj
 0001:0001e9b0       _getrandom                 0041ed70 f   libsdlx:mplayer.obj
 0001:0001e9d0       _MP_FindEmptyChannel       0041ed90 f   libsdlx:mplayer.obj
 0001:0001eab0       _getlogperiod              0041ee70 f   libsdlx:mplayer.obj
 0001:0001eb20       _GetPeriod                 0041eee0 f   libsdlx:mplayer.obj
 0001:0001eb90       _InterpolateEnv            0041ef50 f   libsdlx:mplayer.obj
 0001:0001ebd0       _DoPan                     0041ef90 f   libsdlx:mplayer.obj
 0001:0001ec20       _StartEnvelope             0041efe0 f   libsdlx:mplayer.obj
 0001:0001ec90       _ProcessEnvelope           0041f050 f   libsdlx:mplayer.obj
 0001:0001ee50       _DoEEffects                0041f210 f   libsdlx:mplayer.obj
 0001:0001f180       _DoVibrato                 0041f540 f   libsdlx:mplayer.obj
 0001:0001f250       _DoTremolo                 0041f610 f   libsdlx:mplayer.obj
 0001:0001f340       _DoVolSlide                0041f700 f   libsdlx:mplayer.obj
 0001:0001f390       _DoToneSlide               0041f750 f   libsdlx:mplayer.obj
 0001:0001f410       _DoArpeggio                0041f7d0 f   libsdlx:mplayer.obj
 0001:0001f460       _DoS3MVolSlide             0041f820 f   libsdlx:mplayer.obj
 0001:0001f520       _DoS3MSlideDn              0041f8e0 f   libsdlx:mplayer.obj
 0001:0001f5a0       _DoS3MSlideUp              0041f960 f   libsdlx:mplayer.obj
 0001:0001f620       _DoS3MTremor               0041f9e0 f   libsdlx:mplayer.obj
 0001:0001f690       _DoS3MRetrig               0041fa50 f   libsdlx:mplayer.obj
 0001:0001f7b0       _DoS3MSpeed                0041fb70 f   libsdlx:mplayer.obj
 0001:0001f7f0       _DoS3MTempo                0041fbb0 f   libsdlx:mplayer.obj
 0001:0001f830       _DoS3MFineVibrato          0041fbf0 f   libsdlx:mplayer.obj
 0001:0001f900       _DoS3MTremolo              0041fcc0 f   libsdlx:mplayer.obj
 0001:0001f9f0       _DoXMVolSlide              0041fdb0 f   libsdlx:mplayer.obj
 0001:0001fa60       _DoXMGlobalSlide           0041fe20 f   libsdlx:mplayer.obj
 0001:0001fae0       _DoXMPanSlide              0041fea0 f   libsdlx:mplayer.obj
 0001:0001fb60       _DoITChanVolSlide          0041ff20 f   libsdlx:mplayer.obj
 0001:0001fbd0       _DoITGlobalSlide           0041ff90 f   libsdlx:mplayer.obj
 0001:0001fc90       _DoITPanSlide              00420050 f   libsdlx:mplayer.obj
 0001:0001fd40       _DoITTempo                 00420100 f   libsdlx:mplayer.obj
 0001:0001fdb0       _DoITVibrato               00420170 f   libsdlx:mplayer.obj
 0001:0001fe80       _DoITFineVibrato           00420240 f   libsdlx:mplayer.obj
 0001:0001ff50       _DoITTremor                00420310 f   libsdlx:mplayer.obj
 0001:0001ffb0       _DoITPanbrello             00420370 f   libsdlx:mplayer.obj
 0001:00020080       _DoITToneSlide             00420440 f   libsdlx:mplayer.obj
 0001:00020110       _DoVolEffects              004204d0 f   libsdlx:mplayer.obj
 0001:000202a0       _DoULTSampleOffset         00420660 f   libsdlx:mplayer.obj
 0001:000202f0       _DoNNAEffects              004206b0 f   libsdlx:mplayer.obj
 0001:00021360       _Player_Init_internal      00421720 f   libsdlx:mplayer.obj
 0001:000217c0       _DoSSEffects               00421b80 f   libsdlx:mplayer.obj
 0001:00021900       _pt_playeffects            00421cc0 f   libsdlx:mplayer.obj
 0001:00022d10       _LimitHardVoices           004230d0 f   libsdlx:mdriver.obj
 0001:00022e00       _LimitSoftVoices           004231c0 f   libsdlx:mdriver.obj
 0001:000235a0       __mm_init                  00423960 f   libsdlx:mdriver.obj
 0001:000240e0       _keyboard_update           004244a0 f   libsdlx:SDL_xboxevents.obj
 0001:00024170       _mouse_update              00424530 f   libsdlx:SDL_xboxevents.obj
 0001:00024310       _ctl_sustain               004246d0 f   libsdlx:SDL_fatal.obj
 0001:00024310       _ctl_pitch_bend            004246d0 f   libsdlx:SDL_fatal.obj
 0001:00024310       _ctl_reset                 004246d0 f   libsdlx:SDL_fatal.obj
 0001:00024310       _ps_parser_done            004246d0 f   libsdlx:SDL_fatal.obj
 0001:00024310       _tt_driver_done            004246d0 f   libsdlx:SDL_fatal.obj
 0001:00024310       _ctl_refresh               004246d0 f   libsdlx:SDL_fatal.obj
 0001:00024310       _ctl_total_time            004246d0 f   libsdlx:SDL_fatal.obj
 0001:00024310       _ctl_master_volume         004246d0 f   libsdlx:SDL_fatal.obj
 0001:00024310       _ctl_file_name             004246d0 f   libsdlx:SDL_fatal.obj
 0001:00024310       _ctl_current_time          004246d0 f   libsdlx:SDL_fatal.obj
 0001:00024310       _ctl_note                  004246d0 f   libsdlx:SDL_fatal.obj
 0001:00024310       _ctl_program               004246d0 f   libsdlx:SDL_fatal.obj
 0001:00024310       _start_pass_dcolor         004246d0 f   libsdlx:SDL_fatal.obj
 0001:00024310       _ctl_volume                004246d0 f   libsdlx:SDL_fatal.obj
 0001:00024310       _SDRV_Update               004246d0 f   libsdlx:SDL_fatal.obj
 0001:00024310       _XBOX_UnlockHWSurface      004246d0 f   libsdlx:SDL_fatal.obj
 0001:00024310       _finish_pass_1_quant       004246d0 f   libsdlx:SDL_fatal.obj
 0001:00024310       _finish_pass2              004246d0 f   libsdlx:SDL_fatal.obj
 0001:00024310       _output_no_message         004246d0 f   libsdlx:SDL_fatal.obj
 0001:00024310       _term_source               004246d0 f   libsdlx:SDL_fatal.obj
 0001:00024310       _init_source               004246d0 f   libsdlx:SDL_fatal.obj
 0001:00024310       _ft_black_set_mode         004246d0 f   libsdlx:SDL_fatal.obj
 0001:00024310       _cff_driver_done           004246d0 f   libsdlx:SDL_fatal.obj
 0001:00024310       _T1_Driver_Done            004246d0 f   libsdlx:SDL_fatal.obj
 0001:00024310       _cid_driver_done           004246d0 f   libsdlx:SDL_fatal.obj
 0001:00024310       _T42_Driver_Done           004246d0 f   libsdlx:SDL_fatal.obj
 0001:00024310       _XBOX_FreeHWSurface        004246d0 f   libsdlx:SDL_fatal.obj
 0001:00024310       _ctl_panning               004246d0 f   libsdlx:SDL_fatal.obj
 0001:00024310       _Horizontal_Sweep_Step     004246d0 f   libsdlx:SDL_fatal.obj
 0001:00024310       _Horizontal_Sweep_Init     004246d0 f   libsdlx:SDL_fatal.obj
 0001:00024310       _ctl_expression            004246d0 f   libsdlx:SDL_fatal.obj
 0001:00024320       __seek_helper              004246e0 f   libsdlx:vorbisfile.obj
 0001:00024350       __get_next_page            00424710 f   libsdlx:vorbisfile.obj
 0001:00024410       __get_prev_page            004247d0 f   libsdlx:vorbisfile.obj
 0001:000244d0       __bisect_forward_serialno  00424890 f   libsdlx:vorbisfile.obj
 0001:00024660       __fetch_headers            00424a20 f   libsdlx:vorbisfile.obj
 0001:00024790       __prefetch_all_headers     00424b50 f   libsdlx:vorbisfile.obj
 0001:00024a50       __make_decode_ready        00424e10 f   libsdlx:vorbisfile.obj
 0001:00024ad0       __decode_clear             00424e90 f   libsdlx:vorbisfile.obj
 0001:00024b00       __fetch_and_process_packet 00424ec0 f   libsdlx:vorbisfile.obj
 0001:00024d90       __fseek64_wrap             00425150 f   libsdlx:vorbisfile.obj
 0001:00025e40       __open_seekable2           00426200 f   libsdlx:vorbisfile.obj
 0001:00025ef0       __ov_open1                 004262b0 f   libsdlx:vorbisfile.obj
 0001:00026000       __ov_open2                 004263c0 f   libsdlx:vorbisfile.obj
 0001:00026100       _SDRV_IsThere              004264c0 f   libsdlx:SDL_xboxaudio.obj
 0001:00026100       _XBOX_Available            004264c0 f   libsdlx:SDL_xboxaudio.obj
 0001:00026100       _XBOX_SetColors            004264c0 f   libsdlx:SDL_xboxaudio.obj
 0001:00026100       _Audio_Available           004264c0 f   libsdlx:SDL_xboxaudio.obj
 0001:00026100       _NS_IsThere                004264c0 f   libsdlx:SDL_xboxaudio.obj
 0001:00026110       _Audio_DeleteDevice        004264d0 f   libsdlx:SDL_xboxaudio.obj
 0001:00026140       _SetDSerror                00426500 f   libsdlx:SDL_xboxaudio.obj
 0001:00026210       _XboxDX_ThreadInit         004265d0 f   libsdlx:SDL_xboxaudio.obj
 0001:00026220       _XboxDX_WaitAudio_BusyWait 004265e0 f   libsdlx:SDL_xboxaudio.obj
 0001:00026310       _XboxDX_PlayAudio          004266d0 f   libsdlx:SDL_xboxaudio.obj
 0001:00026340       _XboxDX_GetAudioBuf        00426700 f   libsdlx:SDL_xboxaudio.obj
 0001:00026400       _XboxDX_WaitDone           004267c0 f   libsdlx:SDL_xboxaudio.obj
 0001:00026490       _XboxDX_CloseAudio         00426850 f   libsdlx:SDL_xboxaudio.obj
 0001:00026500       _CreateSecondary           004268c0 f   libsdlx:SDL_xboxaudio.obj
 0001:00026620       _XboxDX_OpenAudio          004269e0 f   libsdlx:SDL_xboxaudio.obj
 0001:00026760       _Audio_CreateDevice        00426b20 f   libsdlx:SDL_xboxaudio.obj
 0001:00026980       _Blit1to1                  00426d40 f   libsdlx:SDL_blit_1.obj
 0001:00026a60       _Blit1to2                  00426e20 f   libsdlx:SDL_blit_1.obj
 0001:00026b60       _Blit1to3                  00426f20 f   libsdlx:SDL_blit_1.obj
 0001:00026cf0       _Blit1to4                  004270b0 f   libsdlx:SDL_blit_1.obj
 0001:00026df0       _Blit1to1Key               004271b0 f   libsdlx:SDL_blit_1.obj
 0001:00026ff0       _Blit1to2Key               004273b0 f   libsdlx:SDL_blit_1.obj
 0001:00027140       _Blit1to3Key               00427500 f   libsdlx:SDL_blit_1.obj
 0001:00027300       _Blit1to4Key               004276c0 f   libsdlx:SDL_blit_1.obj
 0001:00027440       _Blit1toNAlpha             00427800 f   libsdlx:SDL_blit_1.obj
 0001:00027ad0       _Blit1toNAlphaKey          00427e90 f   libsdlx:SDL_blit_1.obj
 0001:000287c0       _Blit_RGB888_index8        00428b80 f   libsdlx:SDL_blit_N.obj
 0001:00028b70       _Blit_RGB888_RGB555        00428f30 f   libsdlx:SDL_blit_N.obj
 0001:00028d90       _Blit_RGB888_RGB565        00429150 f   libsdlx:SDL_blit_N.obj
 0001:00028fb0       _Blit_RGB565_32            00429370 f   libsdlx:SDL_blit_N.obj
 0001:00029120       _Blit_RGB565_ARGB8888      004294e0 f   libsdlx:SDL_blit_N.obj
 0001:00029140       _Blit_RGB565_ABGR8888      00429500 f   libsdlx:SDL_blit_N.obj
 0001:00029160       _Blit_RGB565_RGBA8888      00429520 f   libsdlx:SDL_blit_N.obj
 0001:00029180       _Blit_RGB565_BGRA8888      00429540 f   libsdlx:SDL_blit_N.obj
 0001:000291a0       _Blit_RGB888_index8_map    00429560 f   libsdlx:SDL_blit_N.obj
 0001:000293d0       _BlitNto1                  00429790 f   libsdlx:SDL_blit_N.obj
 0001:00029d20       _BlitNtoN                  0042a0e0 f   libsdlx:SDL_blit_N.obj
 0001:0002a7b0       _BlitNtoNCopyAlpha         0042ab70 f   libsdlx:SDL_blit_N.obj
 0001:0002a980       _BlitNto1Key               0042ad40 f   libsdlx:SDL_blit_N.obj
 0001:0002b400       _Blit2to2Key               0042b7c0 f   libsdlx:SDL_blit_N.obj
 0001:0002b570       _BlitNtoNKey               0042b930 f   libsdlx:SDL_blit_N.obj
 0001:0002c050       _BlitNtoNKeyCopyAlpha      0042c410 f   libsdlx:SDL_blit_N.obj
 0001:0002cf40       _BlitBto1                  0042d300 f   libsdlx:SDL_blit_0.obj
 0001:0002d030       _BlitBto2                  0042d3f0 f   libsdlx:SDL_blit_0.obj
 0001:0002d0e0       _BlitBto3                  0042d4a0 f   libsdlx:SDL_blit_0.obj
 0001:0002d190       _BlitBto4                  0042d550 f   libsdlx:SDL_blit_0.obj
 0001:0002d240       _BlitBto1Key               0042d600 f   libsdlx:SDL_blit_0.obj
 0001:0002d350       _BlitBto2Key               0042d710 f   libsdlx:SDL_blit_0.obj
 0001:0002d410       _BlitBto3Key               0042d7d0 f   libsdlx:SDL_blit_0.obj
 0001:0002d4e0       _BlitBto4Key               0042d8a0 f   libsdlx:SDL_blit_0.obj
 0001:0002d5a0       _BlitBtoNAlpha             0042d960 f   libsdlx:SDL_blit_0.obj
 0001:0002d800       _BlitBtoNAlphaKey          0042dbc0 f   libsdlx:SDL_blit_0.obj
 0001:0002dbf0       _read_itcompr8             0042dfb0 f   libsdlx:sloader.obj
 0001:0002dde0       _read_itcompr16            0042e1a0 f   libsdlx:sloader.obj
 0001:0002dfd0       _SL_LoadInternal           0042e390 f   libsdlx:sloader.obj
 0001:0002e370       _SampleTotal               0042e730 f   libsdlx:sloader.obj
 0001:0002e420       _DitherSamples             0042e7e0 f   libsdlx:sloader.obj
 0001:0002e6c0       __mm_FileReader_Eof        0042ea80 f   libsdlx:mmio.obj
 0001:0002e6d0       __mm_FileReader_Read       0042ea90 f   libsdlx:mmio.obj
 0001:0002e6f0       __mm_FileReader_Get        0042eab0 f   libsdlx:mmio.obj
 0001:0002e700       __mm_FileReader_Seek       0042eac0 f   libsdlx:mmio.obj
 0001:0002e730       __mm_FileReader_Tell       0042eaf0 f   libsdlx:mmio.obj
 0001:0002f0c0       _free_instrument           0042f480 f   libsdlx:instrum.obj
 0001:0002f100       _convert_envelope_rate     0042f4c0 f   libsdlx:instrum.obj
 0001:0002f140       _convert_vibrato_sweep     0042f500 f   libsdlx:instrum.obj
 0001:0002f180       _load_instrument           0042f540 f   libsdlx:instrum.obj
 0001:0002fa60       _fill_bank                 0042fe20 f   libsdlx:instrum.obj
 0001:000301a0       _update_envelope           00430560 f   libsdlx:mix.obj
 0001:00030200       _update_tremolo            004305c0 f   libsdlx:mix.obj
 0001:000302a0       _update_signal             00430660 f   libsdlx:mix.obj
 0001:000302f0       _mix_mystery_signal        004306b0 f   libsdlx:mix.obj
 0001:00030450       _mix_center_signal         00430810 f   libsdlx:mix.obj
 0001:00030590       _mix_single_signal         00430950 f   libsdlx:mix.obj
 0001:000306c0       _mix_mono_signal           00430a80 f   libsdlx:mix.obj
 0001:000307f0       _mix_mystery               00430bb0 f   libsdlx:mix.obj
 0001:00030840       _mix_center                00430c00 f   libsdlx:mix.obj
 0001:00030880       _mix_single                00430c40 f   libsdlx:mix.obj
 0001:000308c0       _mix_mono                  00430c80 f   libsdlx:mix.obj
 0001:00030900       _ramp_out                  00430cc0 f   libsdlx:mix.obj
 0001:00030c00       _getvl                     00430fc0 f   libsdlx:readmidi.obj
 0001:00030c60       _dumpstring                00431020 f   libsdlx:readmidi.obj
 0001:00030ce0       _read_midi_event           004310a0 f   libsdlx:readmidi.obj
 0001:00031330       _read_track                004316f0 f   libsdlx:readmidi.obj
 0001:00031480       _free_midi_list            00431840 f   libsdlx:readmidi.obj
 0001:000314b0       _groom_list                00431870 f   libsdlx:readmidi.obj
 0001:00031c20       _NS_Init                   00431fe0 f   libsdlx:drv_nos.obj
 0001:00031c40       _NS_Exit                   00432000 f   libsdlx:drv_nos.obj
 0001:00031c70       _NS_Update                 00432030 f   libsdlx:drv_nos.obj
 0001:00031c90       _SDRV_Init                 00432050 f   libsdlx:drv_sdl.obj
 0001:00031ca0       _SDRV_Exit                 00432060 f   libsdlx:drv_sdl.obj
 0001:00031d60       _XM_ReadNote               00432120 f   libsdlx:load_xm.obj
 0001:00031e40       _XM_Convert                00432200 f   libsdlx:load_xm.obj
 0001:00032200       _LoadPatterns              004325c0 f   libsdlx:load_xm.obj
 0001:00032560       _LoadInstruments           00432920 f   libsdlx:load_xm.obj
 0001:000335d0       _S3M_GetNumChannels        00433990 f   libsdlx:load_s3m.obj
 0001:00033680       _S3M_ReadPattern           00433a40 f   libsdlx:load_s3m.obj
 0001:00033780       _S3M_ConvertTrack          00433b40 f   libsdlx:load_s3m.obj
 0001:00034220       _MOD_CheckType             004345e0 f   libsdlx:load_mod.obj
 0001:00034420       _MOD_Test                  004347e0 f   libsdlx:load_mod.obj
 0001:00034470       _MOD_Init                  00434830 f   libsdlx:load_mod.obj
 0001:00034490       _MOD_Cleanup               00434850 f   libsdlx:load_mod.obj
 0001:000344d0       _ConvertNote               00434890 f   libsdlx:load_mod.obj
 0001:00034670       _ML_LoadPatterns           00434a30 f   libsdlx:load_mod.obj
 0001:000347d0       _MOD_Load                  00434b90 f   libsdlx:load_mod.obj
 0001:00034b70       _MOD_LoadTitle             00434f30 f   libsdlx:load_mod.obj
 0001:00034d40       _IT_GetNumChannels         00435100 f   libsdlx:load_it.obj
 0001:00034e30       _IT_ConvertTrack           004351f0 f   libsdlx:load_it.obj
 0001:00035070       _IT_ReadPattern            00435430 f   libsdlx:load_it.obj
 0001:00035270       _LoadMidiString            00435630 f   libsdlx:load_it.obj
 0001:000352c0       _IT_LoadMidiConfiguration  00435680 f   libsdlx:load_it.obj
 0001:00036b70       _Mix32StereoNormal         00436f30 f   libsdlx:virtch.obj
 0001:00036bc0       _Mix32SurroundNormal       00436f80 f   libsdlx:virtch.obj
 0001:00036c30       _Mix32MonoInterp           00436ff0 f   libsdlx:virtch.obj
 0001:00036cc0       _Mix32StereoInterp         00437080 f   libsdlx:virtch.obj
 0001:00036d90       _Mix32SurroundInterp       00437150 f   libsdlx:virtch.obj
 0001:00036e40       _MixMonoNormal             00437200 f   libsdlx:virtch.obj
 0001:00036ea0       _MixStereoNormal           00437260 f   libsdlx:virtch.obj
 0001:00036f30       _MixSurroundNormal         004372f0 f   libsdlx:virtch.obj
 0001:00036fe0       _MixMonoInterp             004373a0 f   libsdlx:virtch.obj
 0001:000370b0       _MixStereoInterp           00437470 f   libsdlx:virtch.obj
 0001:000371b0       _MixSurroundInterp         00437570 f   libsdlx:virtch.obj
 0001:000372a0       _MixReverb_Normal          00437660 f   libsdlx:virtch.obj
 0001:00037540       _MixReverb_Stereo          00437900 f   libsdlx:virtch.obj
 0001:000379c0       _Mix32To16                 00437d80 f   libsdlx:virtch.obj
 0001:00037ae0       _Mix32To8                  00437ea0 f   libsdlx:virtch.obj
 0001:00037c00       _AddChannel                00437fc0 f   libsdlx:virtch.obj
 0001:00038f30       _Mix32MonoNormal           004392f0 f   libsdlx:virtch2.obj
 0001:00039020       _Mix32StereoNormal         004393e0 f   libsdlx:virtch2.obj
 0001:00039180       _Mix32StereoSurround       00439540 f   libsdlx:virtch2.obj
 0001:000392a0       _MixMonoNormal             00439660 f   libsdlx:virtch2.obj
 0001:00039440       _MixStereoNormal           00439800 f   libsdlx:virtch2.obj
 0001:000396b0       _MixStereoSurround         00439a70 f   libsdlx:virtch2.obj
 0001:00039880       _MixReverb_Normal          00439c40 f   libsdlx:virtch2.obj
 0001:00039b20       _MixReverb_Stereo          00439ee0 f   libsdlx:virtch2.obj
 0001:00039fb0       _Mix32To16_Normal          0043a370 f   libsdlx:virtch2.obj
 0001:0003a060       _Mix32To16_Stereo          0043a420 f   libsdlx:virtch2.obj
 0001:0003a1a0       _Mix32To8_Normal           0043a560 f   libsdlx:virtch2.obj
 0001:0003a240       _Mix32To8_Stereo           0043a600 f   libsdlx:virtch2.obj
 0001:0003a380       _AddChannel                0043a740 f   libsdlx:virtch2.obj
 0001:0003b610       _SDL_SYS_CDEject           0043b9d0 f   libsdlx:SDL_syscdrom.obj
 0001:0003b640       _SDL_SYS_CDGetTOC          0043ba00 f   libsdlx:SDL_syscdrom.obj
 0001:0003b810       _SDL_SYS_CDStatus          0043bbd0 f   libsdlx:SDL_syscdrom.obj
 0001:0003b830       _SDL_SYS_CDName            0043bbf0 f   libsdlx:SDL_syscdrom.obj
 0001:0003b840       _SDL_SYS_CDOpen            0043bc00 f   libsdlx:SDL_syscdrom.obj
 0001:0003b9a0       _SDL_SYS_CDClose           0043bd60 f   libsdlx:SDL_syscdrom.obj
 0001:0003ba30       _SDL_SYS_CDStop            0043bdf0 f   libsdlx:SDL_syscdrom.obj
 0001:0003ba90       _SDL_SYS_CDPause           0043be50 f   libsdlx:SDL_syscdrom.obj
 0001:0003bd10       _SDL_SYS_CDResume          0043c0d0 f   libsdlx:SDL_syscdrom.obj
 0001:0003be40       _SDL_SYS_CDPlay            0043c200 f   libsdlx:SDL_syscdrom.obj
 0001:0003c1d0       __os_lacing_expand         0043c590 f   libsdlx:framing.obj
 0001:0003c8d0       __packetout                0043cc90 f   libsdlx:framing.obj
 0001:0003cc90       __vorbis_unpack_info       0043d050 f   libsdlx:info.obj
 0001:0003cd60       __vorbis_unpack_comment    0043d120 f   libsdlx:info.obj
 0001:0003ce60       __vorbis_unpack_books      0043d220 f   libsdlx:info.obj
 0001:0003d610       __vds_shared_init          0043d9d0 f   libsdlx:block.obj
 0001:0003e6f0       _BlitNto1SurfaceAlpha      0043eab0 f   libsdlx:SDL_blit_A.obj
 0001:0003ebf0       _BlitNto1PixelAlpha        0043efb0 f   libsdlx:SDL_blit_A.obj
 0001:0003f160       _BlitNto1SurfaceAlphaKey   0043f520 f   libsdlx:SDL_blit_A.obj
 0001:0003fb10       _BlitRGBtoRGBSurfaceAlpha128 0043fed0 f   libsdlx:SDL_blit_A.obj
 0001:0003fc80       _BlitRGBtoRGBSurfaceAlpha  00440040 f   libsdlx:SDL_blit_A.obj
 0001:0003fe90       _BlitRGBtoRGBPixelAlpha    00440250 f   libsdlx:SDL_blit_A.obj
 0001:00040130       _Blit16to16SurfaceAlpha128 004404f0 f   libsdlx:SDL_blit_A.obj
 0001:00040370       _Blit565to565SurfaceAlpha  00440730 f   libsdlx:SDL_blit_A.obj
 0001:00040540       _Blit555to555SurfaceAlpha  00440900 f   libsdlx:SDL_blit_A.obj
 0001:00040710       _BlitARGBto565PixelAlpha   00440ad0 f   libsdlx:SDL_blit_A.obj
 0001:000409c0       _BlitARGBto555PixelAlpha   00440d80 f   libsdlx:SDL_blit_A.obj
 0001:00040c70       _BlitNtoNSurfaceAlpha      00441030 f   libsdlx:SDL_blit_A.obj
 0001:00041500       _BlitNtoNSurfaceAlphaKey   004418c0 f   libsdlx:SDL_blit_A.obj
 0001:00041db0       _BlitNtoNPixelAlpha        00442170 f   libsdlx:SDL_blit_A.obj
 0001:00042880       _rs_plain                  00442c40 f   libsdlx:resample.obj
 0001:00042980       _rs_loop                   00442d40 f   libsdlx:resample.obj
 0001:00042a40       _rs_bidir                  00442e00 f   libsdlx:resample.obj
 0001:00042b80       _update_vibrato            00442f40 f   libsdlx:resample.obj
 0001:00042cc0       _rs_vib_plain              00443080 f   libsdlx:resample.obj
 0001:00042de0       _rs_vib_loop               004431a0 f   libsdlx:resample.obj
 0001:00042f00       _rs_vib_bidir              004432c0 f   libsdlx:resample.obj
 0001:00043450       _ino                       00443810 f   libsdlx:filter.obj
 0001:000434c0       _kaiser                    00443880 f   libsdlx:filter.obj
 0001:00043550       _designfir                 00443910 f   libsdlx:filter.obj
 0001:00043680       _filter                    00443a40 f   libsdlx:filter.obj
 0001:00043d30       _ctl_open                  004440f0 f   libsdlx:sdl_c.obj
 0001:00043d40       _ctl_close                 00444100 f   libsdlx:sdl_c.obj
 0001:00043d50       _cmsg                      00444110 f   libsdlx:sdl_c.obj
 0001:00044990       _min_curve                 00444d50 f   libsdlx:psy.obj
 0001:00044a40       _max_curve                 00444e00 f   libsdlx:psy.obj
 0001:00044af0       _setup_tone_curves         00444eb0 f   libsdlx:psy.obj
 0001:00045cf0       _seed_curve                004460b0 f   libsdlx:psy.obj
 0001:00045e50       _seed_loop                 00446210 f   libsdlx:psy.obj
 0001:00045f30       _seed_chase                004462f0 f   libsdlx:psy.obj
 0001:00046080       _max_seeds                 00446440 f   libsdlx:psy.obj
 0001:00046180       _bark_noise_hybridmp       00446540 f   libsdlx:psy.obj
 0001:00047270       _couple_lossless           00447630 f   libsdlx:psy.obj
 0001:00047340       _dipole_hypot              00447700 f   libsdlx:psy.obj
 0001:00047420       _round_hypot               004477e0 f   libsdlx:psy.obj
 0001:00047600       _apsort                    004479c0 f   libsdlx:psy.obj
 0001:000485e0       _sort32a                   004489a0 f   libsdlx:sharedbook.obj
 0001:00048dd0       _bitreverse                00449190 f   libsdlx:codebook.obj
 0001:00048e40       _decode_packed_entry_number 00449200 f   libsdlx:codebook.obj
 0001:000493b0       _drfti1                    00449770 f   libsdlx:smallft.obj
 0001:00049560       _dradf2                    00449920 f   libsdlx:smallft.obj
 0001:00049950       _dradf4                    00449d10 f   libsdlx:smallft.obj
 0001:0004a350       _dradfg                    0044a710 f   libsdlx:smallft.obj
 0001:0004bcb0       _drftf1                    0044c070 f   libsdlx:smallft.obj
 0001:0004c150       _mdct_butterfly_16         0044c510 f   libsdlx:mdct.obj
 0001:0004c3a0       _mdct_butterfly_32         0044c760 f   libsdlx:mdct.obj
 0001:0004c650       _mdct_butterfly_first      0044ca10 f   libsdlx:mdct.obj
 0001:0004c800       _mdct_butterfly_generic    0044cbc0 f   libsdlx:mdct.obj
 0001:0004c9d0       _mdct_butterflies          0044cd90 f   libsdlx:mdct.obj
 0001:0004cad0       _mdct_bitreverse           0044ce90 f   libsdlx:mdct.obj
 0001:0004d680       _mapping0_free_info        0044da40 f   libsdlx:mapping0.obj
 0001:0004d6a0       _mapping0_pack             0044da60 f   libsdlx:mapping0.obj
 0001:0004d810       _mapping0_unpack           0044dbd0 f   libsdlx:mapping0.obj
 0001:0004da10       _mapping0_forward          0044ddd0 f   libsdlx:mapping0.obj
 0001:0004e4b0       _mapping0_inverse          0044e870 f   libsdlx:mapping0.obj
 0001:0004eea0       _local_book_besterror      0044f260 f   libsdlx:res0.obj
 0001:0004f210       __encodepart               0044f5d0 f   libsdlx:res0.obj
 0001:0004f280       __01class                  0044f640 f   libsdlx:res0.obj
 0001:0004f490       __2class                   0044f850 f   libsdlx:res0.obj
 0001:0004f770       __01forward                0044fb30 f   libsdlx:res0.obj
 0001:0004f9d0       __01inverse                0044fd90 f   libsdlx:res0.obj
 0001:000503b0       _floor1_free_info          00450770 f   libsdlx:floor1.obj
 0001:000503d0       _floor1_free_look          00450790 f   libsdlx:floor1.obj
 0001:000503f0       _floor1_pack               004507b0 f   libsdlx:floor1.obj
 0001:000505d0       _floor1_unpack             00450990 f   libsdlx:floor1.obj
 0001:00050820       _icomp                     00450be0 f   libsdlx:floor1.obj
 0001:00050840       _floor1_look               00450c00 f   libsdlx:floor1.obj
 0001:00050a60       _render_line               00450e20 f   libsdlx:floor1.obj
 0001:00050c10       _render_line0              00450fd0 f   libsdlx:floor1.obj
 0001:00050ca0       _accumulate_fit            00451060 f   libsdlx:floor1.obj
 0001:00050eb0       _fit_line                  00451270 f   libsdlx:floor1.obj
 0001:000510a0       _inspect_error             00451460 f   libsdlx:floor1.obj
 0001:00051e70       _floor1_inverse1           00452230 f   libsdlx:floor1.obj
 0001:00052190       _floor1_inverse2           00452550 f   libsdlx:floor1.obj
 0001:00052320       _floor0_free_info          004526e0 f   libsdlx:floor0.obj
 0001:00052340       _floor0_free_look          00452700 f   libsdlx:floor0.obj
 0001:000523b0       _floor0_unpack             00452770 f   libsdlx:floor0.obj
 0001:00052480       _floor0_map_lazy_init      00452840 f   libsdlx:floor0.obj
 0001:00052610       _floor0_look               004529d0 f   libsdlx:floor0.obj
 0001:00052640       _floor0_inverse1           00452a00 f   libsdlx:floor0.obj
 0001:00052790       _floor0_inverse2           00452b50 f   libsdlx:floor0.obj
 0001:00052b10       _RWread                    00452ed0 f   sdl_ttf:SDL_ttf.obj
 0001:00052b40       _Flush_Cache               00452f00 f   sdl_ttf:SDL_ttf.obj
 0001:00052be0       _Load_Glyph                00452fa0 f   sdl_ttf:SDL_ttf.obj
 0001:00053120       _Find_Glyph                004534e0 f   sdl_ttf:SDL_ttf.obj
 0001:00054560       _ft_trig_prenorm           00454920 f   sdl_ttf:ftbase.obj
 0001:000545c0       _ft_trig_pseudo_polarize   00454980 f   sdl_ttf:ftbase.obj
 0001:00054fd0       _FT_GlyphLoader_Adjust_Points 00455390 f   sdl_ttf:ftbase.obj
 0001:000551e0       _ft_input_stream_new       004555a0 f   sdl_ttf:ftbase.obj
 0001:000552f0       _ft_input_stream_free      004556b0 f   sdl_ttf:ftbase.obj
 0001:00055320       _ft_glyphslot_init         004556e0 f   sdl_ttf:ftbase.obj
 0001:000554d0       _ft_glyphslot_clear        00455890 f   sdl_ttf:ftbase.obj
 0001:00055550       _ft_glyphslot_done         00455910 f   sdl_ttf:ftbase.obj
 0001:000556b0       _destroy_size              00455a70 f   sdl_ttf:ftbase.obj
 0001:00055710       _find_unicode_charmap      00455ad0 f   sdl_ttf:ftbase.obj
 0001:00055790       _open_face                 00455b50 f   sdl_ttf:ftbase.obj
 0001:000558a0       _memory_stream_close       00455c60 f   sdl_ttf:ftbase.obj
 0001:000558e0       _new_memory_stream         00455ca0 f   sdl_ttf:ftbase.obj
 0001:00055b20       _ft_recompute_scaled_metrics 00455ee0 f   sdl_ttf:ftbase.obj
 0001:00055fc0       _ft_lookup_glyph_renderer  00456380 f   sdl_ttf:ftbase.obj
 0001:00056010       _ft_set_current_renderer   004563d0 f   sdl_ttf:ftbase.obj
 0001:00056050       _ft_add_renderer           00456410 f   sdl_ttf:ftbase.obj
 0001:00056130       _ft_remove_renderer        004564f0 f   sdl_ttf:ftbase.obj
 0001:00056ad0       _destroy_face              00456e90 f   sdl_ttf:ftbase.obj
 0001:00056c70       _open_face_from_buffer     00457030 f   sdl_ttf:ftbase.obj
 0001:00056d40       _Mac_Read_POST_Resource    00457100 f   sdl_ttf:ftbase.obj
 0001:000570b0       _Mac_Read_sfnt_Resource    00457470 f   sdl_ttf:ftbase.obj
 0001:00057240       _IsMacResource             00457600 f   sdl_ttf:ftbase.obj
 0001:00057520       _IsMacBinary               004578e0 f   sdl_ttf:ftbase.obj
 0001:00057760       _Destroy_Module            00457b20 f   sdl_ttf:ftbase.obj
 0001:00057e30       _fnt_font_done             004581f0 f   sdl_ttf:winfnt.obj
 0001:00057e80       _fnt_font_load             00458240 f   sdl_ttf:winfnt.obj
 0001:00057f20       _fnt_face_get_dll_font     004582e0 f   sdl_ttf:winfnt.obj
 0001:00058180       _fnt_cmap_init             00458540 f   sdl_ttf:winfnt.obj
 0001:000581a0       _fnt_cmap_char_index       00458560 f   sdl_ttf:winfnt.obj
 0001:000581c0       _fnt_cmap_char_next        00458580 f   sdl_ttf:winfnt.obj
 0001:00058200       _FNT_Face_Done             004585c0 f   sdl_ttf:winfnt.obj
 0001:00058270       _FNT_Face_Init             00458630 f   sdl_ttf:winfnt.obj
 0001:00058450       _FNT_Size_Set_Pixels       00458810 f   sdl_ttf:winfnt.obj
 0001:000584b0       _FNT_Load_Glyph            00458870 f   sdl_ttf:winfnt.obj
 0001:00058610       _pfr_extra_items_parse     004589d0 f   sdl_ttf:pfr.obj
 0001:000586b0       _pfr_extra_item_load_bitmap_info 00458a70 f   sdl_ttf:pfr.obj
 0001:00058870       _pfr_extra_item_load_font_id 00458c30 f   sdl_ttf:pfr.obj
 0001:000588c0       _pfr_extra_item_load_stem_snaps 00458c80 f   sdl_ttf:pfr.obj
 0001:00058960       _pfr_extra_item_load_kerning_pairs 00458d20 f   sdl_ttf:pfr.obj
 0001:00058b10       _pfr_aux_name_load         00458ed0 f   sdl_ttf:pfr.obj
 0001:00058ba0       _pfr_phy_font_done         00458f60 f   sdl_ttf:pfr.obj
 0001:00058c50       _pfr_phy_font_load         00459010 f   sdl_ttf:pfr.obj
 0001:000590b0       _pfr_glyph_close_contour   00459470 f   sdl_ttf:pfr.obj
 0001:00059120       _pfr_cmap_init             004594e0 f   sdl_ttf:pfr.obj
 0001:00059140       _pfr_cmap_char_index       00459500 f   sdl_ttf:pfr.obj
 0001:00059190       _pfr_cmap_char_next        00459550 f   sdl_ttf:pfr.obj
 0001:00059240       _pfr_face_done             00459600 f   sdl_ttf:pfr.obj
 0001:00059280       _pfr_slot_init             00459640 f   sdl_ttf:pfr.obj
 0001:000592c0       _pfr_slot_done             00459680 f   sdl_ttf:pfr.obj
 0001:00059330       _pfr_face_get_kerning      004596f0 f   sdl_ttf:pfr.obj
 0001:00059490       _pfr_get_kerning           00459850 f   sdl_ttf:pfr.obj
 0001:00059500       _pfr_get_advance           004598c0 f   sdl_ttf:pfr.obj
 0001:00059540       _pfr_get_metrics           00459900 f   sdl_ttf:pfr.obj
 0001:000595c0       _pfr_bitwriter_init        00459980 f   sdl_ttf:pfr.obj
 0001:00059600       _pfr_bitwriter_decode_bytes 004599c0 f   sdl_ttf:pfr.obj
 0001:000596c0       _pfr_bitwriter_decode_rle1 00459a80 f   sdl_ttf:pfr.obj
 0001:000597c0       _pfr_bitwriter_decode_rle2 00459b80 f   sdl_ttf:pfr.obj
 0001:00059890       _pfr_lookup_bitmap_data    00459c50 f   sdl_ttf:pfr.obj
 0001:000599a0       _pfr_load_bitmap_metrics   00459d60 f   sdl_ttf:pfr.obj
 0001:00059bf0       _pfr_load_bitmap_bits      00459fb0 f   sdl_ttf:pfr.obj
 0001:00059c70       _pfr_slot_load_bitmap      0045a030 f   sdl_ttf:pfr.obj
 0001:00059ef0       _pfr_log_font_load         0045a2b0 f   sdl_ttf:pfr.obj
 0001:0005a1a0       _pfr_glyph_load_simple     0045a560 f   sdl_ttf:pfr.obj
 0001:0005a6b0       _pfr_glyph_load_compound   0045aa70 f   sdl_ttf:pfr.obj
 0001:0005a970       _pfr_glyph_load_rec        0045ad30 f   sdl_ttf:pfr.obj
 0001:0005ab30       _pfr_face_init             0045aef0 f   sdl_ttf:pfr.obj
 0001:0005ae50       _pfr_slot_load             0045b210 f   sdl_ttf:pfr.obj
 0001:0005b0c0       _T42_Face_Done             0045b480 f   sdl_ttf:type42.obj
 0001:0005b1e0       _T42_Driver_Init           0045b5a0 f   sdl_ttf:type42.obj
 0001:0005b200       _T42_Size_Init             0045b5c0 f   sdl_ttf:type42.obj
 0001:0005b230       _T42_Size_Done             0045b5f0 f   sdl_ttf:type42.obj
 0001:0005b270       _T42_GlyphSlot_Init        0045b630 f   sdl_ttf:type42.obj
 0001:0005b2b0       _T42_GlyphSlot_Done        0045b670 f   sdl_ttf:type42.obj
 0001:0005b2f0       _T42_Size_SetChars         0045b6b0 f   sdl_ttf:type42.obj
 0001:0005b330       _T42_Size_SetPixels        0045b6f0 f   sdl_ttf:type42.obj
 0001:0005b360       _t42_glyphslot_clear       0045b720 f   sdl_ttf:type42.obj
 0001:0005b3e0       _T42_GlyphSlot_Load        0045b7a0 f   sdl_ttf:type42.obj
 0001:0005b4e0       _t42_parser_init           0045b8a0 f   sdl_ttf:type42.obj
 0001:0005b5e0       _is_space                  0045b9a0 f   sdl_ttf:type42.obj
 0001:0005b5e0       _t42_is_space              0045b9a0 f   sdl_ttf:type42.obj
 0001:0005b600       _t42_parse_font_matrix     0045b9c0 f   sdl_ttf:type42.obj
 0001:0005b6e0       _t42_parse_encoding        0045baa0 f   sdl_ttf:type42.obj
 0001:0005b9b0       _t42_parse_sfnts           0045bd70 f   sdl_ttf:type42.obj
 0001:0005bcb0       _t42_parse_charstrings     0045c070 f   sdl_ttf:type42.obj
 0001:0005bec0       _t42_load_keyword          0045c280 f   sdl_ttf:type42.obj
 0001:0005bf30       _t42_parse_dict            0045c2f0 f   sdl_ttf:type42.obj
 0001:0005c100       _t42_loader_done           0045c4c0 f   sdl_ttf:type42.obj
 0001:0005c160       _t42_get_glyph_name        0045c520 f   sdl_ttf:type42.obj
 0001:0005c160       _t1_get_glyph_name         0045c520 f   sdl_ttf:type42.obj
 0001:0005c1c0       _t1_get_ps_name            0045c580 f   sdl_ttf:type42.obj
 0001:0005c1c0       _t42_get_ps_name           0045c580 f   sdl_ttf:type42.obj
 0001:0005c1d0       _t42_get_name_index        0045c590 f   sdl_ttf:type42.obj
 0001:0005c250       _T42_Get_Interface         0045c610 f   sdl_ttf:type42.obj
 0001:0005c2b0       _T42_Open_Face             0045c670 f   sdl_ttf:type42.obj
 0001:0005c540       _T42_Face_Init             0045c900 f   sdl_ttf:type42.obj
 0001:0005c810       _read_pfb_tag              0045cbd0 f   sdl_ttf:type1.obj
 0001:0005c860       _T1_New_Parser             0045cc20 f   sdl_ttf:type1.obj
 0001:0005c9f0       _hexa_value                0045cdb0 f   sdl_ttf:type1.obj
 0001:0005ca20       _T1_Get_Private_Dict       0045cde0 f   sdl_ttf:type1.obj
 0001:0005cd90       _t1_allocate_blend         0045d150 f   sdl_ttf:type1.obj
 0001:0005cf90       _T1_Get_Multi_Master       0045d350 f   sdl_ttf:type1.obj
 0001:0005d000       _T1_Set_MM_Blend           0045d3c0 f   sdl_ttf:type1.obj
 0001:0005d0a0       _T1_Set_MM_Design          0045d460 f   sdl_ttf:type1.obj
 0001:0005d1a0       _T1_Done_Blend             0045d560 f   sdl_ttf:type1.obj
 0001:0005d2a0       _parse_blend_axis_types    0045d660 f   sdl_ttf:type1.obj
 0001:0005d3d0       _parse_blend_design_positions 0045d790 f   sdl_ttf:type1.obj
 0001:0005d540       _parse_blend_design_map    0045d900 f   sdl_ttf:type1.obj
 0001:0005d6c0       _parse_weight_vector       0045da80 f   sdl_ttf:type1.obj
 0001:0005d780       _parse_shared_dict         0045db40 f   sdl_ttf:type1.obj
 0001:0005d7a0       _t1_load_keyword           0045db60 f   sdl_ttf:type1.obj
 0001:0005d860       _read_binary_data          0045dc20 f   sdl_ttf:type1.obj
 0001:0005d8b0       _parse_font_matrix         0045dc70 f   sdl_ttf:type1.obj
 0001:0005d9b0       _parse_encoding            0045dd70 f   sdl_ttf:type1.obj
 0001:0005dcb0       _parse_subrs               0045e070 f   sdl_ttf:type1.obj
 0001:0005dea0       _parse_charstrings         0045e260 f   sdl_ttf:type1.obj
 0001:0005e3d0       _parse_dict                0045e790 f   sdl_ttf:type1.obj
 0001:0005e5b0       _t1_done_loader            0045e970 f   sdl_ttf:type1.obj
 0001:0005e650       _T1_Open_Face              0045ea10 f   sdl_ttf:type1.obj
 0001:0005e9b0       _T1_Size_Done              0045ed70 f   sdl_ttf:type1.obj
 0001:0005ea10       _T1_Size_Init              0045edd0 f   sdl_ttf:type1.obj
 0001:0005ea80       _T1_Size_Reset             0045ee40 f   sdl_ttf:type1.obj
 0001:0005eae0       _T1_GlyphSlot_Done         0045eea0 f   sdl_ttf:type1.obj
 0001:0005eae0       _cff_slot_done             0045eea0 f   sdl_ttf:type1.obj
 0001:0005eae0       _cid_slot_done             0045eea0 f   sdl_ttf:type1.obj
 0001:0005eb00       _T1_GlyphSlot_Init         0045eec0 f   sdl_ttf:type1.obj
 0001:0005eb40       _t1_get_name_index         0045ef00 f   sdl_ttf:type1.obj
 0001:0005ebb0       _Get_Interface             0045ef70 f   sdl_ttf:type1.obj
 0001:0005ec60       _T1_Parse_Glyph_And_Get_Char_String 0045f020 f   sdl_ttf:type1.obj
 0001:0005ecd0       _T1_Parse_Glyph            0045f090 f   sdl_ttf:type1.obj
 0001:0005ecf0       _T1_Compute_Max_Advance    0045f0b0 f   sdl_ttf:type1.obj
 0001:0005edb0       _T1_Load_Glyph             0045f170 f   sdl_ttf:type1.obj
 0001:0005f150       _afm_atoindex              0045f510 f   sdl_ttf:type1.obj
 0001:0005f280       _afm_atoi                  0045f640 f   sdl_ttf:type1.obj
 0001:0005f310       _compare_kern_pairs        0045f6d0 f   sdl_ttf:type1.obj
 0001:0005f340       _T1_Read_AFM               0045f700 f   sdl_ttf:type1.obj
 0001:0005f520       _T1_Get_Kerning            0045f8e0 f   sdl_ttf:type1.obj
 0001:0005f5a0       _T1_Face_Done              0045f960 f   sdl_ttf:type1.obj
 0001:0005f700       _T1_Face_Init              0045fac0 f   sdl_ttf:type1.obj
 0001:0005fa20       _Get_Kerning               0045fde0 f   sdl_ttf:type1.obj
 0001:0005fa60       _Get_Kerning               0045fe20 f   sdl_ttf:truetype.obj
 0001:0005fa60       _Get_Kerning               0045fe20 f   sdl_ttf:truetype.obj
 0001:0005faf0       _tt_get_interface          0045feb0 f   sdl_ttf:truetype.obj
 0001:0005fb30       _tt_face_load_loca         0045fef0 f   sdl_ttf:truetype.obj
 0001:0005fc70       _tt_face_load_cvt          00460030 f   sdl_ttf:truetype.obj
 0001:0005fd20       _tt_face_load_fpgm         004600e0 f   sdl_ttf:truetype.obj
 0001:0005fdd0       _TT_Get_Metrics            00460190 f   sdl_ttf:truetype.obj
 0001:0005fe20       _Get_HMetrics              004601e0 f   sdl_ttf:truetype.obj
 0001:0005fe90       _Get_Advance_Widths        00460250 f   sdl_ttf:truetype.obj
 0001:0005fed0       _translate_array           00460290 f   sdl_ttf:truetype.obj
 0001:0005ff00       _TT_Access_Glyph_Frame     004602c0 f   sdl_ttf:truetype.obj
 0001:0005ff30       _TT_Forget_Glyph_Frame     004602f0 f   sdl_ttf:truetype.obj
 0001:0005ff40       _TT_Load_Glyph_Header      00460300 f   sdl_ttf:truetype.obj
 0001:0005ffb0       _TT_Load_Simple_Glyph      00460370 f   sdl_ttf:truetype.obj
 0001:00060290       _TT_Load_Composite_Glyph   00460650 f   sdl_ttf:truetype.obj
 0001:00060460       _TT_Process_Simple_Glyph   00460820 f   sdl_ttf:truetype.obj
 0001:000605e0       _load_truetype_glyph       004609a0 f   sdl_ttf:truetype.obj
 0001:00060af0       _compute_glyph_metrics     00460eb0 f   sdl_ttf:truetype.obj
 0001:00060d80       _TT_Load_Glyph             00461140 f   sdl_ttf:truetype.obj
 0001:00060ff0       _tt_face_init              004613b0 f   sdl_ttf:truetype.obj
 0001:000610f0       _tt_face_done              004614b0 f   sdl_ttf:truetype.obj
 0001:00061180       _tt_size_init              00461540 f   sdl_ttf:truetype.obj
 0001:00061190       _tt_size_done              00461550 f   sdl_ttf:truetype.obj
 0001:000611a0       _Reset_Outline_Size        00461560 f   sdl_ttf:truetype.obj
 0001:000612a0       _Reset_SBit_Size           00461660 f   sdl_ttf:truetype.obj
 0001:00061370       _tt_size_reset             00461730 f   sdl_ttf:truetype.obj
 0001:000613e0       _tt_driver_init            004617a0 f   sdl_ttf:truetype.obj
 0001:000613f0       _Set_Char_Sizes            004617b0 f   sdl_ttf:truetype.obj
 0001:000614d0       _Set_Pixel_Sizes           00461890 f   sdl_ttf:truetype.obj
 0001:00061500       _Load_Glyph                004618c0 f   sdl_ttf:truetype.obj
 0001:00061580       _gray_compute_cbox         00461940 f   sdl_ttf:smooth.obj
 0001:00061620       _gray_record_cell          004619e0 f   sdl_ttf:smooth.obj
 0001:00061680       _gray_set_cell             00461a40 f   sdl_ttf:smooth.obj
 0001:00061700       _gray_render_scanline      00461ac0 f   sdl_ttf:smooth.obj
 0001:000618d0       _gray_render_line          00461c90 f   sdl_ttf:smooth.obj
 0001:00061b90       _gray_split_conic          00461f50 f   sdl_ttf:smooth.obj
 0001:00061bf0       _gray_render_conic         00461fb0 f   sdl_ttf:smooth.obj
 0001:00061da0       _gray_split_cubic          00462160 f   sdl_ttf:smooth.obj
 0001:00061e50       _gray_render_cubic         00462210 f   sdl_ttf:smooth.obj
 0001:000620b0       _gray_quick_sort           00462470 f   sdl_ttf:smooth.obj
 0001:00062420       _gray_move_to              004627e0 f   sdl_ttf:smooth.obj
 0001:00062480       _gray_line_to              00462840 f   sdl_ttf:smooth.obj
 0001:000624a0       _gray_conic_to             00462860 f   sdl_ttf:smooth.obj
 0001:000624c0       _gray_cubic_to             00462880 f   sdl_ttf:smooth.obj
 0001:000624e0       _gray_render_span          004628a0 f   sdl_ttf:smooth.obj
 0001:00062570       _gray_hline                00462930 f   sdl_ttf:smooth.obj
 0001:00062690       _gray_sweep                00462a50 f   sdl_ttf:smooth.obj
 0001:000627d0       _gray_convert_glyph_inner  00462b90 f   sdl_ttf:smooth.obj
 0001:00062830       _gray_convert_glyph        00462bf0 f   sdl_ttf:smooth.obj
 0001:00062c70       _gray_raster_new           00463030 f   sdl_ttf:smooth.obj
 0001:00062cb0       _gray_raster_done          00463070 f   sdl_ttf:smooth.obj
 0001:00062cd0       _gray_raster_reset         00463090 f   sdl_ttf:smooth.obj
 0001:00062d20       _ft_smooth_transform       004630e0 f   sdl_ttf:smooth.obj
 0001:00062d20       _ft_raster1_transform      004630e0 f   sdl_ttf:smooth.obj
 0001:00062d80       _ft_raster1_get_cbox       00463140 f   sdl_ttf:smooth.obj
 0001:00062d80       _ft_smooth_get_cbox        00463140 f   sdl_ttf:smooth.obj
 0001:00062dc0       _ft_smooth_render_generic  00463180 f   sdl_ttf:smooth.obj
 0001:00063050       _ft_smooth_render          00463410 f   sdl_ttf:smooth.obj
 0001:00063080       _ft_smooth_render_lcd      00463440 f   sdl_ttf:smooth.obj
 0001:000630b0       _ft_smooth_render_lcd_v    00463470 f   sdl_ttf:smooth.obj
 0001:000630e0       _tt_face_goto_table        004634a0 f   sdl_ttf:sfnt.obj
 0001:00063140       _sfnt_dir_check            00463500 f   sdl_ttf:sfnt.obj
 0001:000632c0       _tt_face_load_sfnt_header  00463680 f   sdl_ttf:sfnt.obj
 0001:00063440       _tt_face_load_directory    00463800 f   sdl_ttf:sfnt.obj
 0001:00063500       _tt_face_load_any          004638c0 f   sdl_ttf:sfnt.obj
 0001:00063590       _tt_face_load_header       00463950 f   sdl_ttf:sfnt.obj
 0001:000635d0       _tt_face_load_bitmap_header 00463990 f   sdl_ttf:sfnt.obj
 0001:00063610       _tt_face_load_max_profile  004639d0 f   sdl_ttf:sfnt.obj
 0001:00063860       _tt_face_load_metrics      00463c20 f   sdl_ttf:sfnt.obj
 0001:00063a40       _tt_face_load_metrics_header 00463e00 f   sdl_ttf:sfnt.obj
 0001:00063c10       _tt_face_load_names        00463fd0 f   sdl_ttf:sfnt.obj
 0001:00063d90       _tt_face_free_names        00464150 f   sdl_ttf:sfnt.obj
 0001:00063e00       _tt_face_load_cmap         004641c0 f   sdl_ttf:sfnt.obj
 0001:00063e50       _tt_face_load_os2          00464210 f   sdl_ttf:sfnt.obj
 0001:00064360       _tt_face_load_postscript   00464720 f   sdl_ttf:sfnt.obj
 0001:000643a0       _tt_face_load_pclt         00464760 f   sdl_ttf:sfnt.obj
 0001:000643f0       _tt_face_load_gasp         004647b0 f   sdl_ttf:sfnt.obj
 0001:000644e0       _tt_kern_pair_compare      004648a0 f   sdl_ttf:sfnt.obj
 0001:00064510       _tt_face_load_hdmx         004648d0 f   sdl_ttf:sfnt.obj
 0001:000646c0       _tt_face_free_hdmx         00464a80 f   sdl_ttf:sfnt.obj
 0001:00064720       _tt_face_free_charmap      00464ae0 f   sdl_ttf:sfnt.obj
 0001:00064840       _code_to_index0            00464c00 f   sdl_ttf:sfnt.obj
 0001:00064860       _code_to_next0             00464c20 f   sdl_ttf:sfnt.obj
 0001:00064890       _code_to_index2            00464c50 f   sdl_ttf:sfnt.obj
 0001:00064910       _code_to_next2             00464cd0 f   sdl_ttf:sfnt.obj
 0001:000649a0       _code_to_index4            00464d60 f   sdl_ttf:sfnt.obj
 0001:00064a70       _code_to_next4             00464e30 f   sdl_ttf:sfnt.obj
 0001:00064b00       _code_to_index6            00464ec0 f   sdl_ttf:sfnt.obj
 0001:00064b30       _code_to_next6             00464ef0 f   sdl_ttf:sfnt.obj
 0001:00064b70       _code_to_index8_12         00464f30 f   sdl_ttf:sfnt.obj
 0001:00064be0       _code_to_next8_12          00464fa0 f   sdl_ttf:sfnt.obj
 0001:00064c20       _code_to_index10           00464fe0 f   sdl_ttf:sfnt.obj
 0001:00064c40       _code_to_next10            00465000 f   sdl_ttf:sfnt.obj
 0001:00064c80       _tt_cmap_init              00465040 f   sdl_ttf:sfnt.obj
 0001:00064c90       _tt_cmap0_validate         00465050 f   sdl_ttf:sfnt.obj
 0001:00064cf0       _tt_cmap0_char_index       004650b0 f   sdl_ttf:sfnt.obj
 0001:00064d10       _tt_cmap0_char_next        004650d0 f   sdl_ttf:sfnt.obj
 0001:00064d50       _tt_cmap2_validate         00465110 f   sdl_ttf:sfnt.obj
 0001:00064ec0       _tt_cmap2_get_subheader    00465280 f   sdl_ttf:sfnt.obj
 0001:00064f20       _tt_cmap2_char_index       004652e0 f   sdl_ttf:sfnt.obj
 0001:00064fa0       _tt_cmap2_char_next        00465360 f   sdl_ttf:sfnt.obj
 0001:000650f0       _tt_cmap4_validate         004654b0 f   sdl_ttf:sfnt.obj
 0001:00065430       _tt_cmap4_char_index       004657f0 f   sdl_ttf:sfnt.obj
 0001:00065500       _tt_cmap4_char_next        004658c0 f   sdl_ttf:sfnt.obj
 0001:00065660       _tt_cmap6_validate         00465a20 f   sdl_ttf:sfnt.obj
 0001:000656f0       _tt_cmap6_char_index       00465ab0 f   sdl_ttf:sfnt.obj
 0001:00065730       _tt_cmap6_char_next        00465af0 f   sdl_ttf:sfnt.obj
 0001:000657b0       _tt_cmap8_validate         00465b70 f   sdl_ttf:sfnt.obj
 0001:00065aa0       _tt_cmap8_char_index       00465e60 f   sdl_ttf:sfnt.obj
 0001:00065ba0       _tt_cmap8_char_next        00465f60 f   sdl_ttf:sfnt.obj
 0001:00065cd0       _tt_cmap10_validate        00466090 f   sdl_ttf:sfnt.obj
 0001:00065d80       _tt_cmap10_char_index      00466140 f   sdl_ttf:sfnt.obj
 0001:00065df0       _tt_cmap10_char_next       004661b0 f   sdl_ttf:sfnt.obj
 0001:00065e80       _tt_cmap12_validate        00466240 f   sdl_ttf:sfnt.obj
 0001:00066030       _tt_cmap12_char_index      004663f0 f   sdl_ttf:sfnt.obj
 0001:00066130       _tt_cmap12_char_next       004664f0 f   sdl_ttf:sfnt.obj
 0001:00066250       _tt_face_build_cmaps       00466610 f   sdl_ttf:sfnt.obj
 0001:00066410       _tt_name_entry_ascii_from_utf16 004667d0 f   sdl_ttf:sfnt.obj
 0001:00066480       _tt_name_entry_ascii_from_ucs4 00466840 f   sdl_ttf:sfnt.obj
 0001:00066510       _tt_name_entry_ascii_from_other 004668d0 f   sdl_ttf:sfnt.obj
 0001:00066570       _tt_face_get_name          00466930 f   sdl_ttf:sfnt.obj
 0001:00066700       _sfnt_init_face            00466ac0 f   sdl_ttf:sfnt.obj
 0001:000667d0       _sfnt_load_face            00466b90 f   sdl_ttf:sfnt.obj
 0001:00066c20       _sfnt_done_face            00466fe0 f   sdl_ttf:sfnt.obj
 0001:00066d40       _get_sfnt_table            00467100 f   sdl_ttf:sfnt.obj
 0001:00066de0       _get_sfnt_postscript_name  004671a0 f   sdl_ttf:sfnt.obj
 0001:00066fd0       _blit_sbit                 00467390 f   sdl_ttf:sfnt.obj
 0001:00067120       _Load_SBit_Const_Metrics   004674e0 f   sdl_ttf:sfnt.obj
 0001:00067160       _Load_SBit_Range_Codes     00467520 f   sdl_ttf:sfnt.obj
 0001:00067250       _Load_SBit_Range           00467610 f   sdl_ttf:sfnt.obj
 0001:00067380       _tt_face_load_sbit_strikes 00467740 f   sdl_ttf:sfnt.obj
 0001:00067840       _tt_face_free_sbit_strikes 00467c00 f   sdl_ttf:sfnt.obj
 0001:000678f0       _tt_face_set_sbit_strike   00467cb0 f   sdl_ttf:sfnt.obj
 0001:00067970       _find_sbit_range           00467d30 f   sdl_ttf:sfnt.obj
 0001:00067a90       _load_sbit_metrics         00467e50 f   sdl_ttf:sfnt.obj
 0001:00067bd0       _crop_bitmap               00467f90 f   sdl_ttf:sfnt.obj
 0001:00067dd0       _Load_SBit_Single          00468190 f   sdl_ttf:sfnt.obj
 0001:00067f00       _Load_SBit_Image           004682c0 f   sdl_ttf:sfnt.obj
 0001:000681e0       _tt_face_load_sbit_image   004685a0 f   sdl_ttf:sfnt.obj
 0001:00068300       _load_format_20            004686c0 f   sdl_ttf:sfnt.obj
 0001:00068510       _load_format_25            004688d0 f   sdl_ttf:sfnt.obj
 0001:000685f0       _load_post_names           004689b0 f   sdl_ttf:sfnt.obj
 0001:00068670       _tt_face_free_ps_names     00468a30 f   sdl_ttf:sfnt.obj
 0001:00068730       _tt_face_get_ps_name       00468af0 f   sdl_ttf:sfnt.obj
 0001:00068850       _tt_face_load_kern         00468c10 f   sdl_ttf:sfnt.obj
 0001:00068a60       _tt_face_load_charmap      00468e20 f   sdl_ttf:sfnt.obj
 0001:00069240       _get_sfnt_glyph_name       00469600 f   sdl_ttf:sfnt.obj
 0001:000692b0       _sfnt_get_interface        00469670 f   sdl_ttf:sfnt.obj
 0001:00069320       _Set_High_Precision        004696e0 f   sdl_ttf:raster.obj
 0001:00069380       _New_Profile               00469740 f   sdl_ttf:raster.obj
 0001:00069420       _End_Profile               004697e0 f   sdl_ttf:raster.obj
 0001:00069490       _Insert_Y_Turn             00469850 f   sdl_ttf:raster.obj
 0001:00069510       _Finalize_Profile_Table    004698d0 f   sdl_ttf:raster.obj
 0001:000695c0       _Split_Conic               00469980 f   sdl_ttf:raster.obj
 0001:00069620       _Split_Cubic               004699e0 f   sdl_ttf:raster.obj
 0001:000696b0       _Line_Up                   00469a70 f   sdl_ttf:raster.obj
 0001:00069820       _Line_Down                 00469be0 f   sdl_ttf:raster.obj
 0001:00069870       _Bezier_Up                 00469c30 f   sdl_ttf:raster.obj
 0001:000699f0       _Line_To                   00469db0 f   sdl_ttf:raster.obj
 0001:00069ab0       _Conic_To                  00469e70 f   sdl_ttf:raster.obj
 0001:00069c70       _Cubic_To                  0046a030 f   sdl_ttf:raster.obj
 0001:00069e20       _Decompose_Curve           0046a1e0 f   sdl_ttf:raster.obj
 0001:0006a170       _Convert_Glyph             0046a530 f   sdl_ttf:raster.obj
 0001:0006a260       _Sort                      0046a620 f   sdl_ttf:raster.obj
 0001:0006a2d0       _Vertical_Sweep_Init       0046a690 f   sdl_ttf:raster.obj
 0001:0006a320       _Vertical_Sweep_Span       0046a6e0 f   sdl_ttf:raster.obj
 0001:0006a420       _Vertical_Sweep_Drop       0046a7e0 f   sdl_ttf:raster.obj
 0001:0006a580       _Vertical_Sweep_Step       0046a940 f   sdl_ttf:raster.obj
 0001:0006a5a0       _Horizontal_Sweep_Span     0046a960 f   sdl_ttf:raster.obj
 0001:0006a610       _Horizontal_Sweep_Drop     0046a9d0 f   sdl_ttf:raster.obj
 0001:0006a760       _Draw_Sweep                0046ab20 f   sdl_ttf:raster.obj
 0001:0006ab70       _Render_Single_Pass        0046af30 f   sdl_ttf:raster.obj
 0001:0006ac90       _Render_Glyph              0046b050 f   sdl_ttf:raster.obj
 0001:0006ad90       _ft_black_init             0046b150 f   sdl_ttf:raster.obj
 0001:0006adf0       _ft_black_new              0046b1b0 f   sdl_ttf:raster.obj
 0001:0006ae40       _ft_black_done             0046b200 f   sdl_ttf:raster.obj
 0001:0006ae60       _ft_black_reset            0046b220 f   sdl_ttf:raster.obj
 0001:0006ae90       _ft_black_render           0046b250 f   sdl_ttf:raster.obj
 0001:0006af90       _ft_raster1_init           0046b350 f   sdl_ttf:raster.obj
 0001:0006af90       _ft_smooth_init            0046b350 f   sdl_ttf:raster.obj
 0001:0006afc0       _ft_raster1_set_mode       0046b380 f   sdl_ttf:raster.obj
 0001:0006afc0       _ft_smooth_set_mode        0046b380 f   sdl_ttf:raster.obj
 0001:0006afe0       _ft_raster1_render         0046b3a0 f   sdl_ttf:raster.obj
 0001:0006b1c0       _ps_hint_table_alloc       0046b580 f   sdl_ttf:pshinter.obj
 0001:0006b240       _ps_mask_ensure            0046b600 f   sdl_ttf:pshinter.obj
 0001:0006b280       _ps_mask_table_done        0046b640 f   sdl_ttf:pshinter.obj
 0001:0006b2d0       _ps_mask_table_alloc       0046b690 f   sdl_ttf:pshinter.obj
 0001:0006b340       _ps_mask_table_set_bits    0046b700 f   sdl_ttf:pshinter.obj
 0001:0006b410       _ps_mask_table_merge       0046b7d0 f   sdl_ttf:pshinter.obj
 0001:0006b550       _ps_mask_table_merge_all   0046b910 f   sdl_ttf:pshinter.obj
 0001:0006b640       _ps_dimension_set_mask_bits 0046ba00 f   sdl_ttf:pshinter.obj
 0001:0006b690       _ps_dimension_add_t1stem   0046ba50 f   sdl_ttf:pshinter.obj
 0001:0006b7e0       _ps_dimension_add_counter  0046bba0 f   sdl_ttf:pshinter.obj
 0001:0006ba40       _ps_hints_done             0046be00 f   sdl_ttf:pshinter.obj
 0001:0006baa0       _ps_hints_stem             0046be60 f   sdl_ttf:pshinter.obj
 0001:0006bb10       _ps_hints_t1stem3          0046bed0 f   sdl_ttf:pshinter.obj
 0001:0006bbd0       _ps_hints_t1reset          0046bf90 f   sdl_ttf:pshinter.obj
 0001:0006bc50       _ps_hints_t2mask           0046c010 f   sdl_ttf:pshinter.obj
 0001:0006bcc0       _ps_hints_t2counter        0046c080 f   sdl_ttf:pshinter.obj
 0001:0006bd50       _ps_hints_close            0046c110 f   sdl_ttf:pshinter.obj
 0001:0006bdb0       _t1_hints_open             0046c170 f   sdl_ttf:pshinter.obj
 0001:0006bde0       _t1_hints_stem             0046c1a0 f   sdl_ttf:pshinter.obj
 0001:0006be00       _t2_hints_open             0046c1c0 f   sdl_ttf:pshinter.obj
 0001:0006be30       _t2_hints_stems            0046c1f0 f   sdl_ttf:pshinter.obj
 0001:0006bee0       _psh_globals_scale_widths  0046c2a0 f   sdl_ttf:pshinter.obj
 0001:0006bf60       _psh_blues_set_zones_0     0046c320 f   sdl_ttf:pshinter.obj
 0001:0006c0b0       _psh_blues_set_zones       0046c470 f   sdl_ttf:pshinter.obj
 0001:0006c210       _psh_blues_scale_zones     0046c5d0 f   sdl_ttf:pshinter.obj
 0001:0006c3b0       _psh_blues_snap_stem       0046c770 f   sdl_ttf:pshinter.obj
 0001:0006c4a0       _psh_globals_destroy       0046c860 f   sdl_ttf:pshinter.obj
 0001:0006c4f0       _psh_globals_new           0046c8b0 f   sdl_ttf:pshinter.obj
 0001:0006c690       _psh_globals_set_scale     0046ca50 f   sdl_ttf:pshinter.obj
 0001:0006c710       _psh_hint_table_record     0046cad0 f   sdl_ttf:pshinter.obj
 0001:0006c790       _psh_hint_table_record_mask 0046cb50 f   sdl_ttf:pshinter.obj
 0001:0006c7f0       _psh_hint_table_init       0046cbb0 f   sdl_ttf:pshinter.obj
 0001:0006c8f0       _psh_hint_table_activate_mask 0046ccb0 f   sdl_ttf:pshinter.obj
 0001:0006c9e0       _psh_dimension_quantize_len 0046cda0 f   sdl_ttf:pshinter.obj
 0001:0006ca50       _psh_hint_align            0046ce10 f   sdl_ttf:pshinter.obj
 0001:0006ccf0       _psh_glyph_compute_inflections 0046d0b0 f   sdl_ttf:pshinter.obj
 0001:0006ce70       _psh_glyph_done            0046d230 f   sdl_ttf:pshinter.obj
 0001:0006cf00       _psh_glyph_load_points     0046d2c0 f   sdl_ttf:pshinter.obj
 0001:0006cf40       _psh_glyph_save_points     0046d300 f   sdl_ttf:pshinter.obj
 0001:0006cfa0       _psh_glyph_init            0046d360 f   sdl_ttf:pshinter.obj
 0001:0006d2e0       _psh_glyph_compute_extrema 0046d6a0 f   sdl_ttf:pshinter.obj
 0001:0006d3e0       _psh_hint_table_find_strong_point 0046d7a0 f   sdl_ttf:pshinter.obj
 0001:0006d520       _psh_glyph_find_strong_points 0046d8e0 f   sdl_ttf:pshinter.obj
 0001:0006d620       _psh_glyph_interpolate_strong_points 0046d9e0 f   sdl_ttf:pshinter.obj
 0001:0006d6d0       _psh_glyph_interpolate_normal_points 0046da90 f   sdl_ttf:pshinter.obj
 0001:0006d840       _psh_glyph_interpolate_other_points 0046dc00 f   sdl_ttf:pshinter.obj
 0001:0006dbc0       _ps_hinter_done            0046df80 f   sdl_ttf:pshinter.obj
 0001:0006dbe0       _pshinter_get_globals_funcs 0046dfa0 f   sdl_ttf:pshinter.obj
 0001:0006dbf0       _pshinter_get_t1_funcs     0046dfb0 f   sdl_ttf:pshinter.obj
 0001:0006dc00       _pshinter_get_t2_funcs     0046dfc0 f   sdl_ttf:pshinter.obj
 0001:0006dc10       _ps_hinter_init            0046dfd0 f   sdl_ttf:pshinter.obj
 0001:0006dcd0       _ps_unicode_value          0046e090 f   sdl_ttf:psmodule.obj
 0001:0006de40       _compare_uni_maps          0046e200 f   sdl_ttf:psmodule.obj
 0001:0006de50       _ps_build_unicode_table    0046e210 f   sdl_ttf:psmodule.obj
 0001:0006df50       _ps_lookup_unicode         0046e310 f   sdl_ttf:psmodule.obj
 0001:0006dfa0       _ps_next_unicode           0046e360 f   sdl_ttf:psmodule.obj
 0001:0006e020       _ps_get_macintosh_name     0046e3e0 f   sdl_ttf:psmodule.obj
 0001:0006e050       _ps_get_standard_strings   0046e410 f   sdl_ttf:psmodule.obj
 0001:0006e070       _ps_table_new              0046e430 f   sdl_ttf:psaux.obj
 0001:0006e110       _shift_elements            0046e4d0 f   sdl_ttf:psaux.obj
 0001:0006e140       _reallocate_t1_table       0046e500 f   sdl_ttf:psaux.obj
 0001:0006e1b0       _ps_table_add              0046e570 f   sdl_ttf:psaux.obj
 0001:0006e270       _ps_table_done             0046e630 f   sdl_ttf:psaux.obj
 0001:0006e2e0       _ps_table_release          0046e6a0 f   sdl_ttf:psaux.obj
 0001:0006e320       _ps_parser_skip_spaces     0046e6e0 f   sdl_ttf:psaux.obj
 0001:0006e360       _ps_parser_skip_alpha      0046e720 f   sdl_ttf:psaux.obj
 0001:0006e3a0       _ps_parser_to_token        0046e760 f   sdl_ttf:psaux.obj
 0001:0006e490       _ps_parser_to_token_array  0046e850 f   sdl_ttf:psaux.obj
 0001:0006e560       _T1Radix                   0046e920 f   sdl_ttf:psaux.obj
 0001:0006e600       _t1_toint                  0046e9c0 f   sdl_ttf:psaux.obj
 0001:0006e680       _ps_tobytes                0046ea40 f   sdl_ttf:psaux.obj
 0001:0006e800       _t1_tofixed                0046ebc0 f   sdl_ttf:psaux.obj
 0001:0006e950       _t1_tocoordarray           0046ed10 f   sdl_ttf:psaux.obj
 0001:0006e9e0       _t1_tofixedarray           0046eda0 f   sdl_ttf:psaux.obj
 0001:0006ea70       _t1_tobool                 0046ee30 f   sdl_ttf:psaux.obj
 0001:0006ead0       _ps_parser_load_field      0046ee90 f   sdl_ttf:psaux.obj
 0001:0006ed20       _ps_parser_load_field_table 0046f0e0 f   sdl_ttf:psaux.obj
 0001:0006ee20       _ps_parser_to_int          0046f1e0 f   sdl_ttf:psaux.obj
 0001:0006ee40       _ps_parser_to_bytes        0046f200 f   sdl_ttf:psaux.obj
 0001:0006ee70       _ps_parser_to_fixed        0046f230 f   sdl_ttf:psaux.obj
 0001:0006ee90       _ps_parser_to_coord_array  0046f250 f   sdl_ttf:psaux.obj
 0001:0006eeb0       _ps_parser_to_fixed_array  0046f270 f   sdl_ttf:psaux.obj
 0001:0006eee0       _ps_parser_init            0046f2a0 f   sdl_ttf:psaux.obj
 0001:0006ef20       _t1_builder_init           0046f2e0 f   sdl_ttf:psaux.obj
 0001:0006efc0       _t1_builder_done           0046f380 f   sdl_ttf:psaux.obj
 0001:0006efc0       _t1_decoder_done           0046f380 f   sdl_ttf:psaux.obj
 0001:0006eff0       _t1_builder_check_points   0046f3b0 f   sdl_ttf:psaux.obj
 0001:0006f010       _t1_builder_add_point      0046f3d0 f   sdl_ttf:psaux.obj
 0001:0006f070       _t1_builder_add_point1     0046f430 f   sdl_ttf:psaux.obj
 0001:0006f100       _t1_builder_add_contour    0046f4c0 f   sdl_ttf:psaux.obj
 0001:0006f150       _t1_builder_start_point    0046f510 f   sdl_ttf:psaux.obj
 0001:0006f190       _t1_builder_close_contour  0046f550 f   sdl_ttf:psaux.obj
 0001:0006f210       _t1_decrypt                0046f5d0 f   sdl_ttf:psaux.obj
 0001:0006f250       _t1_lookup_glyph_by_stdcharcode 0046f610 f   sdl_ttf:psaux.obj
 0001:0006f300       _t1_decoder_init           0046f6c0 f   sdl_ttf:psaux.obj
 0001:0006f3b0       _t1_cmap_std_done          0046f770 f   sdl_ttf:psaux.obj
 0001:0006f3d0       _t1_cmap_std_char_index    0046f790 f   sdl_ttf:psaux.obj
 0001:0006f470       _t1_cmap_std_char_next     0046f830 f   sdl_ttf:psaux.obj
 0001:0006f4b0       _t1_cmap_standard_init     0046f870 f   sdl_ttf:psaux.obj
 0001:0006f4e0       _t1_cmap_expert_init       0046f8a0 f   sdl_ttf:psaux.obj
 0001:0006f510       _t1_cmap_custom_init       0046f8d0 f   sdl_ttf:psaux.obj
 0001:0006f540       _t1_cmap_custom_done       0046f900 f   sdl_ttf:psaux.obj
 0001:0006f550       _t1_cmap_custom_char_index 0046f910 f   sdl_ttf:psaux.obj
 0001:0006f580       _t1_cmap_custom_char_next  0046f940 f   sdl_ttf:psaux.obj
 0001:0006f5c0       _cff_cmap_uni_pair_compare 0046f980 f   sdl_ttf:psaux.obj
 0001:0006f5c0       _t1_cmap_uni_pair_compare  0046f980 f   sdl_ttf:psaux.obj
 0001:0006f5e0       _t1_cmap_unicode_init      0046f9a0 f   sdl_ttf:psaux.obj
 0001:0006f6f0       _cff_cmap_unicode_done     0046fab0 f   sdl_ttf:psaux.obj
 0001:0006f6f0       _t1_cmap_unicode_done      0046fab0 f   sdl_ttf:psaux.obj
 0001:0006f710       _cff_cmap_unicode_char_next 0046fad0 f   sdl_ttf:psaux.obj
 0001:0006f710       _t1_cmap_unicode_char_next 0046fad0 f   sdl_ttf:psaux.obj
 0001:0006f7c0       _t1operator_seac           0046fb80 f   sdl_ttf:psaux.obj
 0001:0006f920       _t1_decoder_parse_charstrings 0046fce0 f   sdl_ttf:psaux.obj
 0001:00070510       _hash_bucket               004708d0 f   sdl_ttf:bdf.obj
 0001:000705b0       _hash_rehash               00470970 f   sdl_ttf:bdf.obj
 0001:00070650       _hash_init                 00470a10 f   sdl_ttf:bdf.obj
 0001:00070690       _hash_free                 00470a50 f   sdl_ttf:bdf.obj
 0001:000706d0       _hash_insert               00470a90 f   sdl_ttf:bdf.obj
 0001:00070750       __bdf_split                00470b10 f   sdl_ttf:bdf.obj
 0001:000709d0       __bdf_shift                00470d90 f   sdl_ttf:bdf.obj
 0001:00070a10       __bdf_join                 00470dd0 f   sdl_ttf:bdf.obj
 0001:00070a70       _bdf_internal_readstream   00470e30 f   sdl_ttf:bdf.obj
 0001:00070ae0       __bdf_readstream           00470ea0 f   sdl_ttf:bdf.obj
 0001:00070cb0       __bdf_atoul                00471070 f   sdl_ttf:bdf.obj
 0001:00070d70       __bdf_atol                 00471130 f   sdl_ttf:bdf.obj
 0001:00070e50       __bdf_atos                 00471210 f   sdl_ttf:bdf.obj
 0001:00070f30       _by_encoding               004712f0 f   sdl_ttf:bdf.obj
 0001:00070f50       _bdf_create_property       00471310 f   sdl_ttf:bdf.obj
 0001:00071060       __bdf_add_comment          00471420 f   sdl_ttf:bdf.obj
 0001:000710d0       __bdf_set_default_spacing  00471490 f   sdl_ttf:bdf.obj
 0001:00071200       __bdf_is_atom              004715c0 f   sdl_ttf:bdf.obj
 0001:00071300       __bdf_add_property         004716c0 f   sdl_ttf:bdf.obj
 0001:000716a0       __bdf_parse_glyphs         00471a60 f   sdl_ttf:bdf.obj
 0001:00071fa0       _bdf_free_font             00472360 f   sdl_ttf:bdf.obj
 0001:00072170       _bdf_get_font_property     00472530 f   sdl_ttf:bdf.obj
 0001:000721b0       _bdf_cmap_init             00472570 f   sdl_ttf:bdf.obj
 0001:000721d0       _pcf_cmap_done             00472590 f   sdl_ttf:bdf.obj
 0001:000721d0       _bdf_cmap_done             00472590 f   sdl_ttf:bdf.obj
 0001:000721d0       _pfr_cmap_done             00472590 f   sdl_ttf:bdf.obj
 0001:000721e0       _pcf_cmap_char_index       004725a0 f   sdl_ttf:bdf.obj
 0001:000721e0       _bdf_cmap_char_index       004725a0 f   sdl_ttf:bdf.obj
 0001:00072230       _bdf_cmap_char_next        004725f0 f   sdl_ttf:bdf.obj
 0001:00072230       _pcf_cmap_char_next        004725f0 f   sdl_ttf:bdf.obj
 0001:000722b0       _BDF_Face_Done             00472670 f   sdl_ttf:bdf.obj
 0001:00072320       _BDF_Set_Pixel_Size        004726e0 f   sdl_ttf:bdf.obj
 0001:00072390       _BDF_Glyph_Load            00472750 f   sdl_ttf:bdf.obj
 0001:00072610       _bdf_get_bdf_property      004729d0 f   sdl_ttf:bdf.obj
 0001:000726b0       _bdf_driver_requester      00472a70 f   sdl_ttf:bdf.obj
 0001:000726e0       __bdf_parse_properties     00472aa0 f   sdl_ttf:bdf.obj
 0001:00072960       __bdf_parse_start          00472d20 f   sdl_ttf:bdf.obj
 0001:00072e80       _bdf_load_font             00473240 f   sdl_ttf:bdf.obj
 0001:000730f0       _BDF_Face_Init             004734b0 f   sdl_ttf:bdf.obj
 0001:00073680       _pcf_read_TOC              00473a40 f   sdl_ttf:pcf.obj
 0001:00073780       _pcf_get_metric            00473b40 f   sdl_ttf:pcf.obj
 0001:00073820       _pcf_seek_to_table_type    00473be0 f   sdl_ttf:pcf.obj
 0001:00073890       _pcf_find_property         00473c50 f   sdl_ttf:pcf.obj
 0001:00073930       _pcf_get_properties        00473cf0 f   sdl_ttf:pcf.obj
 0001:00073c60       _pcf_get_metrics           00474020 f   sdl_ttf:pcf.obj
 0001:00073de0       _pcf_get_bitmaps           004741a0 f   sdl_ttf:pcf.obj
 0001:00073fb0       _pcf_get_encodings         00474370 f   sdl_ttf:pcf.obj
 0001:00074220       _pcf_get_accel             004745e0 f   sdl_ttf:pcf.obj
 0001:00074380       _pcf_load_font             00474740 f   sdl_ttf:pcf.obj
 0001:000747a0       _pcf_cmap_init             00474b60 f   sdl_ttf:pcf.obj
 0001:000747c0       _PCF_Face_Done             00474b80 f   sdl_ttf:pcf.obj
 0001:000748b0       _PCF_Face_Init             00474c70 f   sdl_ttf:pcf.obj
 0001:000749d0       _PCF_Set_Pixel_Size        00474d90 f   sdl_ttf:pcf.obj
 0001:00074a20       _PCF_Glyph_Load            00474de0 f   sdl_ttf:pcf.obj
 0001:00074c10       _pcf_get_bdf_property      00474fd0 f   sdl_ttf:pcf.obj
 0001:00074c60       _pcf_driver_requester      00475020 f   sdl_ttf:pcf.obj
 0001:00074c90       _cid_parser_new            00475050 f   sdl_ttf:type1cid.obj
 0001:00074e00       _cid_load_keyword          004751c0 f   sdl_ttf:type1cid.obj
 0001:00074e90       _parse_font_matrix         00475250 f   sdl_ttf:type1cid.obj
 0001:00074fa0       _parse_fd_array            00475360 f   sdl_ttf:type1cid.obj
 0001:00075020       _cid_parse_dict            004753e0 f   sdl_ttf:type1cid.obj
 0001:00075160       _cid_read_subrs            00475520 f   sdl_ttf:type1cid.obj
 0001:00075490       _cid_face_open             00475850 f   sdl_ttf:type1cid.obj
 0001:00075520       _cid_slot_init             004758e0 f   sdl_ttf:type1cid.obj
 0001:00075560       _cid_size_done             00475920 f   sdl_ttf:type1cid.obj
 0001:000755c0       _cid_size_init             00475980 f   sdl_ttf:type1cid.obj
 0001:00075640       _cid_size_reset            00475a00 f   sdl_ttf:type1cid.obj
 0001:000756a0       _cid_face_done             00475a60 f   sdl_ttf:type1cid.obj
 0001:00075790       _cid_face_init             00475b50 f   sdl_ttf:type1cid.obj
 0001:000759d0       _SDRV_Reset                00475d90 f   sdl_ttf:type1cid.obj
 0001:000759d0       _cff_driver_init           00475d90 f   sdl_ttf:type1cid.obj
 0001:000759d0       _T1_Driver_Init            00475d90 f   sdl_ttf:type1cid.obj
 0001:000759d0       _cid_driver_init           00475d90 f   sdl_ttf:type1cid.obj
 0001:000759d0       _ctl_read                  00475d90 f   sdl_ttf:type1cid.obj
 0001:000759d0       _dummy_consume_data        00475d90 f   sdl_ttf:type1cid.obj
 0001:000759e0       _cid_get_postscript_name   00475da0 f   sdl_ttf:type1cid.obj
 0001:00075a00       _cid_get_interface         00475dc0 f   sdl_ttf:type1cid.obj
 0001:00075a20       _cid_load_glyph            00475de0 f   sdl_ttf:type1cid.obj
 0001:00075c40       _cid_slot_load_glyph       00476000 f   sdl_ttf:type1cid.obj
 0001:00075f90       _cff_parse_integer         00476350 f   sdl_ttf:cff.obj
 0001:00076020       _cff_parse_real            004763e0 f   sdl_ttf:cff.obj
 0001:000761a0       _cff_parse_font_matrix     00476560 f   sdl_ttf:cff.obj
 0001:00076390       _cff_parse_font_bbox       00476750 f   sdl_ttf:cff.obj
 0001:00076490       _cff_parse_private_dict    00476850 f   sdl_ttf:cff.obj
 0001:00076510       _cff_parse_cid_ros         004768d0 f   sdl_ttf:cff.obj
 0001:000765c0       _cff_parser_run            00476980 f   sdl_ttf:cff.obj
 0001:00076880       _cff_new_index             00476c40 f   sdl_ttf:cff.obj
 0001:00076a10       _cff_done_index            00476dd0 f   sdl_ttf:cff.obj
 0001:00076a50       _cff_index_get_pointers    00476e10 f   sdl_ttf:cff.obj
 0001:00076ac0       _cff_index_access_element  00476e80 f   sdl_ttf:cff.obj
 0001:00076b70       _cff_index_get_name        00476f30 f   sdl_ttf:cff.obj
 0001:00076c00       _cff_index_get_sid_string  00476fc0 f   sdl_ttf:cff.obj
 0001:00076c90       _CFF_Load_FD_Select        00477050 f   sdl_ttf:cff.obj
 0001:00076d10       _cff_fd_select_get         004770d0 f   sdl_ttf:cff.obj
 0001:00076d90       _cff_charset_load          00477150 f   sdl_ttf:cff.obj
 0001:00077040       _cff_encoding_load         00477400 f   sdl_ttf:cff.obj
 0001:00077390       _cff_subfont_load          00477750 f   sdl_ttf:cff.obj
 0001:000775c0       _cff_subfont_done          00477980 f   sdl_ttf:cff.obj
 0001:00077640       _cff_font_load             00477a00 f   sdl_ttf:cff.obj
 0001:00077970       _cff_font_done             00477d30 f   sdl_ttf:cff.obj
 0001:00077bd0       _cff_size_done             00477f90 f   sdl_ttf:cff.obj
 0001:00077c30       _cff_size_init             00477ff0 f   sdl_ttf:cff.obj
 0001:00077e60       _cff_size_reset            00478220 f   sdl_ttf:cff.obj
 0001:00077ed0       _cff_slot_init             00478290 f   sdl_ttf:cff.obj
 0001:00077f20       _cff_strcpy                004782e0 f   sdl_ttf:cff.obj
 0001:00077f80       _cff_face_init             00478340 f   sdl_ttf:cff.obj
 0001:00078350       _cff_face_done             00478710 f   sdl_ttf:cff.obj
 0001:00078390       _cff_builder_init          00478750 f   sdl_ttf:cff.obj
 0001:00078420       _cff_decoder_init          004787e0 f   sdl_ttf:cff.obj
 0001:000784b0       _cff_decoder_prepare       00478870 f   sdl_ttf:cff.obj
 0001:00078550       _cff_builder_add_point     00478910 f   sdl_ttf:cff.obj
 0001:000785a0       _cff_builder_add_point1    00478960 f   sdl_ttf:cff.obj
 0001:00078600       _cff_builder_add_contour   004789c0 f   sdl_ttf:cff.obj
 0001:00078650       _cff_builder_start_point   00478a10 f   sdl_ttf:cff.obj
 0001:00078680       _cff_builder_close_contour 00478a40 f   sdl_ttf:cff.obj
 0001:000786f0       _cff_lookup_glyph_by_stdcharcode 00478ab0 f   sdl_ttf:cff.obj
 0001:00078740       _cff_free_glyph_data       00478b00 f   sdl_ttf:cff.obj
 0001:00078770       _cff_operator_seac         00478b30 f   sdl_ttf:cff.obj
 0001:00078980       _cff_decoder_parse_charstrings 00478d40 f   sdl_ttf:cff.obj
 0001:0007a2d0       _cff_slot_load             0047a690 f   sdl_ttf:cff.obj
 0001:0007a6f0       _cff_cmap_encoding_init    0047aab0 f   sdl_ttf:cff.obj
 0001:0007a710       _cff_cmap_encoding_done    0047aad0 f   sdl_ttf:cff.obj
 0001:0007a720       _cff_cmap_encoding_char_index 0047aae0 f   sdl_ttf:cff.obj
 0001:0007a740       _cff_cmap_encoding_char_next 0047ab00 f   sdl_ttf:cff.obj
 0001:0007a780       _cff_cmap_unicode_init     0047ab40 f   sdl_ttf:cff.obj
 0001:0007a8b0       _t1_cmap_unicode_char_index 0047ac70 f   sdl_ttf:cff.obj
 0001:0007a8b0       _cff_cmap_unicode_char_index 0047ac70 f   sdl_ttf:cff.obj
 0001:0007a900       _Load_Glyph                0047acc0 f   sdl_ttf:cff.obj
 0001:0007a950       _cff_get_glyph_name        0047ad10 f   sdl_ttf:cff.obj
 0001:0007aa00       _cff_get_name_index        0047adc0 f   sdl_ttf:cff.obj
 0001:0007ab00       _cff_get_interface         0047aec0 f   sdl_ttf:cff.obj
 0001:0007ab70       _ah_angle                  0047af30 f   sdl_ttf:autohint.obj
 0001:0007ac20       _ah_test_extremum          0047afe0 f   sdl_ttf:autohint.obj
 0001:0007acc0       _ah_get_orientation        0047b080 f   sdl_ttf:autohint.obj
 0001:0007ada0       _ah_outline_done           0047b160 f   sdl_ttf:autohint.obj
 0001:0007adf0       _ah_outline_save           0047b1b0 f   sdl_ttf:autohint.obj
 0001:0007ae40       _ah_outline_load           0047b200 f   sdl_ttf:autohint.obj
 0001:0007b290       _ah_outline_compute_inflections 0047b650 f   sdl_ttf:autohint.obj
 0001:0007b470       _ah_outline_compute_segments 0047b830 f   sdl_ttf:autohint.obj
 0001:0007b680       _ah_outline_link_segments  0047ba40 f   sdl_ttf:autohint.obj
 0001:0007b7c0       _ah_outline_compute_edges  0047bb80 f   sdl_ttf:autohint.obj
 0001:0007bac0       _ah_outline_compute_blue_edges 0047be80 f   sdl_ttf:autohint.obj
 0001:0007bc60       _ah_hinter_compute_blues   0047c020 f   sdl_ttf:autohint.obj
 0001:0007bf90       _ah_hinter_compute_widths  0047c350 f   sdl_ttf:autohint.obj
 0001:0007c130       _ah_snap_width             0047c4f0 f   sdl_ttf:autohint.obj
 0001:0007c1a0       _ah_compute_stem_width     0047c560 f   sdl_ttf:autohint.obj
 0001:0007c2c0       _ah_hinter_hint_edges      0047c680 f   sdl_ttf:autohint.obj
 0001:0007c800       _ah_hinter_align_edge_points 0047cbc0 f   sdl_ttf:autohint.obj
 0001:0007c880       _ah_hinter_align_strong_points 0047cc40 f   sdl_ttf:autohint.obj
 0001:0007ca20       _ah_iup_interp             0047cde0 f   sdl_ttf:autohint.obj
 0001:0007cb50       _ah_hinter_align_weak_points 0047cf10 f   sdl_ttf:autohint.obj
 0001:0007cd50       _ah_hinter_scale_globals   0047d110 f   sdl_ttf:autohint.obj
 0001:0007cec0       _ah_hinter_done            0047d280 f   sdl_ttf:autohint.obj
 0001:0007cf10       _ah_hinter_new             0047d2d0 f   sdl_ttf:autohint.obj
 0001:0007cfd0       _ah_hinter_done_face_globals 0047d390 f   sdl_ttf:autohint.obj
 0001:0007cff0       _ah_hinter_load            0047d3b0 f   sdl_ttf:autohint.obj
 0001:0007d600       _ft_autohinter_init        0047d9c0 f   sdl_ttf:autohint.obj
 0001:0007d620       _ft_autohinter_done        0047d9e0 f   sdl_ttf:autohint.obj
 0001:0007d670       _ft_autohinter_reset_globals 0047da30 f   sdl_ttf:autohint.obj
 0001:0007d6a0       _ft_autohinter_done_globals 0047da60 f   sdl_ttf:autohint.obj
 0001:0007d6c0       _ah_hinter_load_glyph      0047da80 f   sdl_ttf:autohint.obj
 0001:0007d850       _ah_hinter_get_global_hints 0047dc10 f   sdl_ttf:autohint.obj
 0001:0007d920       _ft_autohinter_load_glyph  0047dce0 f   sdl_ttf:autohint.obj
 0001:0007d950       _ft_autohinter_get_globals 0047dd10 f   sdl_ttf:autohint.obj
 0001:0007d970       _ft_alloc                  0047dd30 f   sdl_ttf:ftsystem.obj
 0001:0007d980       _ft_realloc                0047dd40 f   sdl_ttf:ftsystem.obj
 0001:0007d9a0       _ft_ansi_stream_close      0047dd60 f   sdl_ttf:ftsystem.obj
 0001:0007d9c0       _ft_ansi_stream_io         0047dd80 f   sdl_ttf:ftsystem.obj
 0001:0007dab0       _huft_build                0047de70 f   sdl_ttf:ftgzip.obj
 0001:0007dfa0       _inflate_trees_bits        0047e360 f   sdl_ttf:ftgzip.obj
 0001:0007e040       _inflate_trees_dynamic     0047e400 f   sdl_ttf:ftgzip.obj
 0001:0007e1c0       _inflate_flush             0047e580 f   sdl_ttf:ftgzip.obj
 0001:0007e300       _inflate_codes_new         0047e6c0 f   sdl_ttf:ftgzip.obj
 0001:0007e340       _inflate_codes             0047e700 f   sdl_ttf:ftgzip.obj
 0001:0007e970       _inflate_blocks_reset      0047ed30 f   sdl_ttf:ftgzip.obj
 0001:0007e9e0       _inflate_blocks_new        0047eda0 f   sdl_ttf:ftgzip.obj
 0001:0007ea70       _inflate_blocks            0047ee30 f   sdl_ttf:ftgzip.obj
 0001:0007f5b0       _inflate_blocks_free       0047f970 f   sdl_ttf:ftgzip.obj
 0001:0007f630       _inflateReset              0047f9f0 f   sdl_ttf:ftgzip.obj
 0001:0007f670       _inflateEnd                0047fa30 f   sdl_ttf:ftgzip.obj
 0001:0007f6c0       _inflate                   0047fa80 f   sdl_ttf:ftgzip.obj
 0001:0007fab0       _adler32                   0047fe70 f   sdl_ttf:ftgzip.obj
 0001:0007fbe0       _ft_gzip_free              0047ffa0 f   sdl_ttf:ftgzip.obj
 0001:0007fc00       _ft_gzip_alloc             0047ffc0 f   sdl_ttf:ftgzip.obj
 0001:0007fc00       _zcalloc                   0047ffc0 f   sdl_ttf:ftgzip.obj
 0001:0007fc30       _zcfree                    0047fff0 f   sdl_ttf:ftgzip.obj
 0001:0007fc50       _ft_gzip_check_header      00480010 f   sdl_ttf:ftgzip.obj
 0001:0007fda0       _ft_gzip_file_done         00480160 f   sdl_ttf:ftgzip.obj
 0001:0007fe00       _ft_gzip_file_reset        004801c0 f   sdl_ttf:ftgzip.obj
 0001:0007fe80       _ft_gzip_file_fill_input   00480240 f   sdl_ttf:ftgzip.obj
 0001:0007ff00       _ft_gzip_file_fill_output  004802c0 f   sdl_ttf:ftgzip.obj
 0001:0007ff70       _ft_gzip_file_skip_output  00480330 f   sdl_ttf:ftgzip.obj
 0001:0007ffc0       _ft_gzip_file_io           00480380 f   sdl_ttf:ftgzip.obj
 0001:00080090       _ft_gzip_stream_close      00480450 f   sdl_ttf:ftgzip.obj
 0001:000800d0       _ft_gzip_stream_io         00480490 f   sdl_ttf:ftgzip.obj
 0001:000800f0       _inflateInit2_             004804b0 f   sdl_ttf:ftgzip.obj
 0001:000801f0       _ft_gzip_file_init         004805b0 f   sdl_ttf:ftgzip.obj
 0001:000803c0       _ft_bitmap_copy            00480780 f   sdl_ttf:ftglyph.obj
 0001:00080430       _ft_bitmap_glyph_init      004807f0 f   sdl_ttf:ftglyph.obj
 0001:000804c0       _ft_bitmap_glyph_copy      00480880 f   sdl_ttf:ftglyph.obj
 0001:000804f0       _ft_bitmap_glyph_done      004808b0 f   sdl_ttf:ftglyph.obj
 0001:00080510       _ft_bitmap_glyph_bbox      004808d0 f   sdl_ttf:ftglyph.obj
 0001:00080550       _ft_outline_glyph_init     00480910 f   sdl_ttf:ftglyph.obj
 0001:000805f0       _ft_outline_glyph_done     004809b0 f   sdl_ttf:ftglyph.obj
 0001:00080610       _ft_outline_glyph_copy     004809d0 f   sdl_ttf:ftglyph.obj
 0001:00080650       _ft_outline_glyph_transform 00480a10 f   sdl_ttf:ftglyph.obj
 0001:00080690       _ft_outline_glyph_bbox     00480a50 f   sdl_ttf:ftglyph.obj
 0001:000806a0       _ft_outline_glyph_prepare  00480a60 f   sdl_ttf:ftglyph.obj
 0001:000806e0       _IMG_string_equals         00480aa0 f   sdl_image:IMG.obj
 0001:000808a0       _png_read_data             00480c60 f   sdl_image:IMG_png.obj
 0001:00081510       _fill_input_buffer         004818d0 f   sdl_image:IMG_jpg.obj
 0001:00081550       _skip_input_data           00481910 f   sdl_image:IMG_jpg.obj
 0001:00081590       _jpeg_SDL_RW_src           00481950 f   sdl_image:IMG_jpg.obj
 0001:000815f0       _my_error_exit             004819b0 f   sdl_image:IMG_jpg.obj
 0001:00081820       _ReadColorMap              00481be0 f   sdl_image:IMG_gif.obj
 0001:00081890       _GetDataBlock              00481c50 f   sdl_image:IMG_gif.obj
 0001:000818e0       _GetCode                   00481ca0 f   sdl_image:IMG_gif.obj
 0001:00081a00       _LWZReadByte               00481dc0 f   sdl_image:IMG_gif.obj
 0001:00081d40       _ReadImage                 00482100 f   sdl_image:IMG_gif.obj
 0001:00081f20       _DoExtension               004822e0 f   sdl_image:IMG_gif.obj
 0001:00082a00       _create_colorhash          00482dc0 f   sdl_image:IMG_xpm.obj
 0001:00082a90       _add_colorhash             00482e50 f   sdl_image:IMG_xpm.obj
 0001:00082ae0       _get_colorhash             00482ea0 f   sdl_image:IMG_xpm.obj
 0001:00082b30       _string_equal              00482ef0 f   sdl_image:IMG_xpm.obj
 0001:00082b90       _color_to_rgb              00482f50 f   sdl_image:IMG_xpm.obj
 0001:00082c80       _get_next_line             00483040 f   sdl_image:IMG_xpm.obj
 0001:00082da0       _load_xpm                  00483160 f   sdl_image:IMG_xpm.obj
 0001:000832a0       _ReadNumber                00483660 f   sdl_image:IMG_pnm.obj
 0001:00083bc0       _get_soi                   00483f80 f   sdl_image:jdmarker.obj
 0001:00083c70       _get_sof                   00484030 f   sdl_image:jdmarker.obj
 0001:00083f80       _get_sos                   00484340 f   sdl_image:jdmarker.obj
 0001:00084280       _get_dht                   00484640 f   sdl_image:jdmarker.obj
 0001:00084590       _get_dqt                   00484950 f   sdl_image:jdmarker.obj
 0001:000847f0       _get_dri                   00484bb0 f   sdl_image:jdmarker.obj
 0001:000848e0       _examine_app0              00484ca0 f   sdl_image:jdmarker.obj
 0001:00084b30       _examine_app14             00484ef0 f   sdl_image:jdmarker.obj
 0001:00084be0       _get_interesting_appn      00484fa0 f   sdl_image:jdmarker.obj
 0001:00084d30       _skip_variable             004850f0 f   sdl_image:jdmarker.obj
 0001:00084dd0       _next_marker               00485190 f   sdl_image:jdmarker.obj
 0001:00084ee0       _first_marker              004852a0 f   sdl_image:jdmarker.obj
 0001:00084f80       _read_markers              00485340 f   sdl_image:jdmarker.obj
 0001:000852d0       _read_restart_marker       00485690 f   sdl_image:jdmarker.obj
 0001:00085470       _reset_marker_reader       00485830 f   sdl_image:jdmarker.obj
 0001:00085650       _default_decompress_parms  00485a10 f   sdl_image:jdapimin.obj
 0001:00085a00       _output_pass_setup         00485dc0 f   sdl_image:jdapistd.obj
 0001:00085c50       _use_merged_upsample       00486010 f   sdl_image:jdmaster.obj
 0001:00085f00       _prepare_range_limit_table 004862c0 f   sdl_image:jdmaster.obj
 0001:00085f80       _master_selection          00486340 f   sdl_image:jdmaster.obj
 0001:00086150       _prepare_for_output_pass   00486510 f   sdl_image:jdmaster.obj
 0001:000862b0       _finish_output_pass        00486670 f   sdl_image:jdmaster.obj
 0001:00086340       _error_exit                00486700 f   sdl_image:jerror.obj
 0001:00086360       _output_message            00486720 f   sdl_image:jerror.obj
 0001:00086390       _emit_message              00486750 f   sdl_image:jerror.obj
 0001:000863d0       _format_message            00486790 f   sdl_image:jerror.obj
 0001:00086480       _reset_error_mgr           00486840 f   sdl_image:jerror.obj
 0001:00086660       _initial_setup             00486a20 f   sdl_image:jdinput.obj
 0001:00086860       _per_scan_setup            00486c20 f   sdl_image:jdinput.obj
 0001:00086a00       _latch_quant_tables        00486dc0 f   sdl_image:jdinput.obj
 0001:00086ab0       _start_input_pass          00486e70 f   sdl_image:jdinput.obj
 0001:00086af0       _consume_markers           00486eb0 f   sdl_image:jdinput.obj
 0001:00086bc0       _reset_input_controller    00486f80 f   sdl_image:jdinput.obj
 0001:00086c10       _finish_input_pass         00486fd0 f   sdl_image:jdinput.obj
 0001:00086c80       _alloc_small               00487040 f   sdl_image:jmemmgr.obj
 0001:00086dd0       _alloc_large               00487190 f   sdl_image:jmemmgr.obj
 0001:00086e90       _alloc_sarray              00487250 f   sdl_image:jmemmgr.obj
 0001:00086f40       _alloc_barray              00487300 f   sdl_image:jmemmgr.obj
 0001:00086ff0       _request_virt_sarray       004873b0 f   sdl_image:jmemmgr.obj
 0001:00087060       _request_virt_barray       00487420 f   sdl_image:jmemmgr.obj
 0001:000870d0       _realize_virt_arrays       00487490 f   sdl_image:jmemmgr.obj
 0001:00087270       _do_sarray_io              00487630 f   sdl_image:jmemmgr.obj
 0001:00087310       _do_barray_io              004876d0 f   sdl_image:jmemmgr.obj
 0001:000873b0       _access_virt_sarray        00487770 f   sdl_image:jmemmgr.obj
 0001:00087500       _access_virt_barray        004878c0 f   sdl_image:jmemmgr.obj
 0001:00087650       _free_pool                 00487a10 f   sdl_image:jmemmgr.obj
 0001:00087750       _self_destruct             00487b10 f   sdl_image:jmemmgr.obj
 0001:00087850       _alloc_funny_pointers      00487c10 f   sdl_image:jdmainct.obj
 0001:00087900       _make_funny_pointers       00487cc0 f   sdl_image:jdmainct.obj
 0001:00087a50       _set_wraparound_pointers   00487e10 f   sdl_image:jdmainct.obj
 0001:00087b30       _set_bottom_pointers       00487ef0 f   sdl_image:jdmainct.obj
 0001:00087bd0       _process_data_simple_main  00487f90 f   sdl_image:jdmainct.obj
 0001:00087c50       _process_data_context_main 00488010 f   sdl_image:jdmainct.obj
 0001:00087d90       _process_data_crank_post   00488150 f   sdl_image:jdmainct.obj
 0001:00087dc0       _start_pass_main           00488180 f   sdl_image:jdmainct.obj
 0001:00087f10       _start_iMCU_row            004882d0 f   sdl_image:jdcoefct.obj
 0001:00087f60       _start_input_pass          00488320 f   sdl_image:jdcoefct.obj
 0001:00087f80       _decompress_onepass        00488340 f   sdl_image:jdcoefct.obj
 0001:00088220       _consume_data              004885e0 f   sdl_image:jdcoefct.obj
 0001:00088450       _decompress_data           00488810 f   sdl_image:jdcoefct.obj
 0001:00088600       _smoothing_ok              004889c0 f   sdl_image:jdcoefct.obj
 0001:00088770       _decompress_smooth_data    00488b30 f   sdl_image:jdcoefct.obj
 0001:00088de0       _start_output_pass         004891a0 f   sdl_image:jdcoefct.obj
 0001:00089460       _process_restart           00489820 f   sdl_image:jdhuff.obj
 0001:000894f0       _decode_mcu                004898b0 f   sdl_image:jdhuff.obj
 0001:00089910       _start_pass_huff_decoder   00489cd0 f   sdl_image:jdhuff.obj
 0001:00089ac0       _process_restart           00489e80 f   sdl_image:jdphuff.obj
 0001:00089b50       _decode_mcu_DC_first       00489f10 f   sdl_image:jdphuff.obj
 0001:00089da0       _decode_mcu_AC_first       0048a160 f   sdl_image:jdphuff.obj
 0001:00089ff0       _decode_mcu_DC_refine      0048a3b0 f   sdl_image:jdphuff.obj
 0001:0008a0e0       _decode_mcu_AC_refine      0048a4a0 f   sdl_image:jdphuff.obj
 0001:0008a4e0       _start_pass_phuff_decoder  0048a8a0 f   sdl_image:jdphuff.obj
 0001:0008a7d0       _start_pass                0048ab90 f   sdl_image:jddctmgr.obj
 0001:0008ab80       _post_process_1pass        0048af40 f   sdl_image:jdpostct.obj
 0001:0008ac00       _post_process_prepass      0048afc0 f   sdl_image:jdpostct.obj
 0001:0008aca0       _post_process_2pass        0048b060 f   sdl_image:jdpostct.obj
 0001:0008ad40       _start_pass_dpost          0048b100 f   sdl_image:jdpostct.obj
 0001:0008aed0       _start_pass_upsample       0048b290 f   sdl_image:jdsample.obj
 0001:0008aef0       _sep_upsample              0048b2b0 f   sdl_image:jdsample.obj
 0001:0008afd0       _fullsize_upsample         0048b390 f   sdl_image:jdsample.obj
 0001:0008afe0       _noop_upsample             0048b3a0 f   sdl_image:jdsample.obj
 0001:0008aff0       _int_upsample              0048b3b0 f   sdl_image:jdsample.obj
 0001:0008b0f0       _h2v1_upsample             0048b4b0 f   sdl_image:jdsample.obj
 0001:0008b150       _h2v2_upsample             0048b510 f   sdl_image:jdsample.obj
 0001:0008b1d0       _h2v1_fancy_upsample       0048b590 f   sdl_image:jdsample.obj
 0001:0008b290       _h2v2_fancy_upsample       0048b650 f   sdl_image:jdsample.obj
 0001:0008b5b0       _build_ycc_rgb_table       0048b970 f   sdl_image:jdcolor.obj
 0001:0008b680       _ycc_rgb_convert           0048ba40 f   sdl_image:jdcolor.obj
 0001:0008b7a0       _null_convert              0048bb60 f   sdl_image:jdcolor.obj
 0001:0008b820       _grayscale_convert         0048bbe0 f   sdl_image:jdcolor.obj
 0001:0008b850       _gray_rgb_convert          0048bc10 f   sdl_image:jdcolor.obj
 0001:0008b8b0       _ycck_cmyk_convert         0048bc70 f   sdl_image:jdcolor.obj
 0001:0008bbd0       _build_ycc_rgb_table       0048bf90 f   sdl_image:jdmerge.obj
 0001:0008bca0       _start_pass_merged_upsample 0048c060 f   sdl_image:jdmerge.obj
 0001:0008bcc0       _merged_2v_upsample        0048c080 f   sdl_image:jdmerge.obj
 0001:0008bd90       _merged_1v_upsample        0048c150 f   sdl_image:jdmerge.obj
 0001:0008bdd0       _h2v1_merged_upsample      0048c190 f   sdl_image:jdmerge.obj
 0001:0008bf20       _h2v2_merged_upsample      0048c2e0 f   sdl_image:jdmerge.obj
 0001:0008c1d0       _prescan_quantize          0048c590 f   sdl_image:jquant2.obj
 0001:0008c250       _update_box                0048c610 f   sdl_image:jquant2.obj
 0001:0008c640       _median_cut                0048ca00 f   sdl_image:jquant2.obj
 0001:0008c7b0       _compute_color             0048cb70 f   sdl_image:jquant2.obj
 0001:0008c940       _select_colors             0048cd00 f   sdl_image:jquant2.obj
 0001:0008c9d0       _find_nearby_colors        0048cd90 f   sdl_image:jquant2.obj
 0001:0008cbb0       _find_best_colors          0048cf70 f   sdl_image:jquant2.obj
 0001:0008cd30       _fill_inverse_cmap         0048d0f0 f   sdl_image:jquant2.obj
 0001:0008ce50       _pass2_no_dither           0048d210 f   sdl_image:jquant2.obj
 0001:0008cf20       _pass2_fs_dither           0048d2e0 f   sdl_image:jquant2.obj
 0001:0008d210       _init_error_limit          0048d5d0 f   sdl_image:jquant2.obj
 0001:0008d2b0       _finish_pass1              0048d670 f   sdl_image:jquant2.obj
 0001:0008d2e0       _start_pass_2_quant        0048d6a0 f   sdl_image:jquant2.obj
 0001:0008d410       _new_color_map_2_quant     0048d7d0 f   sdl_image:jquant2.obj
 0001:0008d570       _select_ncolors            0048d930 f   sdl_image:jquant1.obj
 0001:0008d660       _create_colormap           0048da20 f   sdl_image:jquant1.obj
 0001:0008d7e0       _create_colorindex         0048dba0 f   sdl_image:jquant1.obj
 0001:0008d950       _make_odither_array        0048dd10 f   sdl_image:jquant1.obj
 0001:0008d9d0       _create_odither_tables     0048dd90 f   sdl_image:jquant1.obj
 0001:0008da20       _color_quantize            0048dde0 f   sdl_image:jquant1.obj
 0001:0008dad0       _color_quantize3           0048de90 f   sdl_image:jquant1.obj
 0001:0008db90       _quantize_ord_dither       0048df50 f   sdl_image:jquant1.obj
 0001:0008dcc0       _quantize3_ord_dither      0048e080 f   sdl_image:jquant1.obj
 0001:0008dde0       _quantize_fs_dither        0048e1a0 f   sdl_image:jquant1.obj
 0001:0008dfa0       _alloc_fs_workspace        0048e360 f   sdl_image:jquant1.obj
 0001:0008dfe0       _start_pass_1_quant        0048e3a0 f   sdl_image:jquant1.obj
 0001:0008e0d0       _new_color_map_1_quant     0048e490 f   sdl_image:jquant1.obj
 0001:0008e190       _ft_free                   0048e550 f   sdl_image:jmemansi.obj
 0001:0008e1b0       _read_backing_store        0048e570 f   sdl_image:jmemansi.obj
 0001:0008e220       _write_backing_store       0048e5e0 f   sdl_image:jmemansi.obj
 0001:0008e290       _close_backing_store       0048e650 f   sdl_image:jmemansi.obj
 0001:00091c60       ?Match4@@YA_NQBE00@Z       00492020 f   libsmpegx:MPEGsystem.obj
 0001:00093020       ?audio_header@@YAIPAEPAIPAN@Z 004933e0 f   libsmpegx:MPEGsystem.obj
 0001:000931e0       ?sequence_header@@YAIPAEIPAN@Z 004935a0 f   libsmpegx:MPEGsystem.obj
 0001:00093310       ?gop_header@@YAIPAEIPAN@Z  004936d0 f   libsmpegx:MPEGsystem.obj
 0001:00093430       ?slice_header@@YAIPAEI@Z   004937f0 f   libsmpegx:MPEGsystem.obj
 0001:000934a0       ?packet_header@@YAIPAEIPAN@Z 00493860 f   libsmpegx:MPEGsystem.obj
 0001:00093520       ?read_time_code@@YANPAE@Z  004938e0 f   libsmpegx:MPEGsystem.obj
 0001:000935c0       ?stream_header@@YAIPAEIPAI0PANN@Z 00493980 f   libsmpegx:MPEGsystem.obj
 0001:00094bc0       ?system_aligned@@YA_NPAEI@Z 00494f80 f   libsmpegx:MPEGsystem.obj
 0001:0009be90       ?dct36@@YAXPAM0000@Z       0049c250 f   libsmpegx:mpeglayer3.obj
 0001:0009c8b0       ?dct12@@YAXPAM0000@Z       0049cc70 f   libsmpegx:mpeglayer3.obj
 0001:000a0c70       _filter_destroy            004a1030 f   libsmpegx:MPEGfilter.obj
 0001:000a0ca0       _filter_null_callback      004a1060 f   libsmpegx:MPEGfilter.obj
 0001:000a1f10       ?ParseSeqHead@@YAHPAUvid_stream@@@Z 004a22d0 f   libsmpegx:video.obj
 0001:000a2e80       ?ParseGOP@@YAHPAUvid_stream@@@Z 004a3240 f   libsmpegx:video.obj
 0001:000a3800       ?ParsePicture@@YAHPAUvid_stream@@N@Z 004a3bc0 f   libsmpegx:video.obj
 0001:000a42e0       ?ParseSlice@@YAHPAUvid_stream@@@Z 004a46a0 f   libsmpegx:video.obj
 0001:000a46b0       ?ParseMacroBlock@@YAHPAUvid_stream@@@Z 004a4a70 f   libsmpegx:video.obj
 0001:000a6010       ?ReconIMBlock@@YAXPAUvid_stream@@H@Z 004a63d0 f   libsmpegx:video.obj
 0001:000a6500       ?ReconPMBlock@@YAXPAUvid_stream@@HHHH@Z 004a68c0 f   libsmpegx:video.obj
 0001:000a8740       ?ReconBMBlock@@YAXPAUvid_stream@@HHHH@Z 004a8b00 f   libsmpegx:video.obj
 0001:000aa860       ?ReconBiMBlock@@YAXPAUvid_stream@@HHHHHH@Z 004aac20 f   libsmpegx:video.obj
 0001:000ab7b0       ?ProcessSkippedPFrameMBlocks@@YAXPAUvid_stream@@@Z 004abb70 f   libsmpegx:video.obj
 0001:000abaa0       ?ProcessSkippedBFrameMBlocks@@YAXPAUvid_stream@@@Z 004abe60 f   libsmpegx:video.obj
 0001:000acee0       ?ReconSkippedBlock@@YAXPAE0HHHHHHHH@Z 004ad2a0 f   libsmpegx:video.obj
 0001:000ad5e0       ?DoPictureDisplay@@YAXPAUvid_stream@@@Z 004ad9a0 f   libsmpegx:video.obj
 0001:000af1c0       ?init_mb_addr_inc@@YAXXZ   004af580 f   libsmpegx:decoders.obj
 0001:000af5b0       ?init_mb_type_P@@YAXXZ     004af970 f   libsmpegx:decoders.obj
 0001:000af950       ?init_mb_type_B@@YAXXZ     004afd10 f   libsmpegx:decoders.obj
 0001:000afee0       ?init_motion_vectors@@YAXXZ 004b02a0 f   libsmpegx:decoders.obj
 0001:000c9a81       ?CatchGuardHandler@@YA?AW4_EXCEPTION_DISPOSITION@@PAUEHExceptionRecord@@PAUCatchGuardRN@@PAX2@Z 004c9e41 f   LIBCMT:trnsctrl.obj
 0001:000c9b83       ?TranslatorGuardHandler@@YA?AW4_EXCEPTION_DISPOSITION@@PAUEHExceptionRecord@@PAUTranslatorGuardRN@@PAX2@Z 004c9f43 f   LIBCMT:trnsctrl.obj
 0001:000c9dc0       __unwind_handler           004ca180 f   LIBCMT:exsup.obj
 0001:000ca087       _report_failure            004ca447 f   LIBCMT:secchk.obj
 0001:000ca427       _doexit                    004ca7e7 f   LIBCMT:crt0dat.obj
 0001:000ca58e       _flsall                    004ca94e f   LIBCMT:fflush.obj
 0001:000ca867       __onexit_lk                004cac27 f   LIBCMT:onexit.obj
 0001:000cbc80       _shortsort                 004cc040 f   LIBCMT:qsort.obj
 0001:000cc5a5       _strtoxl                   004cc965 f   LIBCMT:strtol.obj
 0001:000cc7b6       _init_namebuf              004ccb76 f   LIBCMT:tmpfile.obj
 0001:000cc819       _genfname                  004ccbd9 f   LIBCMT:tmpfile.obj
 0001:000cd52e       __shift                    004cd8ee f   LIBCMT:cvt.obj
 0001:000cd551       __cftoe2                   004cd911 f   LIBCMT:cvt.obj
 0001:000cd658       __cftof2                   004cda18 f   LIBCMT:cvt.obj
 0001:000cd841       ?TypeMatch@@YAHPBU_s_HandlerType@@PBU_s_CatchableType@@PBU_s_ThrowInfo@@@Z 004cdc01 f   LIBCMT:frame.obj
 0001:000cd8b3       ?FrameUnwindFilter@@YAHPAU_EXCEPTION_POINTERS@@@Z 004cdc73 f   LIBCMT:frame.obj
 0001:000cd9e4       ?AdjustPointer@@YAPAXPAXABUPMD@@@Z 004cdda4 f   LIBCMT:frame.obj
 0001:000cda03       ?CallCatchBlock@@YAPAXPAUEHExceptionRecord@@PAUEHRegistrationNode@@PAU_CONTEXT@@PBU_s_FuncInfo@@PAXHK@Z 004cddc3 f   LIBCMT:frame.obj
 0001:000cdbaa       ?BuildCatchObject@@YAXPAUEHExceptionRecord@@PAXPBU_s_HandlerType@@PBU_s_CatchableType@@@Z 004cdf6a f   LIBCMT:frame.obj
 0001:000cdd26       ?CatchIt@@YAXPAUEHExceptionRecord@@PAUEHRegistrationNode@@PAU_CONTEXT@@PAXPBU_s_FuncInfo@@PBU_s_HandlerType@@PBU_s_CatchableType@@PBU_s_TryBlockMapEntry@@H1E@Z 004ce0e6 f   LIBCMT:frame.obj
 0001:000cdd8d       ?FindHandlerForForeignException@@YAXPAUEHExceptionRecord@@PAUEHRegistrationNode@@PAU_CONTEXT@@PAXPBU_s_FuncInfo@@HH1@Z 004ce14d f   LIBCMT:frame.obj
 0001:000cde4b       ?FindHandler@@YAXPAUEHExceptionRecord@@PAUEHRegistrationNode@@PAU_CONTEXT@@PAXPBU_s_FuncInfo@@EH1@Z 004ce20b f   LIBCMT:frame.obj
 0001:000ce620       _write_char                004ce9e0 f   LIBCMT:output.obj
 0001:000ce653       _write_multi_char          004cea13 f   LIBCMT:output.obj
 0001:000ce677       _write_string              004cea37 f   LIBCMT:output.obj
 0001:000cf9bc       __hextodec                 004cfd7c f   LIBCMT:input.obj
 0001:000cf9ee       __inc                      004cfdae f   LIBCMT:input.obj
 0001:000d1dd9       _xtoa                      004d2199 f   LIBCMT:xtoa.obj
 0001:000d1f79       __tsopen_lk                004d2339 f   LIBCMT:open.obj
 0001:000d235e       _write_char                004d271e f   LIBCMT:woutput.obj
 0001:000d2383       _write_multi_char          004d2743 f   LIBCMT:woutput.obj
 0001:000d23a8       _write_string              004d2768 f   LIBCMT:woutput.obj
 0001:000d344d       __abstract_cw              004d380d f   LIBCMT:ieee87.obj
 0001:000d34df       __hw_cw                    004d389f f   LIBCMT:ieee87.obj
 0001:000d3602       _setSBCS                   004d39c2 f   LIBCMT:mbctype.obj
 0001:000d369c       __setmbcp_lk               004d3a5c f   LIBCMT:mbctype.obj
 0001:000d391e       ___crtInitCritSecNoSpinCount@8 004d3cde f   LIBCMT:initcrit.obj
 0001:000d4cf0       _Color16DitherYV12Mod1X    004d50b0 f   libsdlx:SDL_yuv_sw.obj
 0001:000d4eb0       _Color24DitherYV12Mod1X    004d5270 f   libsdlx:SDL_yuv_sw.obj
 0001:000d50a0       _Color32DitherYV12Mod1X    004d5460 f   libsdlx:SDL_yuv_sw.obj
 0001:000d5260       _Color16DitherYV12Mod2X    004d5620 f   libsdlx:SDL_yuv_sw.obj
 0001:000d5450       _Color24DitherYV12Mod2X    004d5810 f   libsdlx:SDL_yuv_sw.obj
 0001:000d56e0       _Color32DitherYV12Mod2X    004d5aa0 f   libsdlx:SDL_yuv_sw.obj
 0001:000d58e0       _Color16DitherYUY2Mod1X    004d5ca0 f   libsdlx:SDL_yuv_sw.obj
 0001:000d5a10       _Color24DitherYUY2Mod1X    004d5dd0 f   libsdlx:SDL_yuv_sw.obj
 0001:000d5b60       _Color32DitherYUY2Mod1X    004d5f20 f   libsdlx:SDL_yuv_sw.obj
 0001:000d5c90       _Color16DitherYUY2Mod2X    004d6050 f   libsdlx:SDL_yuv_sw.obj
 0001:000d5dd0       _Color24DitherYUY2Mod2X    004d6190 f   libsdlx:SDL_yuv_sw.obj
 0001:000d5f50       _Color32DitherYUY2Mod2X    004d6310 f   libsdlx:SDL_yuv_sw.obj
 0001:000d6090       _number_of_bits_set        004d6450 f   libsdlx:SDL_yuv_sw.obj
 0001:000d60c0       _free_bits_at_bottom       004d6480 f   libsdlx:SDL_yuv_sw.obj
 0001:000d69f0       _generate_rowbytes         004d6db0 f   libsdlx:SDL_stretch.obj
 0001:000d6f10       $L29957                    004d72d0 f   Furby.obj
 0001:000d6f10       $L29977                    004d72d0 f   Furby.obj
 0001:000d6f10       $L29937                    004d72d0 f   Furby.obj
 0001:000d6f10       $L29907                    004d72d0 f   Furby.obj
 0001:000d6f10       $L30011                    004d72d0 f   Furby.obj
 0001:000d6f10       $L29872                    004d72d0 f   Furby.obj
 0001:000d6f18       __ehhandler$??0SkullShot@@QAE@PAUSDL_Surface@@MMMM@Z 004d72d8 f   Furby.obj
 0001:000d6f18       __ehhandler$??0Skull@@QAE@QAPAUSDL_Surface@@PAU1@MMPAV?$list@PAVSprite@@V?$allocator@PAVSprite@@@std@@@std@@@Z 004d72d8 f   Furby.obj
 0001:000d6f18       __ehhandler$??0SKDeathAnimation@@QAE@QAPAUSDL_Surface@@MM@Z 004d72d8 f   Furby.obj
 0001:000d6f18       __ehhandler$??0DeathAnimation@@QAE@QAPAUSDL_Surface@@MM@Z 004d72d8 f   Furby.obj
 0001:000d6f18       __ehhandler$??0Shot@@QAE@PAUSDL_Surface@@MMMM@Z 004d72d8 f   Furby.obj
 0001:000d6f18       __ehhandler$??0Furby@@QAE@QAPAUSDL_Surface@@PAU1@MMPAV?$list@PAVSprite@@V?$allocator@PAVSprite@@@std@@@std@@@Z 004d72d8 f   Furby.obj
 0001:000d6f30       __ehhandler$?_Copy@?$basic_string@DU?$char_traits@D@std@@V?$allocator@D@2@@std@@IAEXII@Z 004d72f0 f   Furby.obj
 0001:000d6f40       $L31752                    004d7300 f   Furby.obj
 0001:000d6f40       $L31319                    004d7300 f   Furby.obj
 0001:000d6f48       __ehhandler$??0logic_error@std@@QAE@ABV?$basic_string@DU?$char_traits@D@std@@V?$allocator@D@2@@1@@Z 004d7308 f   Furby.obj
 0001:000d6f48       __ehhandler$??0logic_error@std@@QAE@ABV01@@Z 004d7308 f   Furby.obj
 0001:000d6f60       $L31615                    004d7320 f   Furby.obj
 0001:000d6f68       __ehhandler$?_Incsize@?$list@PAVSprite@@V?$allocator@PAVSprite@@@std@@@std@@IAEXI@Z 004d7328 f   Furby.obj
 0001:000d6f80       $L31979                    004d7340 f   Furby.obj
 0001:000d6f80       $L31945                    004d7340 f   Furby.obj
 0001:000d6f8b       __ehhandler$?Update@Skull@@UAEXPAVRaycaster@@@Z 004d734b f   Furby.obj
 0001:000d6f8b       __ehhandler$?Update@Furby@@UAEXPAVRaycaster@@@Z 004d734b f   Furby.obj
 0001:000d6fa0       $L28377                    004d7360 f   Main.obj
 0001:000d6fae       $L28378                    004d736e f   Main.obj
 0001:000d6fbc       $L28379                    004d737c f   Main.obj
 0001:000d6fca       $L28380                    004d738a f   Main.obj
 0001:000d6fd8       __ehhandler$_main          004d7398 f   Main.obj
 0001:000d6ff0       $L34862                    004d73b0 f   Raycaster.obj
 0001:000d6ff0       $L35110                    004d73b0 f   Raycaster.obj
 0001:000d6ff8       __ehhandler$?_Incsize@?$list@USprDraw@@V?$allocator@USprDraw@@@std@@@std@@IAEXI@Z 004d73b8 f   Raycaster.obj
 0001:000d6ff8       __ehhandler$?_Incsize@?$list@VDoor@@V?$allocator@VDoor@@@std@@@std@@IAEXI@Z 004d73b8 f   Raycaster.obj
 0001:000d7010       $L35792                    004d73d0 f   Raycaster.obj
 0001:000d701e       $L35793                    004d73de f   Raycaster.obj
 0001:000d702c       __ehhandler$??0Raycaster@@QAE@PAURaycasterSetup@@@Z 004d73ec f   Raycaster.obj
 0001:000d7040       $L36712                    004d7400 f   Raycaster.obj
 0001:000d704b       $L36713                    004d740b f   Raycaster.obj
 0001:000d7061       __ehhandler$?sort@?$list@USprDraw@@V?$allocator@USprDraw@@@std@@@std@@QAEXXZ 004d7421 f   Raycaster.obj
 0001:000d7070       $L31408                    004d7430 f   x_Framework.obj
 0001:000d707e       __ehhandler$??0Framework@@QAE@PAUFrameworkSetup@@@Z 004d743e f   x_Framework.obj
 0001:000d7090       $L31531                    004d7450 f   x_Framework.obj
 0001:000d709b       __ehhandler$??1Framework@@QAE@XZ 004d745b f   x_Framework.obj
 0001:000d70b0       $L32115                    004d7470 f   x_Framework.obj
 0001:000d70b8       __ehhandler$?_Incsize@?$list@PAVState@@V?$allocator@PAVState@@@std@@@std@@IAEXI@Z 004d7478 f   x_Framework.obj
 0001:000d70d0       $L35009                    004d7490 f   x_Game.obj
 0001:000d70d8       $L35010                    004d7498 f   x_Game.obj
 0001:000d70e6       __ehhandler$??0Game@@QAE@PBD_N1@Z 004d74a6 f   x_Game.obj
 0001:000d70f0       $L35890                    004d74b0 f   x_Game.obj
 0001:000d70f8       __ehhandler$?_Incsize@?$list@UTextMessage@@V?$allocator@UTextMessage@@@std@@@std@@IAEXI@Z 004d74b8 f   x_Game.obj
 0001:000d7110       $L36547                    004d74d0 f   x_Game.obj
 0001:000d711b       $L36548                    004d74db f   x_Game.obj
 0001:000d7126       $L36549                    004d74e6 f   x_Game.obj
 0001:000d7131       $L36550                    004d74f1 f   x_Game.obj
 0001:000d713c       $L36551                    004d74fc f   x_Game.obj
 0001:000d7147       $L36552                    004d7507 f   x_Game.obj
 0001:000d7152       $L36553                    004d7512 f   x_Game.obj
 0001:000d715d       $L36554                    004d751d f   x_Game.obj
 0001:000d7168       __ehhandler$?LoadSpriteMap@Game@@AAEXPBD@Z 004d7528 f   x_Game.obj
 0001:000d7180       $L36655                    004d7540 f   x_Game.obj
 0001:000d718e       __ehhandler$?NextMap@Game@@AAEXXZ 004d754e f   x_Game.obj
 0001:000d71a0       $L37103                    004d7560 f   x_Game.obj
 0001:000d71ae       $L37104                    004d756e f   x_Game.obj
 0001:000d71bc       __ehhandler$?Init@Game@@UAEXXZ 004d757c f   x_Game.obj
 0001:000d71d0       $L37146                    004d7590 f   x_Game.obj
 0001:000d71db       $L37147                    004d759b f   x_Game.obj
 0001:000d71e6       __ehhandler$?Update@Game@@UAEXXZ 004d75a6 f   x_Game.obj
 0001:000d71f0       $L42131                    004d75b0 f   x_Game.obj
 0001:000d71fe       $L42133                    004d75be f   x_Game.obj
 0001:000d7209       $L42134                    004d75c9 f   x_Game.obj
 0001:000d7214       __ehhandler$?Shoot@Game@@AAEXXZ 004d75d4 f   x_Game.obj
 0001:000d7220       $L4363                     004d75e0 f   libsmpegx:MPEG.obj
 0001:000d722b       __ehhandler$?Init@MPEG@@QAEXPAUSDL_RWops@@_N@Z 004d75eb f   libsmpegx:MPEG.obj
 0001:000d7240       $L4488                     004d7600 f   libsmpegx:MPEG.obj
 0001:000d724b       $L4489                     004d760b f   libsmpegx:MPEG.obj
 0001:000d7256       __ehhandler$?parse_stream_list@MPEG@@IAEXXZ 004d7616 f   libsmpegx:MPEG.obj
 0001:000d7260       $L4520                     004d7620 f   libsmpegx:MPEGsystem.obj
 0001:000d726b       __ehhandler$??0MPEGsystem@@QAE@PAUSDL_RWops@@@Z 004d762b f   libsmpegx:MPEGsystem.obj
 0001:000d7280       $L4582                     004d7640 f   libsmpegx:MPEGsystem.obj
 0001:000d728b       $L4583                     004d764b f   libsmpegx:MPEGsystem.obj
 0001:000d7296       $L4584                     004d7656 f   libsmpegx:MPEGsystem.obj
 0001:000d72a1       $L4585                     004d7661 f   libsmpegx:MPEGsystem.obj
 0001:000d72ac       __ehhandler$?FillBuffer@MPEGsystem@@MAEEXZ 004d766c f   libsmpegx:MPEGsystem.obj
 0001:000d72c0       $L4041                     004d7680 f   libsmpegx:MPEGstream.obj
 0001:000d72cb       __ehhandler$??0MPEGstream@@QAE@PAVMPEGsystem@@E@Z 004d768b f   libsmpegx:MPEGstream.obj
 0001:000d72e0       $L4101                     004d76a0 f   libsmpegx:MPEGstream.obj
 0001:000d72eb       __ehhandler$?reset_stream@MPEGstream@@QAEXXZ 004d76ab f   libsmpegx:MPEGstream.obj
 0001:000d7300       $L3109                     004d76c0 f   libsmpegx:MPEGaudio.obj
 0001:000d730b       __ehhandler$?StartDecoding@MPEGaudio@@IAEXXZ 004d76cb f   libsmpegx:MPEGaudio.obj
 0001:000d7320       $L2061                     004d76e0 f   libsmpegx:MPEGlist.obj
 0001:000d732b       __ehhandler$?Alloc@MPEGlist@@QAEPAV1@I@Z 004d76eb f   libsmpegx:MPEGlist.obj
 0001:000d7335       $L11407                    004d76f5 f   libcpmt:string.obj
 0001:000d7335       $L11202                    004d76f5 f   libcpmt:string.obj
 0001:000d733d       __ehhandler$?_Xlen@_String_base@std@@QBEXXZ 004d76fd f   libcpmt:string.obj
 0001:000d733d       __ehhandler$?_Xran@_String_base@std@@QBEXXZ 004d76fd f   libcpmt:string.obj
 0001:000d7350       _$E1                       004d7710 f   libsmpegx:mpeglayer3.obj
 0001:000d7370       _$E3                       004d7730 f   libsmpegx:mpeglayer3.obj
 0001:000d7390       _$E19                      004d7750 f   x_Game.obj
 0001:000d73e4       _$E2                       004d77a4 f   libcpmt:nomemory.obj
 0002:00002850       ?SwapSaveState@D3D@@YGXPAUSwapSavedState@1@@Z 004da010 f   d3d8:present.obj
 0002:00002930       ?SwapFirstFlip@D3D@@YGXPAVCDevice@1@@Z 004da0f0 f   d3d8:present.obj
 0002:00002a50       ?SwapSetState@D3D@@YGXPAUSwapSavedState@1@@Z 004da210 f   d3d8:present.obj
 0002:00002b70       ?SwapRestoreState@D3D@@YGXPAUSwapSavedState@1@@Z 004da330 f   d3d8:present.obj
 0002:00002cf0       ?SwapSaveSurfaces@D3D@@YGXPAVCDevice@1@@Z 004da4b0 f   d3d8:present.obj
 0002:00002d80       ?SwapRestoreSurfaces@D3D@@YGXPAVCDevice@1@@Z 004da540 f   d3d8:present.obj
 0002:00002df0       ?SwapCopyBlt@D3D@@YGXPAVCDevice@1@@Z 004da5b0 f   d3d8:present.obj
 0002:00002f70       ?SwapCopy@D3D@@YGXPAVCDevice@1@K@Z 004da730 f   d3d8:present.obj
 0002:00003160       ?SwapFlip@D3D@@YGXPAVCDevice@1@@Z 004da920 f   d3d8:present.obj
 0002:00003270       ?SwapFinish@D3D@@YGXPAVCDevice@1@@Z 004daa30 f   d3d8:present.obj
 0002:000057f0       ?FindFence@D3D@@YGPAUFence@1@K@Z 004dcfb0 f   d3d8:pusher.obj
 0002:00008ca0       ?GetColorMaterial@D3D@@YGKXZ 004e0460 f   d3d8:lazy.obj
 0002:000099c0       ?SetLightColors@D3D@@YGPCKPCKPBULight@1@KK@Z 004e1180 f   d3d8:lazy.obj
 0002:00009ab0       ?SetSceneAmbientAndMaterialEmission@D3D@@YGPCKPCKK@Z 004e1270 f   d3d8:lazy.obj
 0002:00009c70       ?SetSpecularParameters@D3D@@YGPCKPCK@Z 004e1430 f   d3d8:lazy.obj
 0002:0000c8e0       ?CombinerInput@D3D@@YGKKKK@Z 004e40a0 f   d3d8:combiner.obj
 0003:0000227c       ?png_format_buffer@D3DX@@YAXPAUpng_struct_def@1@PADPBD@Z 004eb61c f   d3dx8:pngerror.obj
 0003:00004e9c       ?huft_build@D3DX@@YAHPAIIIPBI1PAPAUinflate_huft_s@1@0PAU21@00@Z 004ee23c f   d3dx8:inftrees.obj
 0004:0000001f       ??2@YAPAXI@Z               004efa3f f   dsound:dsapi.obj
 0004:000000eb       ?FloatToLong@Math@DirectSound@@YGJM@Z 004efb0b f   dsound:dsapi.obj
 0004:000000eb       ?FloatToLong@Math@DirectSound@@YGJM@Z 004efb0b f   dsound:dsapi.obj
 0004:0000013d       ?lsb@Math@DirectSound@@YIII@Z 004efb5d f   dsound:dsapi.obj
 0004:00001ecd       _$E1                       004f18ed f   dsound:dscommon.obj
 0004:00001ed8       _$E3                       004f18f8 f   dsound:dscommon.obj
 0004:000031c7       _$E1                       004f2be7 f   dsound:heap.obj
 0004:000031d2       _$E3                       004f2bf2 f   dsound:heap.obj
 0004:000031dd       ?and@@YIXPCGG@Z            004f2bfd f   dsound:mcpvoice.obj
 0004:000031dd       ?and@@YIXPCGG@Z            004f2bfd f   dsound:mcpvoice.obj
 0004:000048ac       ?or@@YIXPCGG@Z             004f42cc f   dsound:mcpbuf.obj
 0004:000048ac       ?or@@YIXPCGG@Z             004f42cc f   dsound:mcpbuf.obj
 0004:00005559       ?mBToLinear@@YGMJ@Z        004f4f79 f   dsound:i3dl2.obj
